((dp0
S'arm_dbg_args'
p1
S'-via:"d:\\School\\cs115\\AmazingMaze\\build_amazingmaze_vc12\\AmazingMaze_vc12_arm_debug.via" -qemu'
p2
sS'game-icf'
p3
S''
p4
sS'dist'
p5
NsS'csproj'
p6
g4
sS'module_path_append'
p7
NsS'global_path'
p8
S'd:\\school\\cs115'
p9
sS'system_path'
p10
S'c:\\marmalade\\7.5\\s3e\\makefile_builder'
p11
sS'android_x86_dbg_args'
p12
S'../../tools/DeployTool/DeployTool.exe --dir "d:\\School\\cs115\\AmazingMaze\\build_amazingmaze_vc12"'
p13
sS'aarch64-arch-mod'
p14
g4
sS'no-emit'
p15
NsS'arm-float-abi'
p16
g4
sS'arm_rel_rtsm_args'
p17
S'-via:"d:\\School\\cs115\\AmazingMaze\\build_amazingmaze_vc12\\AmazingMaze_vc12_arm_release.via" -qemu'
p18
sS'amd64'
p19
NsS'line-width'
p20
I80
sS'gcc_dbg_args'
p21
S'-via:"d:\\School\\cs115\\AmazingMaze\\build_amazingmaze_vc12\\AmazingMaze_vc12_gcc_debug.via" -qemu'
p22
sS'android-x86'
p23
NsS'x86_dbg_exe'
p24
S'c:/marmalade/7.5/s3e\\win32\\s3e_simulator_debug.exe'
p25
sS'disable-runtime-checks'
p26
NsS'release'
p27
NsS'no-make'
p28
NsS'xcode-x86-build-settings'
p29
g4
sS'optimise-size'
p30
NsS'fat'
p31
NsS'output-name-debug'
p32
g4
sS'arm-fpu'
p33
g4
sS'proj_name'
p34
S'AmazingMaze_vc12'
p35
sS'rvct-version'
p36
S'none'
p37
sS'compiler'
p38
g4
sS'execute'
p39
NsS'compile-static'
p40
NsS'msvc-project'
p41
I01
sS'buildenv'
p42
S'VC12'
p43
sS'quick'
p44
NsS'module_path'
p45
NsS'mkf_default'
p46
S's3e-default.mkf'
p47
sS'use-release-std-libs'
p48
NsS'using_perforce'
p49
I00
sS'tizen-x86'
p50
NsS'mips-s3e'
p51
NsS's3e-api-lib-name'
p52
S's3e_api_iwgl'
p53
sS'ios-no-pic'
p54
NsS'shared-arm-lib'
p55
NsS'arm-cpu'
p56
g4
sS'compile-thumb'
p57
NsS'no-ide'
p58
NsS'msvc-version'
p59
S'6.0'
p60
sS'arm'
p61
NsS'builddir'
p62
g4
sS'compile-debug-as-release'
p63
I0
sS'arm-arch'
p64
g4
sS'brief'
p65
NsS'dll'
p66
NsS'buildenv-toolset'
p67
g4
sS'version'
p68
NsS'aarch64-arch'
p69
g4
sS'ccache'
p70
I0
sS'offline'
p71
NsS'ios-version'
p72
g4
sS'hub_data'
p73
g4
sS'fake_vc_call'
p74
NsS'jobs'
p75
I0
sS'linkflags'
p76
NsS'gcc_aarch64_dbg_args'
p77
g13
sS'debug'
p78
NsS'xcode-build-order'
p79
g4
sS'gcc_aarch64_rel_rtsm_args'
p80
S'-via:"d:\\School\\cs115\\AmazingMaze\\build_amazingmaze_vc12\\AmazingMaze_vc12_gcc_aarch64_release.via" -qemu'
p81
sS'gcc_rel_rtsm_args'
p82
S'-via:"d:\\School\\cs115\\AmazingMaze\\build_amazingmaze_vc12\\AmazingMaze_vc12_gcc_release.via" -qemu'
p83
sS'done_defaults'
p84
I1
sS'path'
p85
NsS's3e-data-dir'
p86
S'd:/School/cs115/AmazingMaze\\data'
p87
sS'enable-exceptions'
p88
NsS'osx-dll'
p89
NsS'extension'
p90
g4
sS'no-vc6'
p91
NsS'no-strip'
p92
NsS'win32-console'
p93
NsS'dist-format'
p94
g4
sS's3e-force-arch'
p95
NsS'dump_defines'
p96
NsS'use-shared-std-libs'
p97
NsS'gcc-version'
p98
g4
sS'x86_dbg_args'
p99
S'-via:"d:\\School\\cs115\\AmazingMaze\\build_amazingmaze_vc12\\AmazingMaze_vc12_debug.via"'
p100
sS'tizen_x86_dbg_args'
p101
g13
sS'arm-debugger'
p102
g4
sS'use_temp_extension'
p103
NsS'verbose'
p104
I0
sS'log'
p105
NsS'aarch64'
p106
NsS'rebuild'
p107
NsS'mips_dbg_args'
p108
g13
sS'win32-simulator-dll'
p109
NsS'strict'
p110
NsS'xcode-aarch64-build-settings'
p111
g4
sS'enable-global-path'
p112
NsS'gcc_aarch64_rel_args'
p113
g13
sS'cflags'
p114
NsS'dist-dir'
p115
g4
sS'xcode-arm-build-settings'
p116
g4
sS'jflags'
p117
NsS'csprojSDKRefs'
p118
g4
sS'tizen_x86_rel_exe'
p119
S'c:\\marmalade\\7.5\\s3e\\makefile_builder\\tool_launcher.exe'
p120
sS'test-assets'
p121
g4
sS'distcc'
p122
NsS'external-compiler'
p123
NsS'no-distcc'
p124
NsS'preinclude'
p125
NsS'using_sdk'
p126
I01
sS'nologo'
p127
NsS'warn-level'
p128
I2
sS'mips_dbg_exe'
p129
g120
sS'mkb_in'
p130
S'd:/School/cs115/AmazingMaze/AmazingMaze.mkb'
p131
sS'tizen_x86_dbg_exe'
p132
g120
sS'arm_dbg_exe'
p133
S'c:/marmalade/7.5/s3e\\bin\\armdebug.exe'
p134
sS'csprojDLLRef'
p135
NsS'tizen_x86_rel_args'
p136
g13
sS'android_x86_dbg_exe'
p137
g120
sS'test-config'
p138
g4
sS'list-targets'
p139
NsS'arm_rel_exe'
p140
g120
sS'arm_rel_args'
p141
g13
sS'makedeps'
p142
NsS'android_x86_rel_exe'
p143
g120
sS'default-buildenv'
p144
S'vc12'
p145
sS'x86_rel_exe'
p146
g25
sS'preprocess-java'
p147
NsS'mips_rel_args'
p148
g13
sS'defines'
p149
NsS'lib'
p150
NsS'non-interactive'
p151
NsS'global_argv'
p152
(lp153
S'C:\\Marmalade\\7.5\\s3e\\makefile_builder\\mkb.py'
p154
aS'd:/School/cs115/AmazingMaze/AmazingMaze.mkb'
p155
aS'--buildenv=VC12'
p156
aS'--default-buildenv=vc12'
p157
aS'--msvc-project'
p158
asS'make'
p159
NsS'optimise-speed'
p160
NsS'internal'
p161
NsS'enable-stdinc'
p162
NsS'deploy-only'
p163
NsS'x86'
p164
NsS'deploy'
p165
g4
sS'x86_run_exe'
p166
S'c:/marmalade/7.5/s3e\\win32\\s3e_console.exe'
p167
sS'cxxflags'
p168
NsS'x86_rel_args'
p169
S'-via:"d:\\School\\cs115\\AmazingMaze\\build_amazingmaze_vc12\\AmazingMaze_vc12_release.via"'
p170
sS'gcc_rel_args'
p171
g13
sS'mips'
p172
NsS'xcode-build-settings'
p173
g4
sS'incredibuild'
p174
NsS'strict-compile'
p175
NsS'use-auto-subdirs'
p176
NsS'mips_rel_exe'
p177
g120
sS'android_x86_rel_args'
p178
g13
sS'app-icf'
p179
g4
sS'deployargs'
p180
NsS'iosnativedebug'
p181
NsS'use_prebuilt'
p182
NsS'mkf_in'
p183
(lp184
S'c:\\marmalade\\7.5\\s3e\\s3e-default.mkf'
p185
aS'c:\\marmalade\\7.5\\modules\\iwutil\\iwutil.mkf'
p186
aS'c:\\marmalade\\7.5\\modules\\third_party\\libjpeg\\libjpeg.mkf'
p187
aS'c:\\marmalade\\7.5\\modules\\third_party\\libpng\\libpng.mkf'
p188
aS'c:\\marmalade\\7.5\\modules\\third_party\\zlib\\zlib.mkf'
p189
aS'c:\\marmalade\\7.5\\modules\\iw2dscenegraphcore\\iw2dscenegraphcore.mkf'
p190
aS'c:\\marmalade\\7.5\\modules\\iw2dscenegraph\\iw2dscenegraph.mkf'
p191
aS'c:\\marmalade\\7.5\\modules\\iw2d\\iw2d.mkf'
p192
aS'c:\\marmalade\\7.5\\modules\\iwgx\\iwgx.mkf'
p193
aS'c:\\marmalade\\7.5\\modules\\iwgl\\iwgl.mkf'
p194
aS'c:\\marmalade\\7.5\\modules\\iwgeom\\iwgeom.mkf'
p195
aS'c:\\marmalade\\7.5\\modules\\iwresmanager\\iwresmanager.mkf'
p196
aS'c:\\marmalade\\7.5\\extensions\\pvrtextool\\pvrtextool.mkf'
p197
aS'c:\\marmalade\\7.5\\modules\\iwgxfont\\iwgxfont.mkf'
p198
aS'c:\\marmalade\\7.5\\modules\\third_party\\tiniconv\\tiniconv.mkf'
p199
aS'c:\\marmalade\\7.5\\modules\\iwtween\\iwtween.mkf'
p200
asS'strict-mkb'
p201
NsS'executeargs'
p202
NsS'clean'
p203
NsS'no-asm'
p204
NsS'output-name'
p205
g4
sS'no-modules'
p206
NsS'find_define'
p207
g4
s(dp208
S'c:\\marmalade\\7.5\\s3e\\makefile_builder\\templates\\vc7_suo.pyc'
p209
F1422012890.0
sS'c:\\marmalade\\7.5\\s3e\\makefile_builder\\templates\\ws81_vcxproj.pyc'
p210
F1422012892.0
sS'c:\\marmalade\\7.5\\s3e\\makefile_builder\\plugins\\s3e_ws8.pyc'
p211
F1422012890.0
sS'c:\\marmalade\\7.5\\s3e\\makefile_builder\\templates'
p212
F1422054614.950279
sS'c:\\marmalade\\7.5\\s3e\\makefile_builder\\templates\\qmake.py'
p213
F1422011718.0
sS'c:\\marmalade\\7.5\\s3e\\makefile_builder\\templates\\vc10_user.pyc'
p214
F1422012890.0
sS'c:\\marmalade\\7.5\\s3e\\makefile_builder\\plugins'
p215
F1422055040.2056024
sS'c:\\marmalade\\7.5\\s3e\\makefile_builder\\mkb_main.pyc'
p216
F1422012890.0
sS'c:\\marmalade\\7.5\\s3e\\makefile_builder\\templates\\mips_linker_script'
p217
F1422011718.0
sS'c:\\marmalade\\7.5\\s3e\\makefile_builder\\plugins\\XcodeEmitter.py'
p218
F1422011718.0
sS'c:\\marmalade\\7.5\\s3e\\makefile_builder\\mkb.py'
p219
F1422011718.0
sS'c:\\marmalade\\7.5\\s3e\\makefile_builder\\templates\\ws81_ext_sln.pyc'
p220
F1422012892.0
sS'c:\\marmalade\\7.5\\s3e\\makefile_builder\\templates\\win32_dsp.pyc'
p221
F1422012890.0
sS'c:\\marmalade\\7.5\\s3e\\makefile_builder\\templates\\ws8_csproj.pyc'
p222
F1422012892.0
sS'c:\\marmalade\\7.5\\s3e\\makefile_builder\\deployment.pyc'
p223
F1422012890.0
sS'c:\\marmalade\\7.5\\s3e\\makefile_builder\\plugins\\win32_vc6.pyc'
p224
F1422012890.0
sS'c:\\marmalade\\7.5\\s3e\\makefile_builder\\plugins\\osx_xcode.pyc'
p225
F1422012890.0
sS'c:\\marmalade\\7.5\\s3e\\makefile_builder\\plugins\\null.pyc'
p226
F1422012890.0
sS'c:\\marmalade\\7.5\\s3e\\makefile_builder\\templates\\wp81_csproj.pyc'
p227
F1422012892.0
sS'c:\\marmalade\\7.5\\s3e\\makefile_builder\\templates\\qmake_user.py'
p228
F1422011718.0
sS'c:\\marmalade\\7.5\\s3e\\makefile_builder\\templates\\vc6_opt.pyc'
p229
F1422012890.0
sS'c:\\marmalade\\7.5\\s3e\\makefile_builder\\plugins\\vc7_utils.pyc'
p230
F1422012890.0
sS'c:\\marmalade\\7.5\\s3e\\makefile_builder\\templates\\wp81_vcxproj.pyc'
p231
F1422012892.0
sS'c:\\marmalade\\7.5\\s3e\\makefile_builder\\templates\\win32_vcxproj.pyc'
p232
F1422012890.0
sS'c:\\marmalade\\7.5\\s3e\\makefile_builder\\templates\\ws8_ext_sln.pyc'
p233
F1422012892.0
sS'c:\\marmalade\\7.5\\s3e\\makefile_builder\\templates\\ws8_ext_csproj.pyc'
p234
F1422012892.0
sS'c:\\marmalade\\7.5\\s3e\\makefile_builder\\templates\\wp8_ext_csproj.pyc'
p235
F1422012892.0
sS'c:\\marmalade\\7.5\\s3e\\makefile_builder\\plugins\\s3e_wp8.pyc'
p236
F1422012890.0
sS'c:\\marmalade\\7.5\\s3e\\makefile_builder\\templates\\ws81_csproj.pyc'
p237
F1422012892.0
sS'c:\\marmalade\\7.5\\s3e\\makefile_builder\\docs\\deprecated.options.txt'
p238
F1422011718.0
sS'c:\\marmalade\\7.5\\s3e\\makefile_builder\\plugins\\s3e_make.pyc'
p239
F1422012890.0
sS'c:\\marmalade\\7.5\\s3e\\makefile_builder\\templates\\win8_ext_csproj.pyc'
p240
F1422012892.0
sS'c:\\marmalade\\7.5\\s3e\\makefile_builder\\mkb_parser.pyc'
p241
F1422012890.0
sS'c:\\marmalade\\7.5\\s3e\\makefile_builder\\plugins\\s3e_web.pyc'
p242
F1422012890.0
sS'c:\\marmalade\\7.5\\s3e\\makefile_builder\\docs\\mkb.defines.txt'
p243
F1422011718.0
sS'c:\\marmalade\\7.5\\s3e\\makefile_builder\\plugins\\osx_scons.pyc'
p244
F1422012890.0
sS'c:\\marmalade\\7.5\\s3e\\makefile_builder\\plugins\\ws81_ws81.pyc'
p245
F1422012890.0
sS'c:\\marmalade\\7.5\\s3e\\makefile_builder\\plugins\\s3e_qmake.py'
p246
F1422011718.0
sS'c:\\marmalade\\7.5\\s3e\\makefile_builder\\templates\\win8_csproj.pyc'
p247
F1422012892.0
sS'c:\\marmalade\\7.5\\s3e\\makefile_builder\\plugins\\s3e_vc6.pyc'
p248
F1422012890.0
sS'c:\\marmalade\\7.5\\s3e\\makefile_builder\\plugins\\wp81_wp81.pyc'
p249
F1422012890.0
sS'c:\\marmalade\\7.5\\s3e\\makefile_builder\\templates\\wp81_csproj_user.pyc'
p250
F1422012892.0
sS'c:\\marmalade\\7.5\\s3e\\makefile_builder\\templates\\win32_dsw.pyc'
p251
F1422012890.0
sS'c:\\marmalade\\7.5\\s3e\\makefile_builder\\templates\\xcode4.xcscheme'
p252
F1422011718.0
sS'c:\\marmalade\\7.5\\s3e\\makefile_builder\\templates\\template.opt'
p253
F1422011718.0
sS'c:\\marmalade\\7.5\\s3e\\makefile_builder\\templates\\template.suo'
p254
F1422011718.0
sS'c:\\marmalade\\7.5\\s3e\\makefile_builder\\templates\\linker_script'
p255
F1422011718.0
sS'c:\\marmalade\\7.5\\s3e\\makefile_builder\\templates\\gdb_start.txt'
p256
F1422011718.0
sS'c:\\marmalade\\7.5\\s3e\\makefile_builder\\mkb_launcher.exe'
p257
F1422012030.0
sS'c:\\marmalade\\7.5\\s3e\\makefile_builder\\templates\\scons.pyc'
p258
F1422012890.0
sS'c:\\marmalade\\7.5\\s3e\\makefile_builder\\docs\\parse_options.pyc'
p259
F1422012892.0
sS'c:\\marmalade\\7.5\\s3e\\makefile_builder\\templates\\xcode4_arm.xcscheme'
p260
F1422011718.0
sS'c:\\marmalade\\7.5\\s3e\\makefile_builder\\plugins\\VisualStudioEmitter.pyc'
p261
F1422012890.0
sS'c:\\marmalade\\7.5\\s3e\\makefile_builder\\plugins\\s3e_xcode.pyc'
p262
F1422055040.2056024
sS'c:\\marmalade\\7.5\\s3e\\makefile_builder\\plugins\\Emitter.pyc'
p263
F1422012890.0
sS'c:\\marmalade\\7.5\\s3e\\makefile_builder\\templates\\ws8_sln.pyc'
p264
F1422012892.0
sS'c:\\marmalade\\7.5\\s3e\\makefile_builder\\tool_launcher.exe'
p265
F1422012030.0
sS'c:\\marmalade\\7.5\\s3e\\makefile_builder\\templates\\wp8_sln.pyc'
p266
F1422012892.0
sS'c:\\marmalade\\7.5\\s3e\\makefile_builder\\mkb_upstream.pyc'
p267
F1422012890.0
sS'c:\\marmalade\\7.5\\s3e\\makefile_builder\\templates\\ws81_csproj_user.pyc'
p268
F1422012892.0
sS'c:\\marmalade\\7.5\\s3e\\makefile_builder\\templates\\win32_sln.pyc'
p269
F1422012890.0
sS'c:\\marmalade\\7.5\\s3e\\makefile_builder\\templates\\xcode4_DeployTool.xcscheme'
p270
F1422011718.0
sS'c:\\marmalade\\7.5\\s3e\\makefile_builder\\plugins\\deploy.pyc'
p271
F1422012890.0
sS'c:\\marmalade\\7.5\\s3e\\makefile_builder\\plugins\\s3e_win8.pyc'
p272
F1422012890.0
sS'c:\\marmalade\\7.5\\s3e\\makefile_builder\\plugins\\iphone.pyc'
p273
F1422012890.0
sS'c:\\marmalade\\7.5\\s3e\\makefile_builder\\plugins\\Win8Emitter.pyc'
p274
F1422012890.0
sS'c:\\marmalade\\7.5\\s3e\\makefile_builder\\plugins\\s3e_qmake.pyc'
p275
F1422055040.1706004
sS'c:\\marmalade\\7.5\\s3e\\makefile_builder\\docs'
p276
F1422054614.9632797
sS'c:\\marmalade\\7.5\\s3e\\makefile_builder\\mkb_globals.pyc'
p277
F1422012890.0
sS'c:\\marmalade\\7.5\\s3e\\makefile_builder\\plugins\\win8_utils.pyc'
p278
F1422012890.0
sS'c:\\marmalade\\7.5\\s3e\\makefile_builder\\plugins\\xcode4_schememanagement.py'
p279
F1422011718.0
sS'c:\\marmalade\\7.5\\s3e\\makefile_builder\\templates\\wp81_ext_sln.pyc'
p280
F1422012892.0
sS'c:\\marmalade\\7.5\\s3e\\makefile_builder\\templates\\make.py'
p281
F1422011718.0
sS'c:\\marmalade\\7.5\\s3e\\makefile_builder\\templates\\ws81_ext_csproj.pyc'
p282
F1422012892.0
sS'c:\\marmalade\\7.5\\s3e\\makefile_builder\\plugins\\s3e_xcode.py'
p283
F1422011718.0
sS'c:\\marmalade\\7.5\\s3e\\makefile_builder\\plugins\\XcodeEmitter.pyc'
p284
F1422055040.1075966
sS'c:\\marmalade\\7.5\\s3e\\makefile_builder\\docs\\deployment_options.txt'
p285
F1422011718.0
sS'c:\\marmalade\\7.5\\s3e\\makefile_builder\\templates\\win8_sln.pyc'
p286
F1422012892.0
sS'c:\\marmalade\\7.5\\s3e\\makefile_builder\\plugins\\java.pyc'
p287
F1422012890.0
sS'c:\\marmalade\\7.5\\s3e\\makefile_builder\\plugins\\xcode4_schememanagement.pyc'
p288
F1422055040.1115968
sS'c:\\marmalade\\7.5\\s3e\\makefile_builder\\plugins\\SConsEmitter.pyc'
p289
F1422012890.0
sS'c:\\marmalade\\7.5\\s3e\\makefile_builder\\templates\\win32_vcproj.pyc'
p290
F1422012890.0
sS'c:\\marmalade\\7.5\\s3e\\makefile_builder\\plugins\\wp8_wp8.pyc'
p291
F1422012890.0
sS'c:\\marmalade\\7.5\\s3e\\makefile_builder\\templates\\MainWindow.xib'
p292
F1422011718.0
sS'c:\\marmalade\\7.5\\s3e\\makefile_builder\\mkb_util.pyc'
p293
F1422012890.0
sS'c:\\marmalade\\7.5\\s3e\\makefile_builder\\templates\\vc8_user.pyc'
p294
F1422012890.0
sS'c:\\marmalade\\7.5\\s3e\\makefile_builder\\templates\\Info.plist'
p295
F1422011718.0
sS'c:\\marmalade\\7.5\\s3e\\makefile_builder\\templates\\wp8_csproj_user.pyc'
p296
F1422012892.0
sS'c:\\marmalade\\7.5\\s3e\\makefile_builder\\docs\\deprecated.defines.txt'
p297
F1422011718.0
sS'c:\\marmalade\\7.5\\s3e\\makefile_builder\\templates\\ws8_csproj_user.pyc'
p298
F1422012892.0
sS'c:\\marmalade\\7.5\\s3e\\makefile_builder\\plugins\\S3EEmitter.pyc'
p299
F1422012890.0
sS'c:\\marmalade\\7.5\\s3e\\makefile_builder\\templates\\rvct_linker_script'
p300
F1422011718.0
sS'c:\\marmalade\\7.5\\s3e\\makefile_builder\\templates\\xcode_pbxuser.py'
p301
F1422011718.0
sS'c:\\marmalade\\7.5\\s3e\\makefile_builder\\docs\\options.txt'
p302
F1422011718.0
sS'c:\\marmalade\\7.5\\s3e\\makefile_builder\\templates\\wp81_sln.pyc'
p303
F1422012892.0
sS'c:\\marmalade\\7.5\\s3e\\makefile_builder\\templates\\ws81_sln.pyc'
p304
F1422012892.0
sS'c:\\marmalade\\7.5\\s3e\\makefile_builder\\plugins\\vc6_utils.pyc'
p305
F1422012890.0
sS'c:\\marmalade\\7.5\\s3e\\makefile_builder\\templates\\wp81_ext_csproj.pyc'
p306
F1422012892.0
sS'c:\\marmalade\\7.5\\s3e\\makefile_builder\\plugins\\s3e_wp81.pyc'
p307
F1422012890.0
sS'c:\\marmalade\\7.5\\s3e\\makefile_builder\\templates\\aarch64_linker_script'
p308
F1422011718.0
sS'c:\\marmalade\\7.5\\s3e\\makefile_builder\\templates\\ws8_vcxproj.pyc'
p309
F1422012892.0
sS'c:\\marmalade\\7.5\\s3e\\makefile_builder\\plugins\\MakeEmitter.pyc'
p310
F1422012890.0
sS'c:\\marmalade\\7.5\\s3e\\makefile_builder\\templates\\win32_vcxproj_filters.pyc'
p311
F1422012890.0
sS'c:\\marmalade\\7.5\\s3e\\makefile_builder\\templates\\xcode.py'
p312
F1422011718.0
sS'c:\\marmalade\\7.5\\s3e\\makefile_builder\\plugins\\s3e_ws81.pyc'
p313
F1422012890.0
sS'c:\\marmalade\\7.5\\s3e\\makefile_builder\\plugins\\linux_scons.pyc'
p314
F1422012890.0
sS'c:\\marmalade\\7.5\\s3e\\makefile_builder\\templates\\win8_vcxproj.pyc'
p315
F1422012892.0
sS'c:\\marmalade\\7.5\\s3e\\makefile_builder\\plugins\\s3e_scons.pyc'
p316
F1422012890.0
sS'c:\\marmalade\\7.5\\s3e\\makefile_builder\\templates\\wp8_csproj.pyc'
p317
F1422012892.0
sS'c:\\marmalade\\7.5\\s3e\\makefile_builder\\templates\\win8_csproj_user.pyc'
p318
F1422012892.0
sS'c:\\marmalade\\7.5\\s3e\\makefile_builder\\plugins\\ws8_ws8.pyc'
p319
F1422012890.0
sS'c:\\marmalade\\7.5\\s3e\\makefile_builder\\templates\\wp8_vcxproj.pyc'
p320
F1422012892.0
sS'c:\\marmalade\\7.5\\s3e\\makefile_builder\\mkb_option.pyc'
p321
F1422012890.0
sccopy_reg
_reconstructor
p322
(cmkb_main
MkbFile
p323
c__builtin__
object
p324
Ntp325
Rp326
(dp327
g5
(lp328
sS'target_name'
p329
S'AmazingMaze'
p330
sS'current_file'
p331
g131
sS'package_path'
p332
(lp333
sS'post_build'
p334
(lp335
(lp336
S'c:/marmalade/7.5/s3e/tools'
p337
aS'C:\\Marmalade\\7.5\\s3e\\python\\python.exe .\\process_map.py "$(TargetPath)"'
p338
aa(S'c:\\marmalade\\7.5\\s3e\\bin'
p339
S'"s3e_plink" -l "$(TargetPath)" '
p340
g164
tp341
asS'librarys'
p342
(lp343
g322
(cmkb_main
Library
p344
g324
Ntp345
Rp346
(dp347
S'name'
p348
S'vc6_compat.lib'
p349
sS'expand_name'
p350
I00
sS'include_spec_rvct_objs'
p351
(lp352
sS'include_all_objs'
p353
I00
sS'share_arm'
p354
I00
sS'arch'
p355
S'x86'
p356
sS'nodebug'
p357
I00
sg38
Nsbag322
(g344
g324
Ntp358
Rp359
(dp360
g348
S'iwutil'
p361
sg350
I01
sg351
(lp362
sg353
Nsg354
Nsg355
Nsg357
I00
sg38
Nsbag322
(g344
g324
Ntp363
Rp364
(dp365
g348
S'jpeg'
p366
sg350
I01
sg351
g362
sg353
Nsg354
Nsg355
Nsg357
I00
sg38
Nsbag322
(g344
g324
Ntp367
Rp368
(dp369
g348
S'z'
p370
sg350
I01
sg351
g362
sg353
Nsg354
Nsg355
Nsg357
I00
sg38
Nsbag322
(g344
g324
Ntp371
Rp372
(dp373
g348
S'png'
p374
sg350
I01
sg351
g362
sg353
Nsg354
Nsg355
Nsg357
I00
sg38
Nsbag322
(g344
g324
Ntp375
Rp376
(dp377
g348
S'iw2d'
p378
sg350
I01
sg351
g362
sg353
Nsg354
Nsg355
Nsg357
I00
sg38
Nsbag322
(g344
g324
Ntp379
Rp380
(dp381
g348
S'ATI_Compress_MT_VC7.lib'
p382
sg350
I00
sg351
g362
sg353
Nsg354
Nsg355
S'x86'
p383
sg357
I00
sg38
Nsbag322
(g344
g324
Ntp384
Rp385
(dp386
g348
S'iwgx'
p387
sg350
I01
sg351
g362
sg353
Nsg354
Nsg355
Nsg357
I00
sg38
Nsbag322
(g344
g324
Ntp388
Rp389
(dp390
g348
S'iwgl'
p391
sg350
I01
sg351
g362
sg353
Nsg354
Nsg355
Nsg357
I00
sg38
Nsbag322
(g344
g324
Ntp392
Rp393
(dp394
g348
S'iwgeom'
p395
sg350
I01
sg351
g362
sg353
Nsg354
Nsg355
Nsg357
I00
sg38
Nsbag322
(g344
g324
Ntp396
Rp397
(dp398
g348
S'iwresmanager'
p399
sg350
I01
sg351
g362
sg353
Nsg354
Nsg355
Nsg357
I00
sg38
Nsbag322
(g344
g324
Ntp400
Rp401
(dp402
g348
S'iwgxfont'
p403
sg350
I01
sg351
g362
sg353
Nsg354
Nsg355
Nsg357
I00
sg38
Nsbag322
(g344
g324
Ntp404
Rp405
(dp406
g348
S'tiniconv'
p407
sg350
I01
sg351
g362
sg353
Nsg354
Nsg355
Nsg357
I00
sg38
Nsbag322
(g344
g324
Ntp408
Rp409
(dp410
g348
S's3e_cpp'
p411
sg350
I01
sg351
g352
sg353
I00
sg354
I00
sg355
Nsg357
I00
sg38
Nsbag322
(g344
g324
Ntp412
Rp413
(dp414
g348
S's3e'
p415
sg350
I01
sg351
(lp416
S'iwcrt.o'
p417
asg353
I00
sg354
I00
sg355
Nsg357
I00
sg38
Nsbag322
(g344
g324
Ntp418
Rp419
(dp420
g348
g53
sg350
I01
sg351
g352
sg353
I00
sg354
I00
sg355
S'x86'
p421
sg357
I01
sg38
Nsbag322
(g344
g324
Ntp422
Rp423
(dp424
g348
g53
sg350
I01
sg351
g352
sg353
I00
sg354
I00
sg355
S'!x86'
p425
sg357
I01
sg38
Nsbag322
(g344
g324
Ntp426
Rp427
(dp428
g348
S'stdc++'
p429
sg350
I00
sg351
g352
sg353
I00
sg354
I00
sg355
S'mips'
p430
sg357
I00
sg38
Nsbag322
(g344
g324
Ntp431
Rp432
(dp433
g348
S'c'
p434
sg350
I00
sg351
g352
sg353
I00
sg354
I00
sg355
S'mips'
p435
sg357
I00
sg38
Nsbag322
(g344
g324
Ntp436
Rp437
(dp438
g348
S'm'
p439
sg350
I00
sg351
g352
sg353
I00
sg354
I00
sg355
S'mips'
p440
sg357
I00
sg38
Nsbag322
(g344
g324
Ntp441
Rp442
(dp443
g348
S'gcc'
p444
sg350
I00
sg351
g352
sg353
I00
sg354
I00
sg355
S'mips'
p445
sg357
I00
sg38
Nsbag322
(g344
g324
Ntp446
Rp447
(dp448
g348
S'stdc++'
p449
sg350
I00
sg351
g352
sg353
I00
sg354
I00
sg355
S'gcc_x86_android'
p450
sg357
I00
sg38
Nsbag322
(g344
g324
Ntp451
Rp452
(dp453
g348
g434
sg350
I00
sg351
g352
sg353
I00
sg354
I00
sg355
S'gcc_x86_android'
p454
sg357
I00
sg38
Nsbag322
(g344
g324
Ntp455
Rp456
(dp457
g348
g439
sg350
I00
sg351
g352
sg353
I00
sg354
I00
sg355
S'gcc_x86_android'
p458
sg357
I00
sg38
Nsbag322
(g344
g324
Ntp459
Rp460
(dp461
g348
g444
sg350
I00
sg351
g352
sg353
I00
sg354
I00
sg355
S'gcc_x86_android'
p462
sg357
I00
sg38
NsbasS'library_paths'
p463
(lp464
g322
(cmkb_main
LibraryPath
p465
g324
Ntp466
Rp467
(dp468
S'expand_path'
p469
I01
sg348
S'c:/marmalade/7.5/modules/iwutil'
p470
sbag322
(g465
g324
Ntp471
Rp472
(dp473
g469
I01
sg348
S'c:/marmalade/7.5/modules/third_party/libjpeg'
p474
sbag322
(g465
g324
Ntp475
Rp476
(dp477
g469
I01
sg348
S'c:/marmalade/7.5/modules/third_party/zlib'
p478
sbag322
(g465
g324
Ntp479
Rp480
(dp481
g469
I01
sg348
S'c:/marmalade/7.5/modules/third_party/libpng'
p482
sbag322
(g465
g324
Ntp483
Rp484
(dp485
g469
I01
sg348
S'c:/marmalade/7.5/modules/iw2d'
p486
sbag322
(g465
g324
Ntp487
Rp488
(dp489
g469
I00
sg348
S'c:/marmalade/7.5/modules/iwgx/atitools'
p490
sbag322
(g465
g324
Ntp491
Rp492
(dp493
g469
I01
sg348
S'c:/marmalade/7.5/modules/iwgx'
p494
sbag322
(g465
g324
Ntp495
Rp496
(dp497
g469
I01
sg348
S'c:/marmalade/7.5/modules/iwgl'
p498
sbag322
(g465
g324
Ntp499
Rp500
(dp501
g469
I01
sg348
S'c:/marmalade/7.5/modules/iwgeom'
p502
sbag322
(g465
g324
Ntp503
Rp504
(dp505
g469
I01
sg348
S'c:/marmalade/7.5/modules/iwresmanager'
p506
sbag322
(g465
g324
Ntp507
Rp508
(dp509
g469
I01
sg348
S'c:/marmalade/7.5/modules/iwgxfont'
p510
sbag322
(g465
g324
Ntp511
Rp512
(dp513
g469
I01
sg348
S'c:/marmalade/7.5/modules/third_party/tiniconv'
p514
sbag322
(g465
g324
Ntp515
Rp516
(dp517
g469
I01
sg348
S'c:/marmalade/7.5/s3e'
p518
sbasS'macros'
p519
(dp520
S'IW_USE_CALLSTACK'
p521
NsS'IW_MKF_IWGEOM'
p522
NsS'I3D_PLATFORM_S3E'
p523
NsS'IW_MKF_IW2DSCENEGRAPHCORE'
p524
NsS'IW_MKF_LIBJPEG'
p525
NsS'I3D_OS_S3E'
p526
NsS'IW_MKF_PVRTEXTOOL'
p527
NsS'IW_MKF_TINICONV'
p528
NsS'IW_APP_VERSION'
p529
S'"1.0"'
p530
sS'__S3E__'
p531
NsS'IW_MKF_IWRESMANAGER'
p532
NsS'IW_MKF_IWUTIL'
p533
NsS'IW_PLATFORM_S3E'
p534
NsS'IW_ASSERTION_CHANNEL_2D'
p535
S'1'
p536
sS'IW_APP_NAME'
p537
S'"AmazingMaze"'
p538
sS'IW_MKF_S3E_DEFAULT'
p539
NsS'IW_MKF_IWGXFONT'
p540
NsS'IW_MKF_IWTWEEN'
p541
NsS'IW_MKF_ZLIB'
p542
NsS'IW_MKF_IWGX'
p543
NsS'IW_MKF_IW2DSCENEGRAPH'
p544
NsS'IW_USE_ASSERTIONS'
p545
NsS'_CRT_SECURE_NO_DEPRECATE'
p546
NsS'IW_MKF_IWGL'
p547
NsS'IW_MKF_LIBPNG'
p548
NsS'IW_TRACE_CHANNEL_IW_2DSCENEGRAPH'
p549
g536
sS'IW_DEBUG'
p550
NsS'IW_USE_TRACING'
p551
NsS'IW_ASSERTION_CHANNEL_IW_2DSCENEGRAPH'
p552
g536
sS'IW_TRACE_CHANNEL_PVRTEXTOOL'
p553
g536
sS'IW_SDK'
p554
NsS'S3E_INCLUDE_LEGACY'
p555
NsS'IW_TRACE_CHANNEL_PVRTEXTOOL_VERBOSE'
p556
S'2'
p557
sS'IW_MKF_IW2D'
p558
NsS'IW_ASSERTION_CHANNEL_PVRTEXTOOL'
p559
g536
ssS'done_warnings'
p560
(dp561
sS'subprojects'
p562
(dp563
g198
S'iwgxfont'
p564
sg185
S's3e-default.mkf'
p565
sg190
S'iw2dscenegraphcore'
p566
sg189
S'zlib'
p567
sg196
S'iwresmanager'
p568
sg199
S'tiniconv'
p569
sg187
S'libjpeg'
p570
sg191
S'iw2dscenegraph'
p571
sg188
S'libpng'
p572
sg186
S'iwutil'
p573
sg200
S'iwtween'
p574
sg193
S'iwgx'
p575
sg192
S'iw2d'
p576
sg194
S'iwgl'
p577
sg195
S'iwgeom'
p578
sg197
S'PVRTexTool'
p579
ssS'deployments'
p580
(dp581
S'Default'
p582
g322
(cdeployment
Deployment
p583
g324
Ntp584
Rp585
(dp586
S'got_version'
p587
I0
sS'assets'
p588
g582
sS'mkb'
p589
g326
sS'target'
p590
Nsg355
(lp591
sS'options'
p592
(dp593
S'iphone-link-lib'
p594
(lp595
sS'game-icf'
p596
NsS'android-tm'
p597
NsS'winmobile-icon32'
p598
NsS'ws8-logo-image150x150'
p599
NsS'wp81-logo-image150x150'
p600
NsS'ws81-product-version'
p601
NsS'osx-ext-dll'
p602
(lp603
S'c:/marmalade/7.5/extensions/pvrtextool/lib/osx/libPVRTexTool.dylib'
p604
asS'iphone-provisioning-profile'
p605
NsS'win32-icon'
p606
NsS'ws8-splash-screen-image620x300'
p607
NsS'wp81-extra-pri'
p608
(lp609
sS'ws8-ext-capabilities'
p610
(lp611
sS'android-icon-hdpi'
p612
NsS'iphone-ipad-only'
p613
NsS'iphone-splash-full-orient'
p614
NsS'wp8-tile-fliptemplate-supports-large'
p615
NsS'iphone-show-status-bar'
p616
NsS'roku-requires-mkv'
p617
NsS'long-caption'
p618
NsS'android-pkgname'
p619
NsS'wp81-publisher-display-name'
p620
NsS'blackberry-permissions-read-device-identifying-information'
p621
NsS'ws81-certificate-end-date'
p622
NsS'psp-dlgcontentid'
p623
NsS'iphone-minimum-ios-version'
p624
NsS'target-folder'
p625
NsS'tizen-dist1-CA-path'
p626
NsS'symbian-icon2-format'
p627
NsS'tizen-author-key'
p628
NsS'firefoxos-icon-128X128'
p629
NsS'iphone-region'
p630
NsS'uiq3-icon3-mask'
p631
NsS'brew-encoding'
p632
NsS'android-x86'
p633
NsS'nds-initialcode'
p634
NsS'iphone-persistent-wifi'
p635
NsS'psp-snd0'
p636
NsS'roku-icon-focus-hd'
p637
NsS'osx-appid'
p638
NsS'winmobile-install-folder'
p639
NsS'android-external-res'
p640
(lp641
sS'ws8-product-version'
p642
NsS'brew-priviledges'
p643
NsS'iphone-info-plist-override'
p644
NsS'iphone-icon-ipad'
p645
NsS'iphone-skip-icon-generation'
p646
NsS'roku-hidden'
p647
NsS'psp-titlename'
p648
NsS'wp81-product-version'
p649
NsS'symbian-icon1-mask'
p650
NsS'psp-parentallevel'
p651
NsS'iphone-launch-storyboard'
p652
NsS'splashscreen-use-all'
p653
NsS'wp8-author'
p654
NsS'symbian-disable-ecompxl'
p655
NsS'splashscreen-auto-onblack'
p656
NsS'iphone-icon-dir'
p657
NsS'iphone-icon-extra'
p658
NsS'win32-ext-dll'
p659
(lp660
S'c:/marmalade/7.5/extensions/pvrtextool/lib/win32/PVRTexTool.dll'
p661
asS'iphone-development-key'
p662
NsS'winmobile-icon48'
p663
NsS'android-unsigned'
p664
NsS'osx-appstore-category'
p665
NsS'version-revision'
p666
NsS'roku-icon-focus-sd'
p667
NsS'android-keystore'
p668
NsS'winmobile-png90'
p669
NsS'iphone-icon-ipad-high-res'
p670
NsS'iphone-disable-ipad'
p671
NsS'ws81-splash-screen-background'
p672
NsS'wp8-ext-capabilities'
p673
(lp674
sS'brew-icon-large'
p675
NsS'symbian-icon1-mask-black'
p676
NsS'ws8-extra-res'
p677
(lp678
sS'iphone-bundle-localisations'
p679
NsS'winmobile-png60'
p680
NsS'blackberry-permissions-access-shared'
p681
NsS'blackberry-author'
p682
NsS'android-icon-xxxhdpi'
p683
NsS'olddeploytoolstyle'
p684
NsS'android_icon_gallery'
p685
NsS'wp81-splash-screen-background'
p686
NsS'winmobile-cab-compress'
p687
NsS'iphone-info-plist'
p688
NsS'ws81-ext-managed-dll'
p689
(lp690
sS'playbook-cskpass'
p691
NsS'ws8-distribution-pfx-password'
p692
NsS'symbian-key'
p693
NsS'app-icf'
p694
NsS'blackberry-storepass'
p695
NsS'wp8-tile-fliptemplate-back-title'
p696
NsS'brew-compress-loader'
p697
NsS'win32-pref-windowposy'
p698
NsS'win32-pref-windowposx'
p699
NsS'roku-requires-audiometadata'
p700
NsS'wp8-exclude-low-mem'
p701
NsS'iphone-icon-ipad-search-high-res'
p702
NsS'iphone-link-libdir'
p703
(lp704
sS'wp81-ext-capabilities'
p705
(lp706
sS'blackberry-permissions-read-geolocation'
p707
NsS'ws81-ext-device-capabilities'
p708
(lp709
sS'tizen-signed'
p710
NsS'android-extra-application-manifest'
p711
(lp712
sS'ws8-ext-native-dll'
p713
(lp714
sS'symbian-icon2-mask'
p715
NsS'iphone-launch-extra'
p716
NsS'webos-memory'
p717
NsS'android-keypass'
p718
NsS'name'
p719
NsS'uiq3-icon2-format'
p720
NsS'roku-splash-screen-sd'
p721
NsS'auto-derbh'
p722
NsS'roku-icon-side-sd'
p723
NsS'android-external-assets'
p724
(lp725
sS'nds-publicsavedatasize'
p726
NsS'splashscreen'
p727
NsS'brew-mif'
p728
NsS'iphone-icon-settings-high-res'
p729
NsS'android-manifest'
p730
NsS'ws81-splash-screen-image620x300'
p731
NsS'wp81-product-name'
p732
NsS's3e-compression'
p733
NsS'tizen-author-password'
p734
NsS'wp8-tile-fliptemplate-back-content'
p735
NsS'blackberry-extra-descriptor'
p736
(lp737
sS'symbian-icon1'
p738
NsS'symbian-icon2'
p739
NsS'nds-makercode'
p740
NsS'android-extra-styles-file'
p741
NsS'wp81-publisher-id'
p742
NsS'nds-bannertitle-jp'
p743
NsS'wp81-logo-image44x44'
p744
NsS'osx-sign-for-store'
p745
NsS'symbian7-uid'
p746
NsS'wp8-tile-fliptemplate-large-back-content'
p747
NsS'wp81-phone-publisher-id'
p748
NsS'nds-bannertitle-cn'
p749
NsS'iphone-distribution-key'
p750
NsS'android-icon-gallery'
p751
NsS'blackberry-keystore'
p752
NsS'iphone-nosign'
p753
NsS'caption'
p754
NsS'android-extra-manifest'
p755
(lp756
sS'wp81-ext-sdk-ref'
p757
(lp758
sS'android-icon-xxhdpi'
p759
NsS'version-minor'
p760
NsS'iphone-skip-launch-generation'
p761
NsS'iphone-link-libdirs'
p762
(lp763
sS'iphone-icon-large'
p764
NsS'symbian-keypwd'
p765
NsS'symbian8-uid'
p766
NsS'symbian-cert-key'
p767
NsS'winmobile-ampd-part-number'
p768
NsS'arch'
p769
NsS'nds-romheadertemplate'
p770
NsS'webos-icon'
p771
NsS'wp81-ext-device-capabilities'
p772
(lp773
sS'psp-dlgprotectdocument'
p774
NsS'ws8-splash-screen-background'
p775
NsS'android-icon-mdpi'
p776
NsS'nds-icon'
p777
NsS'ws8-custom-manifest-fill'
p778
NsS'iphone-development-cert'
p779
NsS'and'
p780
NsS'symbian-icon2-mask-black'
p781
NsS'blackberry-phone-icon'
p782
NsS'iphone-enable-4inch-retina'
p783
NsS'ws8-custom-manifest'
p784
NsS'version-major'
p785
NsS'wp8-genre-isgame'
p786
NsS'uiq3-uid'
p787
NsS'iphone-splash-retina-generate'
p788
NsS'tizen-hw-acceleration'
p789
NsS'iphone_bundle_localisations'
p790
NsS'tizen-dist1-key'
p791
NsS'wp81-custom-manifest-fill'
p792
NsS'wp8-custom-manifest'
p793
NsS'nds-bannertitle-ge'
p794
NsS'iphone-sign-for-distribution'
p795
NsS'wp8-tile-fliptemplate-medium-back-image'
p796
NsS'wp8-publisher-id'
p797
NsS'icon'
p798
NsS'wp8-exclude-wxga'
p799
NsS'wp81-identity-name'
p800
NsS'uiq3-icon2-mask'
p801
NsS'iphone-splashscreen-portrait'
p802
NsS'iphone-icon-high-res'
p803
NsS'ws81-distribution-pfx-password'
p804
NsS'playbook-author'
p805
NsS'android-icon-xhdpi'
p806
NsS'linux-ext-lib'
p807
(lp808
sS'blackberry-permissions-access-internet'
p809
NsS'wp8-exclude-720p'
p810
NsS'lgtv-use-drm'
p811
NsS'symbian-platsecflags'
p812
NsS'ws8-description'
p813
NsS'blackberry-playbook-icon'
p814
NsS'copyright'
p815
NsS'win32-gles-directory'
p816
NsS'version'
p817
NsS'iphone-uiviewcontroller-based-status-bar'
p818
NsS'ws81-logo-image150x150'
p819
NsS'osx-signing-identity-app'
p820
NsS'tizen-project-url'
p821
NsS'symbian-icon-svg'
p822
NsS'android-aliasname'
p823
NsS'psp-dlgmanual'
p824
NsS'brew-uid'
p825
NsS'symbian-locationsupport'
p826
NsS'wp81-logo-image50x50'
p827
NsS'ws8-ext-managed-dll'
p828
(lp829
sS'nds-bannertitle-it'
p830
NsS'ws81-custom-manifest-fill'
p831
NsS'ws8-ext-sdk-manifest-part'
p832
(lp833
sS'uiq3-icon1-mask'
p834
NsS'winmobile-icon16'
p835
NsS'ws8-product-name'
p836
NsS'blackberry-cskpass'
p837
NsS'winmobile-start-menu-folder'
p838
NsS'brew-clsid'
p839
NsS'roku-requires-bluetooth'
p840
NsS'ws8-ext-device-capabilities'
p841
(lp842
sS'blackberry-permissions-use-camera'
p843
NsS'ws81-extra-pri'
p844
(lp845
sS'iphone-prerendered-icon'
p846
NsS'iphone-appid'
p847
NsS'ws8-identity-name'
p848
NsS'tizen-dist2-CA-path'
p849
NsS'android-external-jars'
p850
(lp851
sS'winmobile-icon64'
p852
NsS'blackberry-permissions-post-notification'
p853
NsS'winmobile-setup-dll'
p854
NsS'firefoxos-manifest'
p855
NsS'win8-winrt-extra-res'
p856
(lp857
sS'wp81-ext-sdk-manifest-part'
p858
(lp859
sS'symbian9-uid'
p860
NsS'iphone-icon-ipad-ios7'
p861
NsS'winmobile-trace-file'
p862
NsS'roku-splash-color'
p863
NsS'psp-appversion'
p864
NsS'ws8-publisher-id'
p865
NsS'android-supports-gl-texture'
p866
(lp867
sS'winmobile-png45'
p868
NsS'wp81-extra-res'
p869
(lp870
sS'android-storepass'
p871
NsS'osx-signing-identity-inst'
p872
NsS'android-custom-activity'
p873
NsS'psp-discversion'
p874
NsS'wp81-ext-managed-dll'
p875
(lp876
sS'psp-copyright'
p877
NsS'embed-icf'
p878
NsS'tizen-manifest'
p879
NsS'osx-icon'
p880
NsS'webos-appinfo'
p881
NsS'psp-dlghealthwarning'
p882
NsS'webos-appid'
p883
NsS'roku-icon-side-hd'
p884
NsS'iphone-icon-ipad-search-high-res-ios7'
p885
NsS'iphone-extra-plist'
p886
(lp887
sS'ws81-ext-sdk-manifest-part'
p888
(lp889
sS'loader_name_prefix'
p890
NsS'iphone-launch-dir'
p891
NsS'nds-titlename'
p892
NsS'ws81-logo-image50x50'
p893
NsS'wp81-custom-manifest'
p894
NsS'osx-entitlements-plist'
p895
NsS'psp-dlgicon0'
p896
NsS'winmobile-nouninstall'
p897
NsS'psp-discid'
p898
NsS'tizen-dist2-password'
p899
NsS'ws8-ext-sdk-ref'
p900
(lp901
sS'iphone-extra-string'
p902
(lp903
sS'version-string'
p904
NsS'iphone-icon-high-res-ios7'
p905
NsS'blackberry-permissions-record-audio'
p906
NsS'ws8-certificate-end-date'
p907
NsS'tizen-so'
p908
(lp909
sS'wp8-tile-fliptemplate-small-image'
p910
NsS'playbook-authorid'
p911
NsS'iphone-signing-identity'
p912
NsS'roku-persist-quota'
p913
NsS'nds-bannertitle-fr'
p914
NsS'ws8-distribution-pfx'
p915
NsS'ws8-publisher-display-name'
p916
NsS'brew-icon-small'
p917
NsS'psp-dlgpic2'
p918
NsS'psp-dlgpic0'
p919
NsS'psp-pic0'
p920
NsS'psp-pic1'
p921
NsS'win32-pref-windowtitle'
p922
NsS'psp-icon0'
p923
NsS'psp-icon1'
p924
NsS'ws81-identity-name'
p925
NsS'winmobile-icon'
p926
NsS'iphone-no-splash'
p927
NsS'iphone-splash'
p928
NsS'iphone-app-fonts'
p929
NsS'wp8-ext-native-dll'
p930
(lp931
sS'wp81-splash-screen-image480x800'
p932
NsS'ws81-distribution-cer'
p933
NsS'iphone-backgroundmode-audio'
p934
NsS'uiq3-icon2'
p935
NsS'uiq3-icon3'
p936
NsS'uiq3-icon1'
p937
NsS'uiq3-icon1-format'
p938
NsS'ws8-logo-image50x50'
p939
NsS'iphone-icon-ipad-search'
p940
NsS'symbian-run-on-install'
p941
NsS'wp81-description'
p942
NsS'ws81-publisher-display-name'
p943
NsS'firefoxos-xulrunner'
p944
NsS'symbian-soundrecordsupport'
p945
NsS'nds-bannertitle-sp'
p946
NsS'psp-producer'
p947
NsS'iphone-apple-wwdr-cert'
p948
NsS'android-icon-nonstandard'
p949
NsS'win32-pref-processtitle'
p950
NsS'nds-bannertitle-hn'
p951
NsS'tizen-dist2-key'
p952
NsS'brew-depends'
p953
NsS'ws81-custom-manifest'
p954
NsS'iphone-allow-launch-rotation'
p955
NsS'iphone-icon-ipad-search-ios7'
p956
NsS'brew-icon-medium'
p957
NsS'iphone-bundle-url-name'
p958
NsS'wp8-tile-fliptemplate-large-front-image'
p959
NsS'tizen-dist2-CA-root-path'
p960
NsS'ws81-description'
p961
NsS'uiq3-icon3-format'
p962
NsS'ws81-logo-image30x30'
p963
NsS'win8-phone-extra-res'
p964
(lp965
sS'iphone-signing-host'
p966
NsS'tizen-icon'
p967
NsS'osx-info-plist'
p968
NsS'symbian-icon1-format'
p969
NsS'ws81-distribution-pfx'
p970
NsS'blackberry-authorid'
p971
NsS'ws81-publisher-id'
p972
NsS'win8-store-extra-res'
p973
(lp974
sS'wp8-description'
p975
NsS'iphone-link-opts'
p976
(lp977
sS'ws81-ext-sdk-ref'
p978
(lp979
sS'roku-splash-min-time'
p980
NsS'wp8-tile-fliptemplate-medium-front-image'
p981
NsS'iphone-disable-launch-images'
p982
NsS'provider'
p983
NsS'playbook-keystore'
p984
NsS'tizen-appid'
p985
NsS'wp8-extra-res'
p986
(lp987
sS'symbian-osexecsupport'
p988
NsS'android-install-location'
p989
NsS'nds-privatesavedatasize'
p990
NsS'iphone-disable-testflight'
p991
NsS'playbook-storepass'
p992
NsS'android-icon-ldpi'
p993
NsS'manufacturer'
p994
NsS'itunes-artwork'
p995
NsS'iphone-extra-sections'
p996
NsS'ws81-product-name'
p997
NsS'ws81-ext-native-dll'
p998
(lp999
sS'ws8-extra-pri'
p1000
(lp1001
sS'wp8-product-id'
p1002
NsS'ws8-logo-image30x30'
p1003
NsS'wp8-ext-managed-dll'
p1004
(lp1005
sS'iphone-splashscreen-landscape'
p1006
NsS'symbian-maxheapsize'
p1007
NsS'android-extra-packages'
p1008
(lp1009
sS'priv-sign-key'
p1010
NsS'networking'
p1011
NsS'android-icon'
p1012
NsS'iphone-icon-settings'
p1013
NsS'wp81-phone-product-id'
p1014
NsS'firefoxos-icon-60X60'
p1015
NsS'iphone-distribution-cert'
p1016
NsS'android_extra_strings'
p1017
NsS'nds-bannertitle-en'
p1018
NsS'wp8-tile-fliptemplate-title'
p1019
NsS'android-so'
p1020
(lp1021
sS'wp8-higher-mem'
p1022
NsS'wp8-ext-sdk-ref'
p1023
(lp1024
sS'wp8-fast-resume-mode'
p1025
NsS'roku-splash-screen-hd'
p1026
NsS'iphone-bundle-url-schemes'
p1027
NsS'roku-screensaver-private'
p1028
NsS'osx-extra-res'
p1029
(lp1030
sS'ws81-extra-res'
p1031
(lp1032
sS'playbook-icon'
p1033
NsS'uid'
p1034
NsS'pkguid-as-uid'
p1035
NsS'wp81-ext-native-dll'
p1036
(lp1037
sS'tizen-dist1-password'
p1038
NsS'roku-screensaver-title'
p1039
NsS'osx-minimum-osx-version'
p1040
NsS'symbian-cert'
p1041
NsS'iphone-icon'
p1042
NsS'ws81-ext-capabilities'
p1043
(lp1044
sS'ws8-distribution-cer'
p1045
NsS'playbook-access-shared'
p1046
NsS'iphone-icon-ipad-high-res-ios7'
p1047
NsS'iphone-link-libs'
p1048
(lp1049
sS'wp8-exclude-wvga'
p1050
NsS'assets'
p1051
NsS'wp8-tile-fliptemplate-large-back-image'
p1052
NsS'wp8-custom-manifest-fill'
p1053
NsS'pub-sign-key'
p1054
NsS'android-extra-strings'
p1055
NsS'tizen-author-CA-path'
p1056
Nssg348
g582
sbssS'platform'
p1057
S'S3E'
p1058
sg68
S'1.0'
p1059
sS'arcade_platform'
p1060
g4
sS'extensions'
p1061
(dp1062
sS'source_groups_tree'
p1063
(dp1064
S'(libpng)'
p1065
(dp1066
S'h'
p1067
(dp1068
S'c:/marmalade/7.5/modules/third_party/libpng/h/png.h'
p1069
(lp1070
I1
a(dp1071
asS'c:/marmalade/7.5/modules/third_party/libpng/h/pngconf.h'
p1072
(lp1073
I1
ag1071
assS'c:/marmalade/7.5/modules/third_party/libpng/libpng.mkf'
p1074
(lp1075
I1
a(dp1076
assS'(libjpeg)'
p1077
(dp1078
S'c:/marmalade/7.5/modules/third_party/libjpeg/libjpeg.mkf'
p1079
(lp1080
I1
a(dp1081
asg1067
(dp1082
S'c:/marmalade/7.5/modules/third_party/libjpeg/h/jerror.h'
p1083
(lp1084
I1
a(dp1085
asS'c:/marmalade/7.5/modules/third_party/libjpeg/h/jdhuff.h'
p1086
(lp1087
I1
ag1085
asS'c:/marmalade/7.5/modules/third_party/libjpeg/h/cderror.h'
p1088
(lp1089
I1
ag1085
asS'c:/marmalade/7.5/modules/third_party/libjpeg/h/transupp.h'
p1090
(lp1091
I1
ag1085
asS'c:/marmalade/7.5/modules/third_party/libjpeg/h/jinclude.h'
p1092
(lp1093
I1
ag1085
asS'c:/marmalade/7.5/modules/third_party/libjpeg/h/jmorecfg.h'
p1094
(lp1095
I1
ag1085
asS'c:/marmalade/7.5/modules/third_party/libjpeg/h/jdct.h'
p1096
(lp1097
I1
ag1085
asS'c:/marmalade/7.5/modules/third_party/libjpeg/h/jmemsys.h'
p1098
(lp1099
I1
ag1085
asS'c:/marmalade/7.5/modules/third_party/libjpeg/h/jpegint.h'
p1100
(lp1101
I1
ag1085
asS'c:/marmalade/7.5/modules/third_party/libjpeg/h/jchuff.h'
p1102
(lp1103
I1
ag1085
asS'c:/marmalade/7.5/modules/third_party/libjpeg/h/cdjpeg.h'
p1104
(lp1105
I1
ag1085
asS'c:/marmalade/7.5/modules/third_party/libjpeg/h/jversion.h'
p1106
(lp1107
I1
ag1085
asS'c:/marmalade/7.5/modules/third_party/libjpeg/h/jconfig.h'
p1108
(lp1109
I1
ag1085
asS'c:/marmalade/7.5/modules/third_party/libjpeg/h/jpeglib.h'
p1110
(lp1111
I1
ag1085
asssS'(tiniconv)'
p1112
(dp1113
S'c:/marmalade/7.5/modules/third_party/tiniconv/tiniconv.mkf'
p1114
(lp1115
I1
a(dp1116
asS'c:/marmalade/7.5/modules/third_party/tiniconv/source/tiniconv_int.h'
p1117
(lp1118
I1
a(dp1119
asS'c:/marmalade/7.5/modules/third_party/tiniconv/source/tiniconv.h'
p1120
(lp1121
I1
ag1119
assS'Extensions'
p1122
(dp1123
S'PVRTexTool'
p1124
(dp1125
S'interface'
p1126
(dp1127
S'c:/marmalade/7.5/extensions/pvrtextool/interface/PVRTexTool.defines.txt'
p1128
(lp1129
I1
a(dp1130
asS'c:/marmalade/7.5/extensions/pvrtextool/interface/PVRTexTool_interface.cpp'
p1131
(lp1132
I1
ag1130
assS'c:/marmalade/7.5/extensions/pvrtextool/h/PVRTexTool.h'
p1133
(lp1134
I1
ag1130
asS'c:/marmalade/7.5/extensions/pvrtextool/pvrtextool.mkf'
p1135
(lp1136
I1
a(dp1137
asssS'(s3e-default)'
p1138
(dp1139
S'c:/marmalade/7.5/s3e/s3e-default.mkf'
p1140
(lp1141
I1
a(dp1142
assS"'Marmalade Studio'"
p1143
(dp1144
S'iw2dscenegraph'
p1145
(dp1146
S'c:/marmalade/7.5/modules/iw2dscenegraph/source/Iw2DSceneGraph.cpp'
p1147
(lp1148
I1
a(dp1149
asS'c:/marmalade/7.5/modules/iw2dscenegraph/docs/iw2dscenegraph.defines.txt'
p1150
(lp1151
I1
ag1149
asS'c:/marmalade/7.5/modules/iw2dscenegraph/h/Iw2DSceneGraph.h'
p1152
(lp1153
I1
ag1149
asS'c:/marmalade/7.5/modules/iw2dscenegraph/iw2dscenegraph.mkf'
p1154
(lp1155
I1
a(dp1156
assS'iwgl'
p1157
(dp1158
S'c:/marmalade/7.5/modules/iwgl/iwgl.mkf'
p1159
(lp1160
I1
a(dp1161
asS'c:/marmalade/7.5/modules/iwgl/h/IwGL.h'
p1162
(lp1163
I1
a(dp1164
asS'c:/marmalade/7.5/modules/iwgl/docs/iwgl.config.txt'
p1165
(lp1166
I1
ag1164
asS'c:/marmalade/7.5/modules/iwgl/h/IwGLExt.h'
p1167
(lp1168
I1
ag1164
assS'iw2d'
p1169
(dp1170
S'c:/marmalade/7.5/modules/iw2d/docs/iw2d_public.defines.txt'
p1171
(lp1172
I1
a(dp1173
asS'c:/marmalade/7.5/modules/iw2d/docs/iw2d.config.txt'
p1174
(lp1175
I1
ag1173
asS'c:/marmalade/7.5/modules/iw2d/h/Iw2D.h'
p1176
(lp1177
I1
ag1173
asS'c:/marmalade/7.5/modules/iw2d/iw2d.mkf'
p1178
(lp1179
I1
a(dp1180
assS'iwgxfont'
p1181
(dp1182
S'c:/marmalade/7.5/modules/iwgxfont/h/IwGxFontGlyph.h'
p1183
(lp1184
I1
a(dp1185
asS'c:/marmalade/7.5/modules/iwgxfont/h/IwGxFontTypes.h'
p1186
(lp1187
I1
ag1185
asS'c:/marmalade/7.5/modules/iwgxfont/docs/iwgxfont.config.txt'
p1188
(lp1189
I1
ag1185
asS'c:/marmalade/7.5/modules/iwgxfont/h/IwGxFontState.h'
p1190
(lp1191
I1
ag1185
asS'c:/marmalade/7.5/modules/iwgxfont/h/IwGxFontContainer.h'
p1192
(lp1193
I1
ag1185
asS'c:/marmalade/7.5/modules/iwgxfont/iwgxfont.mkf'
p1194
(lp1195
I1
a(dp1196
asS'c:/marmalade/7.5/modules/iwgxfont/h/IwGxFontPreparedData.h'
p1197
(lp1198
I1
ag1185
asS'c:/marmalade/7.5/modules/iwgxfont/h/IwGxFont.h'
p1199
(lp1200
I1
ag1185
asS'c:/marmalade/7.5/modules/iwgxfont/docs/iwgxfont_public.defines.txt'
p1201
(lp1202
I1
ag1185
assS'iwgeom'
p1203
(dp1204
S'c:/marmalade/7.5/modules/iwgeom/h/IwGeomSVec2.h'
p1205
(lp1206
I1
a(dp1207
asS'c:/marmalade/7.5/modules/iwgeom/h/IwGeomSphere.h'
p1208
(lp1209
I1
ag1207
asS'c:/marmalade/7.5/modules/iwgeom/h/IwGeomSVec3.h'
p1210
(lp1211
I1
ag1207
asS'c:/marmalade/7.5/modules/iwgeom/iwgeom.mkf'
p1212
(lp1213
I1
a(dp1214
asS'c:/marmalade/7.5/modules/iwgeom/h/IwGeomSqrt.h'
p1215
(lp1216
I1
ag1207
asS'c:/marmalade/7.5/modules/iwgeom/h/IwGeomFQuat.h'
p1217
(lp1218
I1
ag1207
asS'c:/marmalade/7.5/modules/iwgeom/h/IwGeomQuat.h.tpl'
p1219
(lp1220
I1
ag1207
asS'c:/marmalade/7.5/modules/iwgeom/h/IwGeomVec2.h'
p1221
(lp1222
I1
ag1207
asS'c:/marmalade/7.5/modules/iwgeom/h/IwGeomMat.h'
p1223
(lp1224
I1
ag1207
asS'c:/marmalade/7.5/modules/iwgeom/h/IwGeomVec3.h'
p1225
(lp1226
I1
ag1207
asS'c:/marmalade/7.5/modules/iwgeom/h/IwGeomLegacy.h'
p1227
(lp1228
I1
ag1207
asS'c:/marmalade/7.5/modules/iwgeom/h/IwGeom.h'
p1229
(lp1230
I1
ag1207
asS'c:/marmalade/7.5/modules/iwgeom/h/IwGeomSQuat.h'
p1231
(lp1232
I1
ag1207
asS'c:/marmalade/7.5/modules/iwgeom/h/IwGeomFBBox.h'
p1233
(lp1234
I1
ag1207
asS'c:/marmalade/7.5/modules/iwgeom/h/IwGeomFMat.h'
p1235
(lp1236
I1
ag1207
asS'c:/marmalade/7.5/modules/iwgeom/h/IwGeomPlane.h'
p1237
(lp1238
I1
ag1207
asS'c:/marmalade/7.5/modules/iwgeom/h/IwGeomMat2D.h'
p1239
(lp1240
I1
ag1207
asS'c:/marmalade/7.5/modules/iwgeom/h/IwGeomFVec2.h'
p1241
(lp1242
I1
ag1207
asS'c:/marmalade/7.5/modules/iwgeom/h/IwGeomSVec4.h'
p1243
(lp1244
I1
ag1207
asS'c:/marmalade/7.5/modules/iwgeom/h/IwGeomVec4.h'
p1245
(lp1246
I1
ag1207
asS'c:/marmalade/7.5/modules/iwgeom/h/IwGeomCore.h'
p1247
(lp1248
I1
ag1207
asS'c:/marmalade/7.5/modules/iwgeom/h/IwGeomVec.h.tpl'
p1249
(lp1250
I1
ag1207
asS'c:/marmalade/7.5/modules/iwgeom/h/IwGeomVec.h'
p1251
(lp1252
I1
ag1207
asS'c:/marmalade/7.5/modules/iwgeom/h/IwGeomIntersect.h'
p1253
(lp1254
I1
ag1207
asS'c:/marmalade/7.5/modules/iwgeom/h/IwGeomFVec4.h'
p1255
(lp1256
I1
ag1207
asS'c:/marmalade/7.5/modules/iwgeom/h/IwGeomMat.h.tpl'
p1257
(lp1258
I1
ag1207
asS'c:/marmalade/7.5/modules/iwgeom/h/IwGeomMat2D.h.tpl'
p1259
(lp1260
I1
ag1207
asS'c:/marmalade/7.5/modules/iwgeom/h/IwGeomFMat2D.h'
p1261
(lp1262
I1
ag1207
asS'c:/marmalade/7.5/modules/iwgeom/h/IwGeomMenu.h'
p1263
(lp1264
I1
ag1207
asS'c:/marmalade/7.5/modules/iwgeom/h/IwGeomBBox.h'
p1265
(lp1266
I1
ag1207
asS'c:/marmalade/7.5/modules/iwgeom/h/IwGeomFSphere.h'
p1267
(lp1268
I1
ag1207
asS'c:/marmalade/7.5/modules/iwgeom/h/IwGeomFVec3.h'
p1269
(lp1270
I1
ag1207
asS'c:/marmalade/7.5/modules/iwgeom/h/IwGeomFPlane.h'
p1271
(lp1272
I1
ag1207
asS'c:/marmalade/7.5/modules/iwgeom/docs/iwgeom.config.txt'
p1273
(lp1274
I1
ag1207
asS'c:/marmalade/7.5/modules/iwgeom/h/IwGeomQuat.h'
p1275
(lp1276
I1
ag1207
asS'c:/marmalade/7.5/modules/iwgeom/h/IwGeomFIntersect.h'
p1277
(lp1278
I1
ag1207
assS'iwresmanager'
p1279
(dp1280
S'c:/marmalade/7.5/modules/iwresmanager/h/IwResHandlerITX.h'
p1281
(lp1282
I1
a(dp1283
asS'c:/marmalade/7.5/modules/iwresmanager/h/IwResSerialise.h'
p1284
(lp1285
I1
ag1283
asS'c:/marmalade/7.5/modules/iwresmanager/h/IwResManagerClass.h'
p1286
(lp1287
I1
ag1283
asS'c:/marmalade/7.5/modules/iwresmanager/h/IwResHandlerGROUP.h'
p1288
(lp1289
I1
ag1283
asS'c:/marmalade/7.5/modules/iwresmanager/h/IwResManager.h'
p1290
(lp1291
I1
ag1283
asS'c:/marmalade/7.5/modules/iwresmanager/iwresmanager.mkf'
p1292
(lp1293
I1
a(dp1294
asS'c:/marmalade/7.5/modules/iwresmanager/docs/iwresmanager.config.txt'
p1295
(lp1296
I1
ag1283
asS'c:/marmalade/7.5/modules/iwresmanager/h/IwResGroup.h'
p1297
(lp1298
I1
ag1283
asS'c:/marmalade/7.5/modules/iwresmanager/h/IwResHandler.h'
p1299
(lp1300
I1
ag1283
asS'c:/marmalade/7.5/modules/iwresmanager/h/IwResHandlerImage.h'
p1301
(lp1302
I1
ag1283
assS'iwgx'
p1303
(dp1304
S'c:/marmalade/7.5/modules/iwgx/h/IwDebugPrim.h'
p1305
(lp1306
I1
a(dp1307
asS'c:/marmalade/7.5/modules/iwgx/h/IwGxTransformSW.h'
p1308
(lp1309
I1
ag1307
asS'c:/marmalade/7.5/modules/iwgx/h/IwTexture.h'
p1310
(lp1311
I1
ag1307
asS'c:/marmalade/7.5/modules/iwgx/h/IwGxFuncTable.h'
p1312
(lp1313
I1
ag1307
asS'c:/marmalade/7.5/modules/iwgx/h/IwResHandlerMTL.h'
p1314
(lp1315
I1
ag1307
asS'c:/marmalade/7.5/modules/iwgx/h/IwGxPrint.h'
p1316
(lp1317
I1
ag1307
asS'c:/marmalade/7.5/modules/iwgx/h/IwGxStream.h'
p1318
(lp1319
I1
ag1307
asS'c:/marmalade/7.5/modules/iwgx/h/IwMatAnim.h'
p1320
(lp1321
I1
ag1307
asS'c:/marmalade/7.5/modules/iwgx/h/IwClip.h'
p1322
(lp1323
I1
ag1307
asS'c:/marmalade/7.5/modules/iwgx/h/IwGxSurface.h'
p1324
(lp1325
I1
ag1307
asS'c:/marmalade/7.5/modules/iwgx/h/IwGxError.h'
p1326
(lp1327
I1
ag1307
asS'c:/marmalade/7.5/modules/iwgx/h/IwGx.h'
p1328
(lp1329
I1
ag1307
asS'c:/marmalade/7.5/modules/iwgx/docs/iwgx_public.defines.txt'
p1330
(lp1331
I1
ag1307
asS'c:/marmalade/7.5/modules/iwgx/h/IwGxDebug.h'
p1332
(lp1333
I1
ag1307
asS'c:/marmalade/7.5/modules/iwgx/h/IwGxShaderTechnique.h'
p1334
(lp1335
I1
ag1307
asS'c:/marmalade/7.5/modules/iwgx/h/IwMaterial.h'
p1336
(lp1337
I1
ag1307
asS'c:/marmalade/7.5/modules/iwgx/h/IwGxMetrics.h'
p1338
(lp1339
I1
ag1307
asS'c:/marmalade/7.5/modules/iwgx/h/IwClip.inl'
p1340
(lp1341
I1
ag1307
asS'c:/marmalade/7.5/modules/iwgx/h/IwFColour.h'
p1342
(lp1343
I1
ag1307
asS'c:/marmalade/7.5/modules/iwgx/h/IwGxTypes.h'
p1344
(lp1345
I1
ag1307
asS'c:/marmalade/7.5/modules/iwgx/iwgx.mkf'
p1346
(lp1347
I1
a(dp1348
asS'c:/marmalade/7.5/modules/iwgx/docs/iwgx.config.txt'
p1349
(lp1350
I1
ag1307
asS'c:/marmalade/7.5/modules/iwgx/h/IwColour.h'
p1351
(lp1352
I1
ag1307
asS'c:/marmalade/7.5/modules/iwgx/h/IwGxState.h'
p1353
(lp1354
I1
ag1307
asS'c:/marmalade/7.5/modules/iwgx/h/IwTPage.h'
p1355
(lp1356
I1
ag1307
assS'iw2dscenegraphcore'
p1357
(dp1358
S'c:/marmalade/7.5/modules/iw2dscenegraphcore/iw2dscenegraphcore.mkf'
p1359
(lp1360
I1
a(dp1361
asS'c:/marmalade/7.5/modules/iw2dscenegraphcore/h/Iw2DSceneGraphCore.h'
p1362
(lp1363
I1
a(dp1364
asS'c:/marmalade/7.5/modules/iw2dscenegraphcore/source/Iw2DSceneGraphCore.cpp'
p1365
(lp1366
I1
ag1364
assS'iwutil'
p1367
(dp1368
S'c:/marmalade/7.5/modules/iwutil/h/IwSingleton.h'
p1369
(lp1370
I1
a(dp1371
asS'c:/marmalade/7.5/modules/iwutil/h/IwMath.h'
p1372
(lp1373
I1
ag1371
asS'c:/marmalade/7.5/modules/iwutil/h/IwBuffer.h'
p1374
(lp1375
I1
ag1371
asS'c:/marmalade/7.5/modules/iwutil/h/IwCore.h'
p1376
(lp1377
I1
ag1371
asS'c:/marmalade/7.5/modules/iwutil/h/IwDivide.h'
p1378
(lp1379
I1
ag1371
asS'c:/marmalade/7.5/modules/iwutil/h/IwMemory.h'
p1380
(lp1381
I1
ag1371
asS'c:/marmalade/7.5/modules/iwutil/h/IwImageHelper.h'
p1382
(lp1383
I1
ag1371
asS'c:/marmalade/7.5/modules/iwutil/h/IwManagedList.h'
p1384
(lp1385
I1
ag1371
asS'c:/marmalade/7.5/modules/iwutil/h/IwProfileMenu.h'
p1386
(lp1387
I1
ag1371
asS'c:/marmalade/7.5/modules/iwutil/h/IwClassFactory.h'
p1388
(lp1389
I1
ag1371
asS'c:/marmalade/7.5/modules/iwutil/h/IwDivTable.h'
p1390
(lp1391
I1
ag1371
asS'c:/marmalade/7.5/modules/iwutil/h/IwManaged.h'
p1392
(lp1393
I1
ag1371
asS'c:/marmalade/7.5/modules/iwutil/h/IwTextParseable.h'
p1394
(lp1395
I1
ag1371
asS'c:/marmalade/7.5/modules/iwutil/h/IwChar.h'
p1396
(lp1397
I1
ag1371
asS'c:/marmalade/7.5/modules/iwutil/h/IwRandom.h'
p1398
(lp1399
I1
ag1371
asS'c:/marmalade/7.5/modules/iwutil/h/IwDebug.h'
p1400
(lp1401
I1
ag1371
asS'c:/marmalade/7.5/modules/iwutil/h/IwUTF8.h'
p1402
(lp1403
I1
ag1371
asS'c:/marmalade/7.5/modules/iwutil/docs/iwutil.config.txt'
p1404
(lp1405
I1
ag1371
asS'c:/marmalade/7.5/modules/iwutil/h/IwAllocator.h'
p1406
(lp1407
I1
ag1371
asS'c:/marmalade/7.5/modules/iwutil/h/IwMemBucketHelpers.h'
p1408
(lp1409
I1
ag1371
asS'c:/marmalade/7.5/modules/iwutil/h/IwTextParserITX.h'
p1410
(lp1411
I1
ag1371
asS'c:/marmalade/7.5/modules/iwutil/h/IwKeymap.h'
p1412
(lp1413
I1
ag1371
asS'c:/marmalade/7.5/modules/iwutil/h/IwImage.h'
p1414
(lp1415
I1
ag1371
asS'c:/marmalade/7.5/modules/iwutil/h/IwOptimiseARM.h'
p1416
(lp1417
I1
ag1371
asS'c:/marmalade/7.5/modules/iwutil/h/IwMemBucket.h'
p1418
(lp1419
I1
ag1371
asS'c:/marmalade/7.5/modules/iwutil/h/IwOptimiseSize.h'
p1420
(lp1421
I1
ag1371
asS'c:/marmalade/7.5/modules/iwutil/h/IwRuntime.h'
p1422
(lp1423
I1
ag1371
asS'c:/marmalade/7.5/modules/iwutil/h/IwMemManagerDL.h'
p1424
(lp1425
I1
ag1371
asS'c:/marmalade/7.5/modules/iwutil/h/IwPath.h'
p1426
(lp1427
I1
ag1371
asS'c:/marmalade/7.5/modules/iwutil/h/IwOptimiseSpeed.h'
p1428
(lp1429
I1
ag1371
asS'c:/marmalade/7.5/modules/iwutil/h/IwList.h'
p1430
(lp1431
I1
ag1371
asS'c:/marmalade/7.5/modules/iwutil/h/IwAutoFile.h'
p1432
(lp1433
I1
ag1371
asS'c:/marmalade/7.5/modules/iwutil/h/IwVariableBitField.h'
p1434
(lp1435
I1
ag1371
asS'c:/marmalade/7.5/modules/iwutil/h/IwHashString.h'
p1436
(lp1437
I1
ag1371
asS'c:/marmalade/7.5/modules/iwutil/h/IwOptimiseThumb.h'
p1438
(lp1439
I1
ag1371
asS'c:/marmalade/7.5/modules/iwutil/iwutil.mkf'
p1440
(lp1441
I1
a(dp1442
asS'c:/marmalade/7.5/modules/iwutil/h/IwUtil.h'
p1443
(lp1444
I1
ag1371
asS'c:/marmalade/7.5/modules/iwutil/h/IwString.h'
p1445
(lp1446
I1
ag1371
asS'c:/marmalade/7.5/modules/iwutil/h/IwFile.h'
p1447
(lp1448
I1
ag1371
asS'c:/marmalade/7.5/modules/iwutil/h/IwUncopyable.h'
p1449
(lp1450
I1
ag1371
asS'c:/marmalade/7.5/modules/iwutil/h/IwTextParser.h'
p1451
(lp1452
I1
ag1371
asS'c:/marmalade/7.5/modules/iwutil/h/IwCopyingPtr.h'
p1453
(lp1454
I1
ag1371
asS'c:/marmalade/7.5/modules/iwutil/h/IwEvent.h'
p1455
(lp1456
I1
ag1371
asS'c:/marmalade/7.5/modules/iwutil/h/IwFibre.h'
p1457
(lp1458
I1
ag1371
asS'c:/marmalade/7.5/modules/iwutil/h/IwArray.h'
p1459
(lp1460
I1
ag1371
asS'c:/marmalade/7.5/modules/iwutil/h/IwMenu.h'
p1461
(lp1462
I1
ag1371
asS'c:/marmalade/7.5/modules/iwutil/h/IwTypes.h'
p1463
(lp1464
I1
ag1371
asS'c:/marmalade/7.5/modules/iwutil/h/IwUtilInitTerm.h'
p1465
(lp1466
I1
ag1371
asS'c:/marmalade/7.5/modules/iwutil/h/IwResource.h'
p1467
(lp1468
I1
ag1371
asS'c:/marmalade/7.5/modules/iwutil/h/IwSerialise.h'
p1469
(lp1470
I1
ag1371
asssS'(zlib)'
p1471
(dp1472
g1067
(dp1473
S'c:/marmalade/7.5/modules/third_party/zlib/h/zconf.h'
p1474
(lp1475
I1
a(dp1476
asS'c:/marmalade/7.5/modules/third_party/zlib/h/zlib.h'
p1477
(lp1478
I1
ag1476
assS'c:/marmalade/7.5/modules/third_party/zlib/zlib.mkf'
p1479
(lp1480
I1
a(dp1481
assS'(iwtween)'
p1482
(dp1483
S'c:/marmalade/7.5/modules/iwtween/h/IwTween.h'
p1484
(lp1485
I1
a(dp1486
asS'c:/marmalade/7.5/modules/iwtween/source/IwTween.cpp'
p1487
(lp1488
I1
ag1486
asS'c:/marmalade/7.5/modules/iwtween/iwtween.mkf'
p1489
(lp1490
I1
a(dp1491
assS'd:/School/cs115/AmazingMaze/AmazingMaze.cpp'
p1492
(lp1493
I1
a(dp1494
assS'files'
p1495
(dp1496
S'IwGxFontPreparedData.h'
p1497
g322
(cmkb_main
File
p1498
g324
Ntp1499
Rp1500
(dp1501
S'flags'
p1502
g1185
sS'group'
p1503
(lp1504
S"'Marmalade Studio'"
p1505
ag1181
asg348
g1197
sbsS'iterator'
p1506
g322
(g1498
g324
Ntp1507
Rp1508
(dp1509
g1502
(dp1510
sg1503
(lp1511
S"'Marmalade System (S3E)'"
p1512
aS'stdc headers'
p1513
aS'c++'
p1514
asg348
S'c:/marmalade/7.5/s3e/h/std/c++/iterator'
p1515
sbsS'IwGL.h'
p1516
g322
(g1498
g324
Ntp1517
Rp1518
(dp1519
g1502
g1164
sg1503
(lp1520
S"'Marmalade Studio'"
p1521
ag1157
asg348
g1162
sbsS's3e.h'
p1522
g322
(g1498
g324
Ntp1523
Rp1524
(dp1525
g1502
g1510
sg1503
(lp1526
g1512
asg348
S'c:/marmalade/7.5/s3e/h/s3e.h'
p1527
sbsS'errno.h'
p1528
g322
(g1498
g324
Ntp1529
Rp1530
(dp1531
g1502
g1510
sg1503
(lp1532
g1512
aS'stdc headers'
p1533
asg348
S'c:/marmalade/7.5/s3e/h/std/errno.h'
p1534
sbsS'IwSingleton.h'
p1535
g322
(g1498
g324
Ntp1536
Rp1537
(dp1538
g1502
g1371
sg1503
(lp1539
S"'Marmalade Studio'"
p1540
ag1367
asg348
g1369
sbsS'dlfcn.h'
p1541
g322
(g1498
g324
Ntp1542
Rp1543
(dp1544
g1502
g1510
sg1503
g1532
sg348
S'c:/marmalade/7.5/s3e/h/std/dlfcn.h'
p1545
sbsS'stdio_streambuf'
p1546
g322
(g1498
g324
Ntp1547
Rp1548
(dp1549
g1502
g1510
sg1503
g1511
sg348
S'c:/marmalade/7.5/s3e/h/std/c++/stdio_streambuf'
p1550
sbsS'sched.h'
p1551
g322
(g1498
g324
Ntp1552
Rp1553
(dp1554
g1502
g1510
sg1503
g1532
sg348
S'c:/marmalade/7.5/s3e/h/std/sched.h'
p1555
sbsS'IwGeomFMat2D.h'
p1556
g322
(g1498
g324
Ntp1557
Rp1558
(dp1559
g1502
g1207
sg1503
(lp1560
S"'Marmalade Studio'"
p1561
ag1203
asg348
g1261
sbsS's3eExt.h'
p1562
g322
(g1498
g324
Ntp1563
Rp1564
(dp1565
g1502
g1510
sg1503
g1526
sg348
S'c:/marmalade/7.5/s3e/h/s3eExt.h'
p1566
sbsS'grp.h'
p1567
g322
(g1498
g324
Ntp1568
Rp1569
(dp1570
g1502
g1510
sg1503
g1532
sg348
S'c:/marmalade/7.5/s3e/h/std/grp.h'
p1571
sbsS'list'
p1572
g322
(g1498
g324
Ntp1573
Rp1574
(dp1575
g1502
g1510
sg1503
g1511
sg348
S'c:/marmalade/7.5/s3e/h/std/c++/list'
p1576
sbsS'IwGeomMat.h.tpl'
p1577
g322
(g1498
g324
Ntp1578
Rp1579
(dp1580
g1502
g1207
sg1503
g1560
sg348
g1257
sbsS'istream'
p1581
g322
(g1498
g324
Ntp1582
Rp1583
(dp1584
g1502
g1510
sg1503
g1511
sg348
S'c:/marmalade/7.5/s3e/h/std/c++/istream'
p1585
sbsS'jpeglib.h'
p1586
g322
(g1498
g324
Ntp1587
Rp1588
(dp1589
g1502
g1085
sg1503
(lp1590
g1077
ag1067
asg348
g1110
sbsS'iw2d_public.defines.txt'
p1591
g322
(g1498
g324
Ntp1592
Rp1593
(dp1594
g1502
g1173
sg1503
(lp1595
S"'Marmalade Studio'"
p1596
ag1169
asg348
g1171
sbsS'iostream.h'
p1597
g322
(g1498
g324
Ntp1598
Rp1599
(dp1600
g1502
g1510
sg1503
g1511
sg348
S'c:/marmalade/7.5/s3e/h/std/c++/iostream.h'
p1601
sbsS'string'
p1602
g322
(g1498
g324
Ntp1603
Rp1604
(dp1605
g1502
g1510
sg1503
g1511
sg348
S'c:/marmalade/7.5/s3e/h/std/c++/string'
p1606
sbsS'IwMemory.h'
p1607
g322
(g1498
g324
Ntp1608
Rp1609
(dp1610
g1502
g1371
sg1503
g1539
sg348
g1380
sbsS'IwGeomPlane.h'
p1611
g322
(g1498
g324
Ntp1612
Rp1613
(dp1614
g1502
g1207
sg1503
g1560
sg348
g1237
sbsS'iw2d.config.txt'
p1615
g322
(g1498
g324
Ntp1616
Rp1617
(dp1618
g1502
g1173
sg1503
g1595
sg348
g1174
sbsS'iomanip'
p1619
g322
(g1498
g324
Ntp1620
Rp1621
(dp1622
g1502
g1510
sg1503
g1511
sg348
S'c:/marmalade/7.5/s3e/h/std/c++/iomanip'
p1623
sbsS'iwgeom.mkf'
p1624
g322
(g1498
g324
Ntp1625
Rp1626
(dp1627
g1502
g1214
sg1503
g1560
sg348
g1212
sbsS'IwGxError.h'
p1628
g322
(g1498
g324
Ntp1629
Rp1630
(dp1631
g1502
g1307
sg1503
(lp1632
S"'Marmalade Studio'"
p1633
ag1303
asg348
g1326
sbsS'IwGeom.h'
p1634
g322
(g1498
g324
Ntp1635
Rp1636
(dp1637
g1502
g1207
sg1503
g1560
sg348
g1229
sbsS'IwGeomVec4.h'
p1638
g322
(g1498
g324
Ntp1639
Rp1640
(dp1641
g1502
g1207
sg1503
g1560
sg348
g1245
sbsS'dir.h'
p1642
g322
(g1498
g324
Ntp1643
Rp1644
(dp1645
g1502
g1510
sg1503
(lp1646
g1512
aS'stdc headers'
p1647
aS'sys'
p1648
asg348
S'c:/marmalade/7.5/s3e/h/std/sys/dir.h'
p1649
sbsS'locale.h'
p1650
g322
(g1498
g324
Ntp1651
Rp1652
(dp1653
g1502
g1510
sg1503
g1532
sg348
S'c:/marmalade/7.5/s3e/h/std/locale.h'
p1654
sbsS'vector'
p1655
g322
(g1498
g324
Ntp1656
Rp1657
(dp1658
g1502
g1510
sg1503
g1511
sg348
S'c:/marmalade/7.5/s3e/h/std/c++/vector'
p1659
sbsS'IwManaged.h'
p1660
g322
(g1498
g324
Ntp1661
Rp1662
(dp1663
g1502
g1371
sg1503
g1539
sg348
g1392
sbsS's3eCompass.h'
p1664
g322
(g1498
g324
Ntp1665
Rp1666
(dp1667
g1502
g1510
sg1503
g1526
sg348
S'c:/marmalade/7.5/s3e/h/s3eCompass.h'
p1668
sbsS'cderror.h'
p1669
g322
(g1498
g324
Ntp1670
Rp1671
(dp1672
g1502
g1085
sg1503
g1590
sg348
g1088
sbsS'climits'
p1673
g322
(g1498
g324
Ntp1674
Rp1675
(dp1676
g1502
g1510
sg1503
g1511
sg348
S'c:/marmalade/7.5/s3e/h/std/c++/climits'
p1677
sbsS's3eVibra.h'
p1678
g322
(g1498
g324
Ntp1679
Rp1680
(dp1681
g1502
g1510
sg1503
g1526
sg348
S'c:/marmalade/7.5/s3e/h/s3eVibra.h'
p1682
sbsS'jversion.h'
p1683
g322
(g1498
g324
Ntp1684
Rp1685
(dp1686
g1502
g1085
sg1503
g1590
sg348
g1106
sbsS'fnmatch.h'
p1687
g322
(g1498
g324
Ntp1688
Rp1689
(dp1690
g1502
g1510
sg1503
g1532
sg348
S'c:/marmalade/7.5/s3e/h/std/fnmatch.h'
p1691
sbsS'IwGxState.h'
p1692
g322
(g1498
g324
Ntp1693
Rp1694
(dp1695
g1502
g1307
sg1503
g1632
sg348
g1353
sbsS's3eAudio.h'
p1696
g322
(g1498
g324
Ntp1697
Rp1698
(dp1699
g1502
g1510
sg1503
g1526
sg348
S'c:/marmalade/7.5/s3e/h/s3eAudio.h'
p1700
sbsS's3eSurface.h'
p1701
g322
(g1498
g324
Ntp1702
Rp1703
(dp1704
g1502
g1510
sg1503
g1526
sg348
S'c:/marmalade/7.5/s3e/h/s3eSurface.h'
p1705
sbsS'new'
p1706
g322
(g1498
g324
Ntp1707
Rp1708
(dp1709
g1502
g1510
sg1503
g1511
sg348
S'c:/marmalade/7.5/s3e/h/std/c++/new'
p1710
sbsS's3eWindow.h'
p1711
g322
(g1498
g324
Ntp1712
Rp1713
(dp1714
g1502
g1510
sg1503
(lp1715
g1512
aS'Extensions'
p1716
asg348
S'c:/marmalade/7.5/s3e/h/ext/s3eWindow.h'
p1717
sbsS'IwBuffer.h'
p1718
g322
(g1498
g324
Ntp1719
Rp1720
(dp1721
g1502
g1371
sg1503
g1539
sg348
g1374
sbsS'IwGeomQuat.h.tpl'
p1722
g322
(g1498
g324
Ntp1723
Rp1724
(dp1725
g1502
g1207
sg1503
g1560
sg348
g1219
sbsS's3eOSExec.h'
p1726
g322
(g1498
g324
Ntp1727
Rp1728
(dp1729
g1502
g1510
sg1503
g1715
sg348
S'c:/marmalade/7.5/s3e/h/ext/s3eOSExec.h'
p1730
sbsS'IwGxTransformSW.h'
p1731
g322
(g1498
g324
Ntp1732
Rp1733
(dp1734
g1502
g1307
sg1503
g1632
sg348
g1308
sbsS'IwGxMetrics.h'
p1735
g322
(g1498
g324
Ntp1736
Rp1737
(dp1738
g1502
g1307
sg1503
g1632
sg348
g1338
sbsS'iwgxfont.config.txt'
p1739
g322
(g1498
g324
Ntp1740
Rp1741
(dp1742
g1502
g1185
sg1503
g1504
sg348
g1188
sbsS'gl2platform.h'
p1743
g322
(g1498
g324
Ntp1744
Rp1745
(dp1746
g1502
g1510
sg1503
(lp1747
g1512
aS'GL'
p1748
aS'GLES 2.0'
p1749
asg348
S'c:/marmalade/7.5/s3e/h/GLES2/gl2platform.h'
p1750
sbsS'iw2dscenegraph.defines.txt'
p1751
g322
(g1498
g324
Ntp1752
Rp1753
(dp1754
g1502
g1149
sg1503
(lp1755
S"'Marmalade Studio'"
p1756
ag1145
asg348
g1150
sbsS'queue'
p1757
g322
(g1498
g324
Ntp1758
Rp1759
(dp1760
g1502
g1510
sg1503
g1511
sg348
S'c:/marmalade/7.5/s3e/h/std/c++/queue'
p1761
sbsS'time_1.h'
p1762
g322
(g1498
g324
Ntp1763
Rp1764
(dp1765
g1502
g1510
sg1503
g1646
sg348
S'c:/marmalade/7.5/s3e/h/std/sys/time.h'
p1766
sbsS'Iw2D.h'
p1767
g322
(g1498
g324
Ntp1768
Rp1769
(dp1770
g1502
g1173
sg1503
g1595
sg348
g1176
sbsS'IwGeomVec2.h'
p1771
g322
(g1498
g324
Ntp1772
Rp1773
(dp1774
g1502
g1207
sg1503
g1560
sg348
g1221
sbsS's3eDevice.h'
p1775
g322
(g1498
g324
Ntp1776
Rp1777
(dp1778
g1502
g1510
sg1503
g1526
sg348
S'c:/marmalade/7.5/s3e/h/s3eDevice.h'
p1779
sbsS'malloc.h'
p1780
g322
(g1498
g324
Ntp1781
Rp1782
(dp1783
g1502
g1510
sg1503
g1532
sg348
S'c:/marmalade/7.5/s3e/h/std/malloc.h'
p1784
sbsS'stdarg.h'
p1785
g322
(g1498
g324
Ntp1786
Rp1787
(dp1788
g1502
g1510
sg1503
g1532
sg348
S'c:/marmalade/7.5/s3e/h/std/stdarg.h'
p1789
sbsS'IwGeomCore.h'
p1790
g322
(g1498
g324
Ntp1791
Rp1792
(dp1793
g1502
g1207
sg1503
g1560
sg348
g1247
sbsS'Iw2DSceneGraph.h'
p1794
g322
(g1498
g324
Ntp1795
Rp1796
(dp1797
g1502
g1149
sg1503
g1755
sg348
g1152
sbsS'AmazingMaze.cpp'
p1798
g322
(g1498
g324
Ntp1799
Rp1800
(dp1801
g1502
g1494
sg1503
(lp1802
sg348
g1492
sbsS'endian.h'
p1803
g322
(g1498
g324
Ntp1804
Rp1805
(dp1806
g1502
g1510
sg1503
g1532
sg348
S'c:/marmalade/7.5/s3e/h/std/endian.h'
p1807
sbsS'gl3ext.h'
p1808
g322
(g1498
g324
Ntp1809
Rp1810
(dp1811
g1502
g1510
sg1503
(lp1812
g1512
aS'GL'
p1813
aS'GLES 3.0'
p1814
asg348
S'c:/marmalade/7.5/s3e/h/GLES3/gl3ext.h'
p1815
sbsS'glob.h'
p1816
g322
(g1498
g324
Ntp1817
Rp1818
(dp1819
g1502
g1510
sg1503
g1532
sg348
S'c:/marmalade/7.5/s3e/h/std/glob.h'
p1820
sbsS'fstream'
p1821
g322
(g1498
g324
Ntp1822
Rp1823
(dp1824
g1502
g1510
sg1503
g1511
sg348
S'c:/marmalade/7.5/s3e/h/std/c++/fstream'
p1825
sbsS's3eCamera.h'
p1826
g322
(g1498
g324
Ntp1827
Rp1828
(dp1829
g1502
g1510
sg1503
g1526
sg348
S'c:/marmalade/7.5/s3e/h/s3eCamera.h'
p1830
sbsS'jconfig.h'
p1831
g322
(g1498
g324
Ntp1832
Rp1833
(dp1834
g1502
g1085
sg1503
g1590
sg348
g1108
sbsS'memory'
p1835
g322
(g1498
g324
Ntp1836
Rp1837
(dp1838
g1502
g1510
sg1503
g1511
sg348
S'c:/marmalade/7.5/s3e/h/std/c++/memory'
p1839
sbsS'egl.h'
p1840
g322
(g1498
g324
Ntp1841
Rp1842
(dp1843
g1502
g1510
sg1503
(lp1844
g1512
aS'GL'
p1845
aS'EGL'
p1846
asg348
S'c:/marmalade/7.5/s3e/h/EGL/egl.h'
p1847
sbsS'IwClip.inl'
p1848
g322
(g1498
g324
Ntp1849
Rp1850
(dp1851
g1502
g1307
sg1503
g1632
sg348
g1340
sbsS'IwMemManagerDL.h'
p1852
g322
(g1498
g324
Ntp1853
Rp1854
(dp1855
g1502
g1371
sg1503
g1539
sg348
g1424
sbsS'deque'
p1856
g322
(g1498
g324
Ntp1857
Rp1858
(dp1859
g1502
g1510
sg1503
g1511
sg348
S'c:/marmalade/7.5/s3e/h/std/c++/deque'
p1860
sbsS'IwString.h'
p1861
g322
(g1498
g324
Ntp1862
Rp1863
(dp1864
g1502
g1371
sg1503
g1539
sg348
g1445
sbsS'cwchar'
p1865
g322
(g1498
g324
Ntp1866
Rp1867
(dp1868
g1502
g1510
sg1503
g1511
sg348
S'c:/marmalade/7.5/s3e/h/std/c++/cwchar'
p1869
sbsS'iwutil.mkf'
p1870
g322
(g1498
g324
Ntp1871
Rp1872
(dp1873
g1502
g1442
sg1503
g1539
sg348
g1440
sbsS'csignal'
p1874
g322
(g1498
g324
Ntp1875
Rp1876
(dp1877
g1502
g1510
sg1503
g1511
sg348
S'c:/marmalade/7.5/s3e/h/std/c++/csignal'
p1878
sbsS'float.h'
p1879
g322
(g1498
g324
Ntp1880
Rp1881
(dp1882
g1502
g1510
sg1503
g1532
sg348
S'c:/marmalade/7.5/s3e/h/std/float.h'
p1883
sbsS'pthread_alloc'
p1884
g322
(g1498
g324
Ntp1885
Rp1886
(dp1887
g1502
g1510
sg1503
g1511
sg348
S'c:/marmalade/7.5/s3e/h/std/c++/pthread_alloc'
p1888
sbsS'getopt.h'
p1889
g322
(g1498
g324
Ntp1890
Rp1891
(dp1892
g1502
g1510
sg1503
g1532
sg348
S'c:/marmalade/7.5/s3e/h/std/getopt.h'
p1893
sbsS'IwOptimiseARM.h'
p1894
g322
(g1498
g324
Ntp1895
Rp1896
(dp1897
g1502
g1371
sg1503
g1539
sg348
g1416
sbsS'times.h'
p1898
g322
(g1498
g324
Ntp1899
Rp1900
(dp1901
g1502
g1510
sg1503
g1646
sg348
S'c:/marmalade/7.5/s3e/h/std/sys/times.h'
p1902
sbsS'IwGeomFSphere.h'
p1903
g322
(g1498
g324
Ntp1904
Rp1905
(dp1906
g1502
g1207
sg1503
g1560
sg348
g1267
sbsS'IwTypes.h'
p1907
g322
(g1498
g324
Ntp1908
Rp1909
(dp1910
g1502
g1371
sg1503
g1539
sg348
g1463
sbsS'unistd.h'
p1911
g322
(g1498
g324
Ntp1912
Rp1913
(dp1914
g1502
g1510
sg1503
g1532
sg348
S'c:/marmalade/7.5/s3e/h/std/unistd.h'
p1915
sbsS's3eCompression.h'
p1916
g322
(g1498
g324
Ntp1917
Rp1918
(dp1919
g1502
g1510
sg1503
g1526
sg348
S'c:/marmalade/7.5/s3e/h/s3eCompression.h'
p1920
sbsS'langinfo.h'
p1921
g322
(g1498
g324
Ntp1922
Rp1923
(dp1924
g1502
g1510
sg1503
g1532
sg348
S'c:/marmalade/7.5/s3e/h/std/langinfo.h'
p1925
sbsS's3edebugHeap.h'
p1926
g322
(g1498
g324
Ntp1927
Rp1928
(dp1929
g1502
g1510
sg1503
g1715
sg348
S'c:/marmalade/7.5/s3e/h/ext/s3edebugHeap.h'
p1930
sbsS'AirplayVersion.h'
p1931
g322
(g1498
g324
Ntp1932
Rp1933
(dp1934
g1502
g1510
sg1503
g1526
sg348
S'c:/marmalade/7.5/s3e/h/AirplayVersion.h'
p1935
sbsS'gl2extimg.h'
p1936
g322
(g1498
g324
Ntp1937
Rp1938
(dp1939
g1502
g1510
sg1503
g1747
sg348
S'c:/marmalade/7.5/s3e/h/GLES2/gl2extimg.h'
p1940
sbsS'app.config.txt'
p1941
g322
(g1498
g324
Ntp1942
Rp1943
(dp1944
g1502
(dp1945
sg1503
g4
sg348
S'd:/School/cs115/AmazingMaze/data/app.config.txt'
p1946
sbsS'IwGeomSqrt.h'
p1947
g322
(g1498
g324
Ntp1948
Rp1949
(dp1950
g1502
g1207
sg1503
g1560
sg348
g1215
sbsS'tiniconv_int.h'
p1951
g322
(g1498
g324
Ntp1952
Rp1953
(dp1954
g1502
g1119
sg1503
(lp1955
g1112
asg348
g1117
sbsS'syslog.h'
p1956
g322
(g1498
g324
Ntp1957
Rp1958
(dp1959
g1502
g1510
sg1503
g1532
sg348
S'c:/marmalade/7.5/s3e/h/std/syslog.h'
p1960
sbsS'IwGxFontTypes.h'
p1961
g322
(g1498
g324
Ntp1962
Rp1963
(dp1964
g1502
g1185
sg1503
g1504
sg348
g1186
sbsS'IwGeomFIntersect.h'
p1965
g322
(g1498
g324
Ntp1966
Rp1967
(dp1968
g1502
g1207
sg1503
g1560
sg348
g1277
sbsS'hash_map'
p1969
g322
(g1498
g324
Ntp1970
Rp1971
(dp1972
g1502
g1510
sg1503
g1511
sg348
S'c:/marmalade/7.5/s3e/h/std/c++/hash_map'
p1973
sbsS's3e.mkf'
p1974
g322
(g1498
g324
Ntp1975
Rp1976
(dp1977
g1502
(dp1978
sg1503
g1526
sg348
S'c:/marmalade/7.5/s3e/s3e.mkf'
p1979
sbsS'IwGeomMat2D.h.tpl'
p1980
g322
(g1498
g324
Ntp1981
Rp1982
(dp1983
g1502
g1207
sg1503
g1560
sg348
g1259
sbsS's3eOSReadString.h'
p1984
g322
(g1498
g324
Ntp1985
Rp1986
(dp1987
g1502
g1510
sg1503
g1715
sg348
S'c:/marmalade/7.5/s3e/h/ext/s3eOSReadString.h'
p1988
sbsS'map'
p1989
g322
(g1498
g324
Ntp1990
Rp1991
(dp1992
g1502
g1510
sg1503
g1511
sg348
S'c:/marmalade/7.5/s3e/h/std/c++/map'
p1993
sbsS'iwtween.mkf'
p1994
g322
(g1498
g324
Ntp1995
Rp1996
(dp1997
g1502
g1491
sg1503
(lp1998
g1482
asg348
g1489
sbsS'IwOptimiseSpeed.h'
p1999
g322
(g1498
g324
Ntp2000
Rp2001
(dp2002
g1502
g1371
sg1503
g1539
sg348
g1428
sbsS'msl_string.h'
p2003
g322
(g1498
g324
Ntp2004
Rp2005
(dp2006
g1502
g1510
sg1503
g1511
sg348
S'c:/marmalade/7.5/s3e/h/std/c++/msl_string.h'
p2007
sbsS'select.h'
p2008
g322
(g1498
g324
Ntp2009
Rp2010
(dp2011
g1502
g1510
sg1503
g1646
sg348
S'c:/marmalade/7.5/s3e/h/std/sys/select.h'
p2012
sbsS'zlib.mkf'
p2013
g322
(g1498
g324
Ntp2014
Rp2015
(dp2016
g1502
g1481
sg1503
(lp2017
g1471
asg348
g1479
sbsS'signal.h'
p2018
g322
(g1498
g324
Ntp2019
Rp2020
(dp2021
g1502
g1510
sg1503
g1532
sg348
S'c:/marmalade/7.5/s3e/h/std/signal.h'
p2022
sbsS'sigcontext.h'
p2023
g322
(g1498
g324
Ntp2024
Rp2025
(dp2026
g1502
g1510
sg1503
g1532
sg348
S'c:/marmalade/7.5/s3e/h/std/sigcontext.h'
p2027
sbsS'libpng.mkf'
p2028
g322
(g1498
g324
Ntp2029
Rp2030
(dp2031
g1502
g1076
sg1503
(lp2032
g1065
asg348
g1074
sbsS's3eClipboard.h'
p2033
g322
(g1498
g324
Ntp2034
Rp2035
(dp2036
g1502
g1510
sg1503
g1526
sg348
S'c:/marmalade/7.5/s3e/h/s3eClipboard.h'
p2037
sbsS'IwGxFuncTable.h'
p2038
g322
(g1498
g324
Ntp2039
Rp2040
(dp2041
g1502
g1307
sg1503
g1632
sg348
g1312
sbsS'IwResHandlerGROUP.h'
p2042
g322
(g1498
g324
Ntp2043
Rp2044
(dp2045
g1502
g1283
sg1503
(lp2046
g1143
ag1279
asg348
g1288
sbsS's3eDebug.h'
p2047
g322
(g1498
g324
Ntp2048
Rp2049
(dp2050
g1502
g1510
sg1503
g1526
sg348
S'c:/marmalade/7.5/s3e/h/s3eDebug.h'
p2051
sbsS'socket.h'
p2052
g322
(g1498
g324
Ntp2053
Rp2054
(dp2055
g1502
g1510
sg1503
g1646
sg348
S'c:/marmalade/7.5/s3e/h/std/sys/socket.h'
p2056
sbsS'glext.h'
p2057
g322
(g1498
g324
Ntp2058
Rp2059
(dp2060
g1502
g1510
sg1503
(lp2061
g1512
aS'GL'
p2062
aS'GLES 1.x'
p2063
asg348
S'c:/marmalade/7.5/s3e/h/GLES/glext.h'
p2064
sbsS'typeinfo.h'
p2065
g322
(g1498
g324
Ntp2066
Rp2067
(dp2068
g1502
g1510
sg1503
g1511
sg348
S'c:/marmalade/7.5/s3e/h/std/c++/typeinfo.h'
p2069
sbsS'typeinfo'
p2070
g322
(g1498
g324
Ntp2071
Rp2072
(dp2073
g1502
g1510
sg1503
g1511
sg348
S'c:/marmalade/7.5/s3e/h/std/c++/typeinfo'
p2074
sbsS'fstream.h'
p2075
g322
(g1498
g324
Ntp2076
Rp2077
(dp2078
g1502
g1510
sg1503
g1511
sg348
S'c:/marmalade/7.5/s3e/h/std/c++/fstream.h'
p2079
sbsS's3ePointer.h'
p2080
g322
(g1498
g324
Ntp2081
Rp2082
(dp2083
g1502
g1510
sg1503
g1526
sg348
S'c:/marmalade/7.5/s3e/h/s3ePointer.h'
p2084
sbsS'IwMemBucket.h'
p2085
g322
(g1498
g324
Ntp2086
Rp2087
(dp2088
g1502
g1371
sg1503
g1539
sg348
g1418
sbsS'PVRTexTool.h'
p2089
g322
(g1498
g324
Ntp2090
Rp2091
(dp2092
g1502
g1130
sg1503
(lp2093
g1122
ag1124
asg348
g1133
sbsS's3eGL.h'
p2094
g322
(g1498
g324
Ntp2095
Rp2096
(dp2097
g1502
g1510
sg1503
g1526
sg348
S'c:/marmalade/7.5/s3e/h/s3eGL.h'
p2098
sbsS'IwGeomFVec2.h'
p2099
g322
(g1498
g324
Ntp2100
Rp2101
(dp2102
g1502
g1207
sg1503
g1560
sg348
g1241
sbsS'IwGeomSVec4.h'
p2103
g322
(g1498
g324
Ntp2104
Rp2105
(dp2106
g1502
g1207
sg1503
g1560
sg348
g1243
sbsS'poll.h'
p2107
g322
(g1498
g324
Ntp2108
Rp2109
(dp2110
g1502
g1510
sg1503
g1532
sg348
S'c:/marmalade/7.5/s3e/h/std/poll.h'
p2111
sbsS'IwMatAnim.h'
p2112
g322
(g1498
g324
Ntp2113
Rp2114
(dp2115
g1502
g1307
sg1503
g1632
sg348
g1320
sbsS'PVRTexTool.defines.txt'
p2116
g322
(g1498
g324
Ntp2117
Rp2118
(dp2119
g1502
g1130
sg1503
(lp2120
g1122
ag1124
ag1126
asg348
g1128
sbsS'IwGx.h'
p2121
g322
(g1498
g324
Ntp2122
Rp2123
(dp2124
g1502
g1307
sg1503
g1632
sg348
g1328
sbsS'valarray'
p2125
g322
(g1498
g324
Ntp2126
Rp2127
(dp2128
g1502
g1510
sg1503
g1511
sg348
S'c:/marmalade/7.5/s3e/h/std/c++/valarray'
p2129
sbsS'iosfwd'
p2130
g322
(g1498
g324
Ntp2131
Rp2132
(dp2133
g1502
g1510
sg1503
g1511
sg348
S'c:/marmalade/7.5/s3e/h/std/c++/iosfwd'
p2134
sbsS'gl2.h'
p2135
g322
(g1498
g324
Ntp2136
Rp2137
(dp2138
g1502
g1510
sg1503
g1747
sg348
S'c:/marmalade/7.5/s3e/h/GLES2/gl2.h'
p2139
sbsS'jpegint.h'
p2140
g322
(g1498
g324
Ntp2141
Rp2142
(dp2143
g1502
g1085
sg1503
g1590
sg348
g1100
sbsS'stdiostream.h'
p2144
g322
(g1498
g324
Ntp2145
Rp2146
(dp2147
g1502
g1510
sg1503
g1511
sg348
S'c:/marmalade/7.5/s3e/h/std/c++/stdiostream.h'
p2148
sbsS'mem.h'
p2149
g322
(g1498
g324
Ntp2150
Rp2151
(dp2152
g1502
g1510
sg1503
g1511
sg348
S'c:/marmalade/7.5/s3e/h/std/c++/mem.h'
p2153
sbsS'jerror.h'
p2154
g322
(g1498
g324
Ntp2155
Rp2156
(dp2157
g1502
g1085
sg1503
g1590
sg348
g1083
sbsS'zconf.h'
p2158
g322
(g1498
g324
Ntp2159
Rp2160
(dp2161
g1502
g1476
sg1503
(lp2162
g1471
ag1067
asg348
g1474
sbsS's3e.config.txt'
p2163
g322
(g1498
g324
Ntp2164
Rp2165
(dp2166
g1502
g1510
sg1503
g1526
sg348
S'c:/marmalade/7.5/s3e/s3e.config.txt'
p2167
sbsS'numeric'
p2168
g322
(g1498
g324
Ntp2169
Rp2170
(dp2171
g1502
g1510
sg1503
g1511
sg348
S'c:/marmalade/7.5/s3e/h/std/c++/numeric'
p2172
sbsS'utime.h'
p2173
g322
(g1498
g324
Ntp2174
Rp2175
(dp2176
g1502
g1510
sg1503
g1532
sg348
S'c:/marmalade/7.5/s3e/h/std/utime.h'
p2177
sbsS'jdhuff.h'
p2178
g322
(g1498
g324
Ntp2179
Rp2180
(dp2181
g1502
g1085
sg1503
g1590
sg348
g1086
sbsS'IwGxStream.h'
p2182
g322
(g1498
g324
Ntp2183
Rp2184
(dp2185
g1502
g1307
sg1503
g1632
sg348
g1318
sbsS'IwImage.h'
p2186
g322
(g1498
g324
Ntp2187
Rp2188
(dp2189
g1502
g1371
sg1503
g1539
sg348
g1414
sbsS's3eImagePicker.h'
p2190
g322
(g1498
g324
Ntp2191
Rp2192
(dp2193
g1502
g1510
sg1503
g1715
sg348
S'c:/marmalade/7.5/s3e/h/ext/s3eImagePicker.h'
p2194
sbsS'IwTextParserITX.h'
p2195
g322
(g1498
g324
Ntp2196
Rp2197
(dp2198
g1502
g1371
sg1503
g1539
sg348
g1410
sbsS'stdlib.h'
p2199
g322
(g1498
g324
Ntp2200
Rp2201
(dp2202
g1502
g1510
sg1503
g1532
sg348
S'c:/marmalade/7.5/s3e/h/std/stdlib.h'
p2203
sbsS'IwCopyingPtr.h'
p2204
g322
(g1498
g324
Ntp2205
Rp2206
(dp2207
g1502
g1371
sg1503
g1539
sg348
g1453
sbsS'iostream'
p2208
g322
(g1498
g324
Ntp2209
Rp2210
(dp2211
g1502
g1510
sg1503
g1511
sg348
S'c:/marmalade/7.5/s3e/h/std/c++/iostream'
p2212
sbsS'png.h'
p2213
g322
(g1498
g324
Ntp2214
Rp2215
(dp2216
g1502
g1071
sg1503
(lp2217
g1065
ag1067
asg348
g1069
sbsS'stddef.h'
p2218
g322
(g1498
g324
Ntp2219
Rp2220
(dp2221
g1502
g1510
sg1503
g1532
sg348
S'c:/marmalade/7.5/s3e/h/std/stddef.h'
p2222
sbsS'setjmp_win32.h'
p2223
g322
(g1498
g324
Ntp2224
Rp2225
(dp2226
g1502
g1510
sg1503
g1532
sg348
S'c:/marmalade/7.5/s3e/h/std/setjmp_win32.h'
p2227
sbsS'IwGxPrint.h'
p2228
g322
(g1498
g324
Ntp2229
Rp2230
(dp2231
g1502
g1307
sg1503
g1632
sg348
g1316
sbsS'iwgx_public.defines.txt'
p2232
g322
(g1498
g324
Ntp2233
Rp2234
(dp2235
g1502
g1307
sg1503
g1632
sg348
g1330
sbsS'streambuf.h'
p2236
g322
(g1498
g324
Ntp2237
Rp2238
(dp2239
g1502
g1510
sg1503
g1511
sg348
S'c:/marmalade/7.5/s3e/h/std/c++/streambuf.h'
p2240
sbsS'IwGeomFPlane.h'
p2241
g322
(g1498
g324
Ntp2242
Rp2243
(dp2244
g1502
g1207
sg1503
g1560
sg348
g1271
sbsS'wchar.h'
p2245
g322
(g1498
g324
Ntp2246
Rp2247
(dp2248
g1502
g1510
sg1503
g1532
sg348
S'c:/marmalade/7.5/s3e/h/std/wchar.h'
p2249
sbsS's3eCameraCapture.h'
p2250
g322
(g1498
g324
Ntp2251
Rp2252
(dp2253
g1502
g1510
sg1503
g1715
sg348
S'c:/marmalade/7.5/s3e/h/ext/s3eCameraCapture.h'
p2254
sbsS'eglext.h'
p2255
g322
(g1498
g324
Ntp2256
Rp2257
(dp2258
g1502
g1510
sg1503
g1844
sg348
S'c:/marmalade/7.5/s3e/h/EGL/eglext.h'
p2259
sbsS'IwResHandlerImage.h'
p2260
g322
(g1498
g324
Ntp2261
Rp2262
(dp2263
g1502
g1283
sg1503
g2046
sg348
g1301
sbsS'strstream.h'
p2264
g322
(g1498
g324
Ntp2265
Rp2266
(dp2267
g1502
g1510
sg1503
g1511
sg348
S'c:/marmalade/7.5/s3e/h/std/c++/strstream.h'
p2268
sbsS'tiniconv.h'
p2269
g322
(g1498
g324
Ntp2270
Rp2271
(dp2272
g1502
g1119
sg1503
g1955
sg348
g1120
sbsS'IwGLExt.h'
p2273
g322
(g1498
g324
Ntp2274
Rp2275
(dp2276
g1502
g1164
sg1503
g1520
sg348
g1167
sbsS'app.icf'
p2277
g322
(g1498
g324
Ntp2278
Rp2279
(dp2280
g1502
(dp2281
sg1503
g4
sg348
S'd:/School/cs115/AmazingMaze/data/app.icf'
p2282
sbsS'IwClassFactory.h'
p2283
g322
(g1498
g324
Ntp2284
Rp2285
(dp2286
g1502
g1371
sg1503
g1539
sg348
g1388
sbsS'file.h'
p2287
g322
(g1498
g324
Ntp2288
Rp2289
(dp2290
g1502
g1510
sg1503
g1646
sg348
S'c:/marmalade/7.5/s3e/h/std/sys/file.h'
p2291
sbsS'cstring'
p2292
g322
(g1498
g324
Ntp2293
Rp2294
(dp2295
g1502
g1510
sg1503
g1511
sg348
S'c:/marmalade/7.5/s3e/h/std/c++/cstring'
p2296
sbsS'iwutil.config.txt'
p2297
g322
(g1498
g324
Ntp2298
Rp2299
(dp2300
g1502
g1371
sg1503
g1539
sg348
g1404
sbsS's3eSMS.h'
p2301
g322
(g1498
g324
Ntp2302
Rp2303
(dp2304
g1502
g1510
sg1503
g1715
sg348
S'c:/marmalade/7.5/s3e/h/ext/s3eSMS.h'
p2305
sbsS'limits.h'
p2306
g322
(g1498
g324
Ntp2307
Rp2308
(dp2309
g1502
g1510
sg1503
g1532
sg348
S'c:/marmalade/7.5/s3e/h/std/limits.h'
p2310
sbsS'iwgl.config.txt'
p2311
g322
(g1498
g324
Ntp2312
Rp2313
(dp2314
g1502
g1164
sg1503
g1520
sg348
g1165
sbsS'IwMaterial.h'
p2315
g322
(g1498
g324
Ntp2316
Rp2317
(dp2318
g1502
g1307
sg1503
g1632
sg348
g1336
sbsS'PVRTexTool_interface.cpp'
p2319
g322
(g1498
g324
Ntp2320
Rp2321
(dp2322
g1502
g1130
sg1503
g2120
sg348
g1131
sbsS'IwGxSurface.h'
p2323
g322
(g1498
g324
Ntp2324
Rp2325
(dp2326
g1502
g1307
sg1503
g1632
sg348
g1324
sbsS's3eSocket.h'
p2327
g322
(g1498
g324
Ntp2328
Rp2329
(dp2330
g1502
g1510
sg1503
g1526
sg348
S'c:/marmalade/7.5/s3e/h/s3eSocket.h'
p2331
sbsS'IwAutoFile.h'
p2332
g322
(g1498
g324
Ntp2333
Rp2334
(dp2335
g1502
g1371
sg1503
g1539
sg348
g1432
sbsS'ipc.h'
p2336
g322
(g1498
g324
Ntp2337
Rp2338
(dp2339
g1502
g1510
sg1503
g1646
sg348
S'c:/marmalade/7.5/s3e/h/std/sys/ipc.h'
p2340
sbsS'poll_1.h'
p2341
g322
(g1498
g324
Ntp2342
Rp2343
(dp2344
g1502
g1510
sg1503
g1646
sg348
S'c:/marmalade/7.5/s3e/h/std/sys/poll.h'
p2345
sbsS's3eThread.h'
p2346
g322
(g1498
g324
Ntp2347
Rp2348
(dp2349
g1502
g1510
sg1503
g1526
sg348
S'c:/marmalade/7.5/s3e/h/s3eThread.h'
p2350
sbsS'ucontext.h'
p2351
g322
(g1498
g324
Ntp2352
Rp2353
(dp2354
g1502
g1510
sg1503
g1532
sg348
S'c:/marmalade/7.5/s3e/h/std/ucontext.h'
p2355
sbsS'time.h'
p2356
g322
(g1498
g324
Ntp2357
Rp2358
(dp2359
g1502
g1510
sg1503
g1532
sg348
S'c:/marmalade/7.5/s3e/h/std/time.h'
p2360
sbsS'jchuff.h'
p2361
g322
(g1498
g324
Ntp2362
Rp2363
(dp2364
g1502
g1085
sg1503
g1590
sg348
g1102
sbsS's3eSoundRecord.h'
p2365
g322
(g1498
g324
Ntp2366
Rp2367
(dp2368
g1502
g1510
sg1503
g1526
sg348
S'c:/marmalade/7.5/s3e/h/s3eSoundRecord.h'
p2369
sbsS'IwFibre.h'
p2370
g322
(g1498
g324
Ntp2371
Rp2372
(dp2373
g1502
g1371
sg1503
g1539
sg348
g1457
sbsS's3eVersion.h'
p2374
g322
(g1498
g324
Ntp2375
Rp2376
(dp2377
g1502
g1510
sg1503
g1526
sg348
S'c:/marmalade/7.5/s3e/h/s3eVersion.h'
p2378
sbsS'IwGxFontGlyph.h'
p2379
g322
(g1498
g324
Ntp2380
Rp2381
(dp2382
g1502
g1185
sg1503
g1504
sg348
g1183
sbsS's3eTypes.h'
p2383
g322
(g1498
g324
Ntp2384
Rp2385
(dp2386
g1502
g1510
sg1503
g1526
sg348
S'c:/marmalade/7.5/s3e/h/s3eTypes.h'
p2387
sbsS'signal_2.h'
p2388
g322
(g1498
g324
Ntp2389
Rp2390
(dp2391
g1502
g1510
sg1503
g1511
sg348
S'c:/marmalade/7.5/s3e/h/std/c++/signal.h'
p2392
sbsS'termios.h'
p2393
g322
(g1498
g324
Ntp2394
Rp2395
(dp2396
g1502
g1510
sg1503
g1532
sg348
S'c:/marmalade/7.5/s3e/h/std/termios.h'
p2397
sbsS'iw2dscenegraph.mkf'
p2398
g322
(g1498
g324
Ntp2399
Rp2400
(dp2401
g1502
g1156
sg1503
g1755
sg348
g1154
sbsS'slist'
p2402
g322
(g1498
g324
Ntp2403
Rp2404
(dp2405
g1502
g1510
sg1503
g1511
sg348
S'c:/marmalade/7.5/s3e/h/std/c++/slist'
p2406
sbsS'cstdlib'
p2407
g322
(g1498
g324
Ntp2408
Rp2409
(dp2410
g1502
g1510
sg1503
g1511
sg348
S'c:/marmalade/7.5/s3e/h/std/c++/cstdlib'
p2411
sbsS's3eLocation.h'
p2412
g322
(g1498
g324
Ntp2413
Rp2414
(dp2415
g1502
g1510
sg1503
g1526
sg348
S'c:/marmalade/7.5/s3e/h/s3eLocation.h'
p2416
sbsS'IwMemBucketHelpers.h'
p2417
g322
(g1498
g324
Ntp2418
Rp2419
(dp2420
g1502
g1371
sg1503
g1539
sg348
g1408
sbsS's3eHash.h'
p2421
g322
(g1498
g324
Ntp2422
Rp2423
(dp2424
g1502
g1510
sg1503
g1526
sg348
S'c:/marmalade/7.5/s3e/h/s3eHash.h'
p2425
sbsS'IwGeomFMat.h'
p2426
g322
(g1498
g324
Ntp2427
Rp2428
(dp2429
g1502
g1207
sg1503
g1560
sg348
g1235
sbsS'type_traits.h'
p2430
g322
(g1498
g324
Ntp2431
Rp2432
(dp2433
g1502
g1510
sg1503
g1511
sg348
S'c:/marmalade/7.5/s3e/h/std/c++/type_traits.h'
p2434
sbsS's3eAtomic.h'
p2435
g322
(g1498
g324
Ntp2436
Rp2437
(dp2438
g1502
g1510
sg1503
g1526
sg348
S'c:/marmalade/7.5/s3e/h/s3eAtomic.h'
p2439
sbsS'IwMenu.h'
p2440
g322
(g1498
g324
Ntp2441
Rp2442
(dp2443
g1502
g1371
sg1503
g1539
sg348
g1461
sbsS'IwResHandlerITX.h'
p2444
g322
(g1498
g324
Ntp2445
Rp2446
(dp2447
g1502
g1283
sg1503
g2046
sg348
g1281
sbsS'IwArray.h'
p2448
g322
(g1498
g324
Ntp2449
Rp2450
(dp2451
g1502
g1371
sg1503
g1539
sg348
g1459
sbsS'IwUTF8.h'
p2452
g322
(g1498
g324
Ntp2453
Rp2454
(dp2455
g1502
g1371
sg1503
g1539
sg348
g1402
sbsS'math_rvct.h'
p2456
g322
(g1498
g324
Ntp2457
Rp2458
(dp2459
g1502
g1510
sg1503
g1532
sg348
S'c:/marmalade/7.5/s3e/h/std/math_rvct.h'
p2460
sbsS'IwUtil.h'
p2461
g322
(g1498
g324
Ntp2462
Rp2463
(dp2464
g1502
g1371
sg1503
g1539
sg348
g1443
sbsS'IwFColour.h'
p2465
g322
(g1498
g324
Ntp2466
Rp2467
(dp2468
g1502
g1307
sg1503
g1632
sg348
g1342
sbsS'wctype.h'
p2469
g322
(g1498
g324
Ntp2470
Rp2471
(dp2472
g1502
g1510
sg1503
g1532
sg348
S'c:/marmalade/7.5/s3e/h/std/wctype.h'
p2473
sbsS'cstddef'
p2474
g322
(g1498
g324
Ntp2475
Rp2476
(dp2477
g1502
g1510
sg1503
g1511
sg348
S'c:/marmalade/7.5/s3e/h/std/c++/cstddef'
p2478
sbsS'assert.h'
p2479
g322
(g1498
g324
Ntp2480
Rp2481
(dp2482
g1502
g1510
sg1503
g1532
sg348
S'c:/marmalade/7.5/s3e/h/std/assert.h'
p2483
sbsS'mman.h'
p2484
g322
(g1498
g324
Ntp2485
Rp2486
(dp2487
g1502
g1510
sg1503
g1646
sg348
S'c:/marmalade/7.5/s3e/h/std/sys/mman.h'
p2488
sbsS'IwRandom.h'
p2489
g322
(g1498
g324
Ntp2490
Rp2491
(dp2492
g1502
g1371
sg1503
g1539
sg348
g1398
sbsS'libgen.h'
p2493
g322
(g1498
g324
Ntp2494
Rp2495
(dp2496
g1502
g1510
sg1503
g1532
sg348
S'c:/marmalade/7.5/s3e/h/std/libgen.h'
p2497
sbsS'utsname.h'
p2498
g322
(g1498
g324
Ntp2499
Rp2500
(dp2501
g1502
g1510
sg1503
g1646
sg348
S'c:/marmalade/7.5/s3e/h/std/sys/utsname.h'
p2502
sbsS'wait.h'
p2503
g322
(g1498
g324
Ntp2504
Rp2505
(dp2506
g1502
g1510
sg1503
g1646
sg348
S'c:/marmalade/7.5/s3e/h/std/sys/wait.h'
p2507
sbsS'param.h'
p2508
g322
(g1498
g324
Ntp2509
Rp2510
(dp2511
g1502
g1510
sg1503
g1646
sg348
S'c:/marmalade/7.5/s3e/h/std/sys/param.h'
p2512
sbsS'IwDivide.h'
p2513
g322
(g1498
g324
Ntp2514
Rp2515
(dp2516
g1502
g1371
sg1503
g1539
sg348
g1378
sbsS'Iw2DSceneGraphCore.cpp'
p2517
g322
(g1498
g324
Ntp2518
Rp2519
(dp2520
g1502
g1364
sg1503
(lp2521
S"'Marmalade Studio'"
p2522
ag1357
asg348
g1365
sbsS'IwResManager.h'
p2523
g322
(g1498
g324
Ntp2524
Rp2525
(dp2526
g1502
g1283
sg1503
g2046
sg348
g1290
sbsS'ostream'
p2527
g322
(g1498
g324
Ntp2528
Rp2529
(dp2530
g1502
g1510
sg1503
g1511
sg348
S'c:/marmalade/7.5/s3e/h/std/c++/ostream'
p2531
sbsS'cwctype'
p2532
g322
(g1498
g324
Ntp2533
Rp2534
(dp2535
g1502
g1510
sg1503
g1511
sg348
S'c:/marmalade/7.5/s3e/h/std/c++/cwctype'
p2536
sbsS'set'
p2537
g322
(g1498
g324
Ntp2538
Rp2539
(dp2540
g1502
g1510
sg1503
g1511
sg348
S'c:/marmalade/7.5/s3e/h/std/c++/set'
p2541
sbsS'IwGeomSQuat.h'
p2542
g322
(g1498
g324
Ntp2543
Rp2544
(dp2545
g1502
g1207
sg1503
g1560
sg348
g1231
sbsS'locale'
p2546
g322
(g1498
g324
Ntp2547
Rp2548
(dp2549
g1502
g1510
sg1503
g1511
sg348
S'c:/marmalade/7.5/s3e/h/std/c++/locale'
p2550
sbsS'cstdio'
p2551
g322
(g1498
g324
Ntp2552
Rp2553
(dp2554
g1502
g1510
sg1503
g1511
sg348
S'c:/marmalade/7.5/s3e/h/std/c++/cstdio'
p2555
sbsS'cdjpeg.h'
p2556
g322
(g1498
g324
Ntp2557
Rp2558
(dp2559
g1502
g1085
sg1503
g1590
sg348
g1104
sbsS'IwList.h'
p2560
g322
(g1498
g324
Ntp2561
Rp2562
(dp2563
g1502
g1371
sg1503
g1539
sg348
g1430
sbsS'inttypes.h'
p2564
g322
(g1498
g324
Ntp2565
Rp2566
(dp2567
g1502
g1510
sg1503
g1532
sg348
S'c:/marmalade/7.5/s3e/h/std/inttypes.h'
p2568
sbsS'dirent.h'
p2569
g322
(g1498
g324
Ntp2570
Rp2571
(dp2572
g1502
g1510
sg1503
g1532
sg348
S'c:/marmalade/7.5/s3e/h/std/dirent.h'
p2573
sbsS'IwGeomVec3.h'
p2574
g322
(g1498
g324
Ntp2575
Rp2576
(dp2577
g1502
g1207
sg1503
g1560
sg348
g1225
sbsS'transupp.h'
p2578
g322
(g1498
g324
Ntp2579
Rp2580
(dp2581
g1502
g1085
sg1503
g1590
sg348
g1090
sbsS'IwMath.h'
p2582
g322
(g1498
g324
Ntp2583
Rp2584
(dp2585
g1502
g1371
sg1503
g1539
sg348
g1372
sbsS'IwGeomQuat.h'
p2586
g322
(g1498
g324
Ntp2587
Rp2588
(dp2589
g1502
g1207
sg1503
g1560
sg348
g1275
sbsS'glplatform.h'
p2590
g322
(g1498
g324
Ntp2591
Rp2592
(dp2593
g1502
g1510
sg1503
g2061
sg348
S'c:/marmalade/7.5/s3e/h/GLES/glplatform.h'
p2594
sbsS's3e-default.mkf'
p2595
g322
(g1498
g324
Ntp2596
Rp2597
(dp2598
g1502
g1142
sg1503
(lp2599
g1138
asg348
g1140
sbsS'bitset'
p2600
g322
(g1498
g324
Ntp2601
Rp2602
(dp2603
g1502
g1510
sg1503
g1511
sg348
S'c:/marmalade/7.5/s3e/h/std/c++/bitset'
p2604
sbsS'alloca.h'
p2605
g322
(g1498
g324
Ntp2606
Rp2607
(dp2608
g1502
g1510
sg1503
g1532
sg348
S'c:/marmalade/7.5/s3e/h/std/alloca.h'
p2609
sbsS'IwResHandler.h'
p2610
g322
(g1498
g324
Ntp2611
Rp2612
(dp2613
g1502
g1283
sg1503
g2046
sg348
g1299
sbsS'IwResHandlerMTL.h'
p2614
g322
(g1498
g324
Ntp2615
Rp2616
(dp2617
g1502
g1307
sg1503
g1632
sg348
g1314
sbsS'IwRuntime.h'
p2618
g322
(g1498
g324
Ntp2619
Rp2620
(dp2621
g1502
g1371
sg1503
g1539
sg348
g1422
sbsS'limits'
p2622
g322
(g1498
g324
Ntp2623
Rp2624
(dp2625
g1502
g1510
sg1503
g1511
sg348
S'c:/marmalade/7.5/s3e/h/std/c++/limits'
p2626
sbsS'IwGeomBBox.h'
p2627
g322
(g1498
g324
Ntp2628
Rp2629
(dp2630
g1502
g1207
sg1503
g1560
sg348
g1265
sbsS's3eContacts.h'
p2631
g322
(g1498
g324
Ntp2632
Rp2633
(dp2634
g1502
g1510
sg1503
g1526
sg348
S'c:/marmalade/7.5/s3e/h/s3eContacts.h'
p2635
sbsS's3eLicense.h'
p2636
g322
(g1498
g324
Ntp2637
Rp2638
(dp2639
g1502
g1510
sg1503
g1526
sg348
S'c:/marmalade/7.5/s3e/h/s3eLicense.h'
p2640
sbsS'iwgx.config.txt'
p2641
g322
(g1498
g324
Ntp2642
Rp2643
(dp2644
g1502
g1307
sg1503
g1632
sg348
g1349
sbsS'IwTextParser.h'
p2645
g322
(g1498
g324
Ntp2646
Rp2647
(dp2648
g1502
g1371
sg1503
g1539
sg348
g1451
sbsS's3eTimer.h'
p2649
g322
(g1498
g324
Ntp2650
Rp2651
(dp2652
g1502
g1510
sg1503
g1526
sg348
S'c:/marmalade/7.5/s3e/h/s3eTimer.h'
p2653
sbsS'IwGeomVec.h'
p2654
g322
(g1498
g324
Ntp2655
Rp2656
(dp2657
g1502
g1207
sg1503
g1560
sg348
g1251
sbsS'IwSerialise.h'
p2658
g322
(g1498
g324
Ntp2659
Rp2660
(dp2661
g1502
g1371
sg1503
g1539
sg348
g1469
sbsS'cstdarg'
p2662
g322
(g1498
g324
Ntp2663
Rp2664
(dp2665
g1502
g1510
sg1503
g1511
sg348
S'c:/marmalade/7.5/s3e/h/std/c++/cstdarg'
p2666
sbsS'gl2ext.h'
p2667
g322
(g1498
g324
Ntp2668
Rp2669
(dp2670
g1502
g1510
sg1503
g1747
sg348
S'c:/marmalade/7.5/s3e/h/GLES2/gl2ext.h'
p2671
sbsS'IwChar.h'
p2672
g322
(g1498
g324
Ntp2673
Rp2674
(dp2675
g1502
g1371
sg1503
g1539
sg348
g1396
sbsS's3eSound.h'
p2676
g322
(g1498
g324
Ntp2677
Rp2678
(dp2679
g1502
g1510
sg1503
g1526
sg348
S'c:/marmalade/7.5/s3e/h/s3eSound.h'
p2680
sbsS'IwOptimiseThumb.h'
p2681
g322
(g1498
g324
Ntp2682
Rp2683
(dp2684
g1502
g1371
sg1503
g1539
sg348
g1438
sbsS'exception.h'
p2685
g322
(g1498
g324
Ntp2686
Rp2687
(dp2688
g1502
g1510
sg1503
g1511
sg348
S'c:/marmalade/7.5/s3e/h/std/c++/exception.h'
p2689
sbsS'iwgeom.config.txt'
p2690
g322
(g1498
g324
Ntp2691
Rp2692
(dp2693
g1502
g1207
sg1503
g1560
sg348
g1273
sbsS'iwgx.mkf'
p2694
g322
(g1498
g324
Ntp2695
Rp2696
(dp2697
g1502
g1348
sg1503
g1632
sg348
g1346
sbsS'gl.h'
p2698
g322
(g1498
g324
Ntp2699
Rp2700
(dp2701
g1502
g1510
sg1503
g2061
sg348
S'c:/marmalade/7.5/s3e/h/GLES/gl.h'
p2702
sbsS'zlib.h'
p2703
g322
(g1498
g324
Ntp2704
Rp2705
(dp2706
g1502
g1476
sg1503
g2162
sg348
g1477
sbsS'temp_defines_release.h'
p2707
g322
(g1498
g324
Ntp2708
Rp2709
(dp2710
g1502
(lp2711
sg1503
(lp2712
S"'generated files'"
p2713
asg348
S'd:/School/cs115/AmazingMaze/build_amazingmaze_vc12/temp_defines_release.h'
p2714
sbsS'iwgl.mkf'
p2715
g322
(g1498
g324
Ntp2716
Rp2717
(dp2718
g1502
g1161
sg1503
g1520
sg348
g1159
sbsS'IwColour.h'
p2719
g322
(g1498
g324
Ntp2720
Rp2721
(dp2722
g1502
g1307
sg1503
g1632
sg348
g1351
sbsS's3eLibrary.h'
p2723
g322
(g1498
g324
Ntp2724
Rp2725
(dp2726
g1502
g1510
sg1503
g1715
sg348
S'c:/marmalade/7.5/s3e/h/ext/s3eLibrary.h'
p2727
sbsS'types.h'
p2728
g322
(g1498
g324
Ntp2729
Rp2730
(dp2731
g1502
g1510
sg1503
g1646
sg348
S'c:/marmalade/7.5/s3e/h/std/sys/types.h'
p2732
sbsS'ifaddrs.h'
p2733
g322
(g1498
g324
Ntp2734
Rp2735
(dp2736
g1502
g1510
sg1503
g1532
sg348
S'c:/marmalade/7.5/s3e/h/std/ifaddrs.h'
p2737
sbsS'strstream'
p2738
g322
(g1498
g324
Ntp2739
Rp2740
(dp2741
g1502
g1510
sg1503
g1511
sg348
S'c:/marmalade/7.5/s3e/h/std/c++/strstream'
p2742
sbsS'IwTween.cpp'
p2743
g322
(g1498
g324
Ntp2744
Rp2745
(dp2746
g1502
g1486
sg1503
g1998
sg348
g1487
sbsS'exception'
p2747
g322
(g1498
g324
Ntp2748
Rp2749
(dp2750
g1502
g1510
sg1503
g1511
sg348
S'c:/marmalade/7.5/s3e/h/std/c++/exception'
p2751
sbsS'rlocks.h'
p2752
g322
(g1498
g324
Ntp2753
Rp2754
(dp2755
g1502
g1510
sg1503
g1511
sg348
S'c:/marmalade/7.5/s3e/h/std/c++/rlocks.h'
p2756
sbsS'ioctl.h'
p2757
g322
(g1498
g324
Ntp2758
Rp2759
(dp2760
g1502
g1510
sg1503
g1646
sg348
S'c:/marmalade/7.5/s3e/h/std/sys/ioctl.h'
p2761
sbsS'rope'
p2762
g322
(g1498
g324
Ntp2763
Rp2764
(dp2765
g1502
g1510
sg1503
g1511
sg348
S'c:/marmalade/7.5/s3e/h/std/c++/rope'
p2766
sbsS'jinclude.h'
p2767
g322
(g1498
g324
Ntp2768
Rp2769
(dp2770
g1502
g1085
sg1503
g1590
sg348
g1092
sbsS'IwEvent.h'
p2771
g322
(g1498
g324
Ntp2772
Rp2773
(dp2774
g1502
g1371
sg1503
g1539
sg348
g1455
sbsS'IwOptimiseSize.h'
p2775
g322
(g1498
g324
Ntp2776
Rp2777
(dp2778
g1502
g1371
sg1503
g1539
sg348
g1420
sbsS'iwgxfont_public.defines.txt'
p2779
g322
(g1498
g324
Ntp2780
Rp2781
(dp2782
g1502
g1185
sg1503
g1504
sg348
g1201
sbsS'iconv.h'
p2783
g322
(g1498
g324
Ntp2784
Rp2785
(dp2786
g1502
g1510
sg1503
g1532
sg348
S'c:/marmalade/7.5/s3e/h/std/iconv.h'
p2787
sbsS'sendfile.h'
p2788
g322
(g1498
g324
Ntp2789
Rp2790
(dp2791
g1502
g1510
sg1503
g1646
sg348
S'c:/marmalade/7.5/s3e/h/std/sys/sendfile.h'
p2792
sbsS'IwGeomSphere.h'
p2793
g322
(g1498
g324
Ntp2794
Rp2795
(dp2796
g1502
g1207
sg1503
g1560
sg348
g1208
sbsS'tiniconv.mkf'
p2797
g322
(g1498
g324
Ntp2798
Rp2799
(dp2800
g1502
g1116
sg1503
g1955
sg348
g1114
sbsS'IwResManagerClass.h'
p2801
g322
(g1498
g324
Ntp2802
Rp2803
(dp2804
g1502
g1283
sg1503
g2046
sg348
g1286
sbsS'jdct.h'
p2805
g322
(g1498
g324
Ntp2806
Rp2807
(dp2808
g1502
g1085
sg1503
g1590
sg348
g1096
sbsS'cctype'
p2809
g322
(g1498
g324
Ntp2810
Rp2811
(dp2812
g1502
g1510
sg1503
g1511
sg348
S'c:/marmalade/7.5/s3e/h/std/c++/cctype'
p2813
sbsS's3eConfig.h'
p2814
g322
(g1498
g324
Ntp2815
Rp2816
(dp2817
g1502
g1510
sg1503
g1526
sg348
S'c:/marmalade/7.5/s3e/h/s3eConfig.h'
p2818
sbsS'IwHashString.h'
p2819
g322
(g1498
g324
Ntp2820
Rp2821
(dp2822
g1502
g1371
sg1503
g1539
sg348
g1436
sbsS'stat.h'
p2823
g322
(g1498
g324
Ntp2824
Rp2825
(dp2826
g1502
g1510
sg1503
g1646
sg348
S'c:/marmalade/7.5/s3e/h/std/sys/stat.h'
p2827
sbsS'byteswap.h'
p2828
g322
(g1498
g324
Ntp2829
Rp2830
(dp2831
g1502
g1510
sg1503
g1532
sg348
S'c:/marmalade/7.5/s3e/h/std/byteswap.h'
p2832
sbsS'iwresmanager.mkf'
p2833
g322
(g1498
g324
Ntp2834
Rp2835
(dp2836
g1502
g1294
sg1503
g2046
sg348
g1292
sbsS'IwUtilInitTerm.h'
p2837
g322
(g1498
g324
Ntp2838
Rp2839
(dp2840
g1502
g1371
sg1503
g1539
sg348
g1465
sbsS'pthread_1.h'
p2841
g322
(g1498
g324
Ntp2842
Rp2843
(dp2844
g1502
g1510
sg1503
g1511
sg348
S'c:/marmalade/7.5/s3e/h/std/c++/pthread.h'
p2845
sbsS'iw2d.mkf'
p2846
g322
(g1498
g324
Ntp2847
Rp2848
(dp2849
g1502
g1180
sg1503
g1595
sg348
g1178
sbsS'complex'
p2850
g322
(g1498
g324
Ntp2851
Rp2852
(dp2853
g1502
g1510
sg1503
g1511
sg348
S'c:/marmalade/7.5/s3e/h/std/c++/complex'
p2854
sbsS's3e.icf'
p2855
g322
(g1498
g324
Ntp2856
Rp2857
(dp2858
g1502
g1510
sg1503
g1526
sg348
S'c:/marmalade/7.5/s3e/s3e.icf'
p2859
sbsS'IwVariableBitField.h'
p2860
g322
(g1498
g324
Ntp2861
Rp2862
(dp2863
g1502
g1371
sg1503
g1539
sg348
g1434
sbsS'sem.h'
p2864
g322
(g1498
g324
Ntp2865
Rp2866
(dp2867
g1502
g1510
sg1503
g1646
sg348
S'c:/marmalade/7.5/s3e/h/std/sys/sem.h'
p2868
sbsS'IwGxFontState.h'
p2869
g322
(g1498
g324
Ntp2870
Rp2871
(dp2872
g1502
g1185
sg1503
g1504
sg348
g1190
sbsS'stdio.h'
p2873
g322
(g1498
g324
Ntp2874
Rp2875
(dp2876
g1502
g1510
sg1503
g1532
sg348
S'c:/marmalade/7.5/s3e/h/std/stdio.h'
p2877
sbsS'jmemsys.h'
p2878
g322
(g1498
g324
Ntp2879
Rp2880
(dp2881
g1502
g1085
sg1503
g1590
sg348
g1098
sbsS'ios'
p2882
g322
(g1498
g324
Ntp2883
Rp2884
(dp2885
g1502
g1510
sg1503
g1511
sg348
S'c:/marmalade/7.5/s3e/h/std/c++/ios'
p2886
sbsS'IwTween.h'
p2887
g322
(g1498
g324
Ntp2888
Rp2889
(dp2890
g1502
g1486
sg1503
g1998
sg348
g1484
sbsS'IwGeomFVec4.h'
p2891
g322
(g1498
g324
Ntp2892
Rp2893
(dp2894
g1502
g1207
sg1503
g1560
sg348
g1255
sbsS'stack'
p2895
g322
(g1498
g324
Ntp2896
Rp2897
(dp2898
g1502
g1510
sg1503
g1511
sg348
S'c:/marmalade/7.5/s3e/h/std/c++/stack'
p2899
sbsS'new.h'
p2900
g322
(g1498
g324
Ntp2901
Rp2902
(dp2903
g1502
g1510
sg1503
g1511
sg348
S'c:/marmalade/7.5/s3e/h/std/c++/new.h'
p2904
sbsS's3eEMail.h'
p2905
g322
(g1498
g324
Ntp2906
Rp2907
(dp2908
g1502
g1510
sg1503
g1715
sg348
S'c:/marmalade/7.5/s3e/h/ext/s3eEMail.h'
p2909
sbsS's3eVideo.h'
p2910
g322
(g1498
g324
Ntp2911
Rp2912
(dp2913
g1502
g1510
sg1503
g1526
sg348
S'c:/marmalade/7.5/s3e/h/s3eVideo.h'
p2914
sbsS'pngconf.h'
p2915
g322
(g1498
g324
Ntp2916
Rp2917
(dp2918
g1502
g1071
sg1503
g2217
sg348
g1072
sbsS'pwd.h'
p2919
g322
(g1498
g324
Ntp2920
Rp2921
(dp2922
g1502
g1510
sg1503
g1532
sg348
S'c:/marmalade/7.5/s3e/h/std/pwd.h'
p2923
sbsS'gl3.h'
p2924
g322
(g1498
g324
Ntp2925
Rp2926
(dp2927
g1502
g1510
sg1503
g1812
sg348
S'c:/marmalade/7.5/s3e/h/GLES3/gl3.h'
p2928
sbsS'IwClip.h'
p2929
g322
(g1498
g324
Ntp2930
Rp2931
(dp2932
g1502
g1307
sg1503
g1632
sg348
g1322
sbsS'iwresmanager.config.txt'
p2933
g322
(g1498
g324
Ntp2934
Rp2935
(dp2936
g1502
g1283
sg1503
g2046
sg348
g1295
sbsS'IwGxShaderTechnique.h'
p2937
g322
(g1498
g324
Ntp2938
Rp2939
(dp2940
g1502
g1307
sg1503
g1632
sg348
g1334
sbsS'IwCore.h'
p2941
g322
(g1498
g324
Ntp2942
Rp2943
(dp2944
g1502
g1371
sg1503
g1539
sg348
g1376
sbsS'cfloat'
p2945
g322
(g1498
g324
Ntp2946
Rp2947
(dp2948
g1502
g1510
sg1503
g1511
sg348
S'c:/marmalade/7.5/s3e/h/std/c++/cfloat'
p2949
sbsS'IwGeomMat2D.h'
p2950
g322
(g1498
g324
Ntp2951
Rp2952
(dp2953
g1502
g1207
sg1503
g1560
sg348
g1239
sbsS'IwAllocator.h'
p2954
g322
(g1498
g324
Ntp2955
Rp2956
(dp2957
g1502
g1371
sg1503
g1539
sg348
g1406
sbsS'IwPath.h'
p2958
g322
(g1498
g324
Ntp2959
Rp2960
(dp2961
g1502
g1371
sg1503
g1539
sg348
g1426
sbsS'iwgxfont.mkf'
p2962
g322
(g1498
g324
Ntp2963
Rp2964
(dp2965
g1502
g1196
sg1503
g1504
sg348
g1194
sbsS'IwTexture.h'
p2966
g322
(g1498
g324
Ntp2967
Rp2968
(dp2969
g1502
g1307
sg1503
g1632
sg348
g1310
sbsS'IwGeomVec.h.tpl'
p2970
g322
(g1498
g324
Ntp2971
Rp2972
(dp2973
g1502
g1207
sg1503
g1560
sg348
g1249
sbsS's3eAccelerometer.h'
p2974
g322
(g1498
g324
Ntp2975
Rp2976
(dp2977
g1502
g1510
sg1503
g1526
sg348
S'c:/marmalade/7.5/s3e/h/s3eAccelerometer.h'
p2978
sbsS'setjmp.h'
p2979
g322
(g1498
g324
Ntp2980
Rp2981
(dp2982
g1502
g1510
sg1503
g1532
sg348
S'c:/marmalade/7.5/s3e/h/std/setjmp.h'
p2983
sbsS'IwFile.h'
p2984
g322
(g1498
g324
Ntp2985
Rp2986
(dp2987
g1502
g1371
sg1503
g1539
sg348
g1447
sbsS'IwTextParseable.h'
p2988
g322
(g1498
g324
Ntp2989
Rp2990
(dp2991
g1502
g1371
sg1503
g1539
sg348
g1394
sbsS'istream.h'
p2992
g322
(g1498
g324
Ntp2993
Rp2994
(dp2995
g1502
g1510
sg1503
g1511
sg348
S'c:/marmalade/7.5/s3e/h/std/c++/istream.h'
p2996
sbsS'stdint.h'
p2997
g322
(g1498
g324
Ntp2998
Rp2999
(dp3000
g1502
g1510
sg1503
g1532
sg348
S'c:/marmalade/7.5/s3e/h/std/stdint.h'
p3001
sbsS'semaphore.h'
p3002
g322
(g1498
g324
Ntp3003
Rp3004
(dp3005
g1502
g1510
sg1503
g1532
sg348
S'c:/marmalade/7.5/s3e/h/std/semaphore.h'
p3006
sbsS'ctime'
p3007
g322
(g1498
g324
Ntp3008
Rp3009
(dp3010
g1502
g1510
sg1503
g1511
sg348
S'c:/marmalade/7.5/s3e/h/std/c++/ctime'
p3011
sbsS'sstream'
p3012
g322
(g1498
g324
Ntp3013
Rp3014
(dp3015
g1502
g1510
sg1503
g1511
sg348
S'c:/marmalade/7.5/s3e/h/std/c++/sstream'
p3016
sbsS'IwGeomFBBox.h'
p3017
g322
(g1498
g324
Ntp3018
Rp3019
(dp3020
g1502
g1207
sg1503
g1560
sg348
g1233
sbsS'IwDebugPrim.h'
p3021
g322
(g1498
g324
Ntp3022
Rp3023
(dp3024
g1502
g1307
sg1503
g1632
sg348
g1305
sbsS'IwGxFontContainer.h'
p3025
g322
(g1498
g324
Ntp3026
Rp3027
(dp3028
g1502
g1185
sg1503
g1504
sg348
g1192
sbsS'IwGeomSVec3.h'
p3029
g322
(g1498
g324
Ntp3030
Rp3031
(dp3032
g1502
g1207
sg1503
g1560
sg348
g1210
sbsS'iw2dscenegraphcore.mkf'
p3033
g322
(g1498
g324
Ntp3034
Rp3035
(dp3036
g1502
g1361
sg1503
g2521
sg348
g1359
sbsS'cassert'
p3037
g322
(g1498
g324
Ntp3038
Rp3039
(dp3040
g1502
g1510
sg1503
g1511
sg348
S'c:/marmalade/7.5/s3e/h/std/c++/cassert'
p3041
sbsS'IwGeomFVec3.h'
p3042
g322
(g1498
g324
Ntp3043
Rp3044
(dp3045
g1502
g1207
sg1503
g1560
sg348
g1269
sbsS'streambuf'
p3046
g322
(g1498
g324
Ntp3047
Rp3048
(dp3049
g1502
g1510
sg1503
g1511
sg348
S'c:/marmalade/7.5/s3e/h/std/c++/streambuf'
p3050
sbsS's3eMetrics.h'
p3051
g322
(g1498
g324
Ntp3052
Rp3053
(dp3054
g1502
g1510
sg1503
g1715
sg348
S'c:/marmalade/7.5/s3e/h/ext/s3eMetrics.h'
p3055
sbsS'IwGxFont.h'
p3056
g322
(g1498
g324
Ntp3057
Rp3058
(dp3059
g1502
g1185
sg1503
g1504
sg348
g1199
sbsS's3eSecureStorage.h'
p3060
g322
(g1498
g324
Ntp3061
Rp3062
(dp3063
g1502
g1510
sg1503
g1526
sg348
S'c:/marmalade/7.5/s3e/h/s3eSecureStorage.h'
p3064
sbsS'string.h'
p3065
g322
(g1498
g324
Ntp3066
Rp3067
(dp3068
g1502
g1510
sg1503
g1532
sg348
S'c:/marmalade/7.5/s3e/h/std/string.h'
p3069
sbsS'IwResource.h'
p3070
g322
(g1498
g324
Ntp3071
Rp3072
(dp3073
g1502
g1371
sg1503
g1539
sg348
g1467
sbsS'IwGeomSVec2.h'
p3074
g322
(g1498
g324
Ntp3075
Rp3076
(dp3077
g1502
g1207
sg1503
g1560
sg348
g1205
sbsS'libjpeg.mkf'
p3078
g322
(g1498
g324
Ntp3079
Rp3080
(dp3081
g1502
g1081
sg1503
(lp3082
g1077
asg348
g1079
sbsS'IwGxDebug.h'
p3083
g322
(g1498
g324
Ntp3084
Rp3085
(dp3086
g1502
g1307
sg1503
g1632
sg348
g1332
sbsS'pthread_types.h'
p3087
g322
(g1498
g324
Ntp3088
Rp3089
(dp3090
g1502
g1510
sg1503
g1532
sg348
S'c:/marmalade/7.5/s3e/h/std/pthread_types.h'
p3091
sbsS'iomanip.h'
p3092
g322
(g1498
g324
Ntp3093
Rp3094
(dp3095
g1502
g1510
sg1503
g1511
sg348
S'c:/marmalade/7.5/s3e/h/std/c++/iomanip.h'
p3096
sbsS'IwKeymap.h'
p3097
g322
(g1498
g324
Ntp3098
Rp3099
(dp3100
g1502
g1371
sg1503
g1539
sg348
g1412
sbsS'IwDebug.h'
p3101
g322
(g1498
g324
Ntp3102
Rp3103
(dp3104
g1502
g1371
sg1503
g1539
sg348
g1400
sbsS's3eIOSBackgroundAudio.h'
p3105
g322
(g1498
g324
Ntp3106
Rp3107
(dp3108
g1502
g1510
sg1503
g1715
sg348
S'c:/marmalade/7.5/s3e/h/ext/s3eIOSBackgroundAudio.h'
p3109
sbsS'IwGeomMenu.h'
p3110
g322
(g1498
g324
Ntp3111
Rp3112
(dp3113
g1502
g1207
sg1503
g1560
sg348
g1263
sbsS'IwDivTable.h'
p3114
g322
(g1498
g324
Ntp3115
Rp3116
(dp3117
g1502
g1371
sg1503
g1539
sg348
g1390
sbsS'ctype.h'
p3118
g322
(g1498
g324
Ntp3119
Rp3120
(dp3121
g1502
g1510
sg1503
g1532
sg348
S'c:/marmalade/7.5/s3e/h/std/ctype.h'
p3122
sbsS'IwGeomMat.h'
p3123
g322
(g1498
g324
Ntp3124
Rp3125
(dp3126
g1502
g1207
sg1503
g1560
sg348
g1223
sbsS'IwResGroup.h'
p3127
g322
(g1498
g324
Ntp3128
Rp3129
(dp3130
g1502
g1283
sg1503
g2046
sg348
g1297
sbsS'signal_1.h'
p3131
g322
(g1498
g324
Ntp3132
Rp3133
(dp3134
g1502
g1510
sg1503
g1646
sg348
S'c:/marmalade/7.5/s3e/h/std/sys/signal.h'
p3135
sbsS'functional'
p3136
g322
(g1498
g324
Ntp3137
Rp3138
(dp3139
g1502
g1510
sg1503
g1511
sg348
S'c:/marmalade/7.5/s3e/h/std/c++/functional'
p3140
sbsS'shm.h'
p3141
g322
(g1498
g324
Ntp3142
Rp3143
(dp3144
g1502
g1510
sg1503
g1646
sg348
S'c:/marmalade/7.5/s3e/h/std/sys/shm.h'
p3145
sbsS'IwManagedList.h'
p3146
g322
(g1498
g324
Ntp3147
Rp3148
(dp3149
g1502
g1371
sg1503
g1539
sg348
g1384
sbsS'prctl.h'
p3150
g322
(g1498
g324
Ntp3151
Rp3152
(dp3153
g1502
g1510
sg1503
g1646
sg348
S'c:/marmalade/7.5/s3e/h/std/sys/prctl.h'
p3154
sbsS'un.h'
p3155
g322
(g1498
g324
Ntp3156
Rp3157
(dp3158
g1502
g1510
sg1503
g1646
sg348
S'c:/marmalade/7.5/s3e/h/std/sys/un.h'
p3159
sbsS'temp_defines_debug.h'
p3160
g322
(g1498
g324
Ntp3161
Rp3162
(dp3163
g1502
(lp3164
sg1503
(lp3165
g2713
asg348
S'd:/School/cs115/AmazingMaze/build_amazingmaze_vc12/temp_defines_debug.h'
p3166
sbsS'utility'
p3167
g322
(g1498
g324
Ntp3168
Rp3169
(dp3170
g1502
g1510
sg1503
g1511
sg348
S'c:/marmalade/7.5/s3e/h/std/c++/utility'
p3171
sbsS'IwGeomLegacy.h'
p3172
g322
(g1498
g324
Ntp3173
Rp3174
(dp3175
g1502
g1207
sg1503
g1560
sg348
g1227
sbsS'IwTPage.h'
p3176
g322
(g1498
g324
Ntp3177
Rp3178
(dp3179
g1502
g1307
sg1503
g1632
sg348
g1355
sbsS'IwResSerialise.h'
p3180
g322
(g1498
g324
Ntp3181
Rp3182
(dp3183
g1502
g1283
sg1503
g2046
sg348
g1284
sbsS's3eCrypto.h'
p3184
g322
(g1498
g324
Ntp3185
Rp3186
(dp3187
g1502
g1510
sg1503
g1526
sg348
S'c:/marmalade/7.5/s3e/h/s3eCrypto.h'
p3188
sbsS's3eKeyboard.h'
p3189
g322
(g1498
g324
Ntp3190
Rp3191
(dp3192
g1502
g1510
sg1503
g1526
sg348
S'c:/marmalade/7.5/s3e/h/s3eKeyboard.h'
p3193
sbsS'fcntl.h'
p3194
g322
(g1498
g324
Ntp3195
Rp3196
(dp3197
g1502
g1510
sg1503
g1532
sg348
S'c:/marmalade/7.5/s3e/h/std/fcntl.h'
p3198
sbsS'Iw2DSceneGraphCore.h'
p3199
g322
(g1498
g324
Ntp3200
Rp3201
(dp3202
g1502
g1364
sg1503
g2521
sg348
g1362
sbsS'memory.h'
p3203
g322
(g1498
g324
Ntp3204
Rp3205
(dp3206
g1502
g1510
sg1503
g1532
sg348
S'c:/marmalade/7.5/s3e/h/std/memory.h'
p3207
sbsS'pthread.h'
p3208
g322
(g1498
g324
Ntp3209
Rp3210
(dp3211
g1502
g1510
sg1503
g1532
sg348
S'c:/marmalade/7.5/s3e/h/std/pthread.h'
p3212
sbsS'IwGeomIntersect.h'
p3213
g322
(g1498
g324
Ntp3214
Rp3215
(dp3216
g1502
g1207
sg1503
g1560
sg348
g1253
sbsS'algorithm'
p3217
g322
(g1498
g324
Ntp3218
Rp3219
(dp3220
g1502
g1510
sg1503
g1511
sg348
S'c:/marmalade/7.5/s3e/h/std/c++/algorithm'
p3221
sbsS'egl_1.h'
p3222
g322
(g1498
g324
Ntp3223
Rp3224
(dp3225
g1502
g1510
sg1503
g2061
sg348
S'c:/marmalade/7.5/s3e/h/GLES/egl.h'
p3226
sbsS'Iw2DSceneGraph.cpp'
p3227
g322
(g1498
g324
Ntp3228
Rp3229
(dp3230
g1502
g1149
sg1503
g1755
sg348
g1147
sbsS'ostream.h'
p3231
g322
(g1498
g324
Ntp3232
Rp3233
(dp3234
g1502
g1510
sg1503
g1511
sg348
S'c:/marmalade/7.5/s3e/h/std/c++/ostream.h'
p3235
sbsS'stl_user_config.h'
p3236
g322
(g1498
g324
Ntp3237
Rp3238
(dp3239
g1502
g1510
sg1503
g1511
sg348
S'c:/marmalade/7.5/s3e/h/std/c++/stl_user_config.h'
p3240
sbsS'IwProfileMenu.h'
p3241
g322
(g1498
g324
Ntp3242
Rp3243
(dp3244
g1502
g1371
sg1503
g1539
sg348
g1386
sbsS'MarmaladeVersion.h'
p3245
g322
(g1498
g324
Ntp3246
Rp3247
(dp3248
g1502
g1510
sg1503
g1526
sg348
S'c:/marmalade/7.5/s3e/h/MarmaladeVersion.h'
p3249
sbsS'gl3platform.h'
p3250
g322
(g1498
g324
Ntp3251
Rp3252
(dp3253
g1502
g1510
sg1503
g1812
sg348
S'c:/marmalade/7.5/s3e/h/GLES3/gl3platform.h'
p3254
sbsS'ios.h'
p3255
g322
(g1498
g324
Ntp3256
Rp3257
(dp3258
g1502
g1510
sg1503
g1511
sg348
S'c:/marmalade/7.5/s3e/h/std/c++/ios.h'
p3259
sbsS'IwImageHelper.h'
p3260
g322
(g1498
g324
Ntp3261
Rp3262
(dp3263
g1502
g1371
sg1503
g1539
sg348
g1382
sbsS'hash_set'
p3264
g322
(g1498
g324
Ntp3265
Rp3266
(dp3267
g1502
g1510
sg1503
g1511
sg348
S'c:/marmalade/7.5/s3e/h/std/c++/hash_set'
p3268
sbsS'IwGeomFQuat.h'
p3269
g322
(g1498
g324
Ntp3270
Rp3271
(dp3272
g1502
g1207
sg1503
g1560
sg348
g1217
sbsS'jmorecfg.h'
p3273
g322
(g1498
g324
Ntp3274
Rp3275
(dp3276
g1502
g1085
sg1503
g1590
sg348
g1094
sbsS'eglplatform.h'
p3277
g322
(g1498
g324
Ntp3278
Rp3279
(dp3280
g1502
g1510
sg1503
g1844
sg348
S'c:/marmalade/7.5/s3e/h/EGL/eglplatform.h'
p3281
sbsS'cmath'
p3282
g322
(g1498
g324
Ntp3283
Rp3284
(dp3285
g1502
g1510
sg1503
g1511
sg348
S'c:/marmalade/7.5/s3e/h/std/c++/cmath'
p3286
sbsS'math_gcc.h'
p3287
g322
(g1498
g324
Ntp3288
Rp3289
(dp3290
g1502
g1510
sg1503
g1532
sg348
S'c:/marmalade/7.5/s3e/h/std/math_gcc.h'
p3291
sbsS's3eMemory.h'
p3292
g322
(g1498
g324
Ntp3293
Rp3294
(dp3295
g1502
g1510
sg1503
g1526
sg348
S'c:/marmalade/7.5/s3e/h/s3eMemory.h'
p3296
sbsS'strings.h'
p3297
g322
(g1498
g324
Ntp3298
Rp3299
(dp3300
g1502
g1510
sg1503
g1532
sg348
S'c:/marmalade/7.5/s3e/h/std/strings.h'
p3301
sbsS's3eFile.h'
p3302
g322
(g1498
g324
Ntp3303
Rp3304
(dp3305
g1502
g1510
sg1503
g1526
sg348
S'c:/marmalade/7.5/s3e/h/s3eFile.h'
p3306
sbsS'IwGxTypes.h'
p3307
g322
(g1498
g324
Ntp3308
Rp3309
(dp3310
g1502
g1307
sg1503
g1632
sg348
g1344
sbsS'cerrno'
p3311
g322
(g1498
g324
Ntp3312
Rp3313
(dp3314
g1502
g1510
sg1503
g1511
sg348
S'c:/marmalade/7.5/s3e/h/std/c++/cerrno'
p3315
sbsS'resource.h'
p3316
g322
(g1498
g324
Ntp3317
Rp3318
(dp3319
g1502
g1510
sg1503
g1646
sg348
S'c:/marmalade/7.5/s3e/h/std/sys/resource.h'
p3320
sbsS'clocale'
p3321
g322
(g1498
g324
Ntp3322
Rp3323
(dp3324
g1502
g1510
sg1503
g1511
sg348
S'c:/marmalade/7.5/s3e/h/std/c++/clocale'
p3325
sbsS'pvrtextool.mkf'
p3326
g322
(g1498
g324
Ntp3327
Rp3328
(dp3329
g1502
g1137
sg1503
g2093
sg348
g1135
sbsS'csetjmp'
p3330
g322
(g1498
g324
Ntp3331
Rp3332
(dp3333
g1502
g1510
sg1503
g1511
sg348
S'c:/marmalade/7.5/s3e/h/std/c++/csetjmp'
p3334
sbsS'netdb.h'
p3335
g322
(g1498
g324
Ntp3336
Rp3337
(dp3338
g1502
g1510
sg1503
g1532
sg348
S'c:/marmalade/7.5/s3e/h/std/netdb.h'
p3339
sbsS's3eAndroidJNI.h'
p3340
g322
(g1498
g324
Ntp3341
Rp3342
(dp3343
g1502
g1510
sg1503
g1715
sg348
S'c:/marmalade/7.5/s3e/h/ext/s3eAndroidJNI.h'
p3344
sbsS'stdexcept'
p3345
g322
(g1498
g324
Ntp3346
Rp3347
(dp3348
g1502
g1510
sg1503
g1511
sg348
S'c:/marmalade/7.5/s3e/h/std/c++/stdexcept'
p3349
sbsS'math.h'
p3350
g322
(g1498
g324
Ntp3351
Rp3352
(dp3353
g1502
g1510
sg1503
g1532
sg348
S'c:/marmalade/7.5/s3e/h/std/math.h'
p3354
sbsS'stdbool.h'
p3355
g322
(g1498
g324
Ntp3356
Rp3357
(dp3358
g1502
g1510
sg1503
g1532
sg348
S'c:/marmalade/7.5/s3e/h/std/stdbool.h'
p3359
sbsS'uio.h'
p3360
g322
(g1498
g324
Ntp3361
Rp3362
(dp3363
g1502
g1510
sg1503
g1646
sg348
S'c:/marmalade/7.5/s3e/h/std/sys/uio.h'
p3364
sbsS'IwUncopyable.h'
p3365
g322
(g1498
g324
Ntp3366
Rp3367
(dp3368
g1502
g1371
sg1503
g1539
sg348
g1449
sbssS'juice_build_type'
p3369
g4
sS'tests'
p3370
(lp3371
sS'project_name'
p3372
g330
sS'root_file'
p3373
g131
sS'current_root'
p3374
S'd:/School/cs115/AmazingMaze'
p3375
sS'dependencies'
p3376
(lp3377
sS'include_paths'
p3378
(lp3379
S'c:/marmalade/7.5/modules/iwutil/h'
p3380
aS'c:/marmalade/7.5/modules/third_party/libjpeg/h'
p3381
aS'c:/marmalade/7.5/modules/third_party/zlib/h'
p3382
aS'c:/marmalade/7.5/modules/third_party/libpng/h'
p3383
aS'c:/marmalade/7.5/modules/iw2dscenegraphcore/h'
p3384
aS'c:/marmalade/7.5/modules/iw2dscenegraph/h'
p3385
aS'c:/marmalade/7.5/modules/iw2d/h'
p3386
aS'c:/marmalade/7.5/modules/iwgx/h'
p3387
aS'c:/marmalade/7.5/modules/iwgl/h'
p3388
aS'c:/marmalade/7.5/modules/iwgeom/h'
p3389
aS'c:/marmalade/7.5/modules/iwresmanager/h'
p3390
aS'c:/marmalade/7.5/extensions/pvrtextool/h'
p3391
aS'c:/marmalade/7.5/modules/iwgxfont/h'
p3392
aS'c:/marmalade/7.5/modules/third_party/tiniconv/source'
p3393
aS'c:/marmalade/7.5/modules/iwtween/h'
p3394
aS'c:/marmalade/7.5/s3e/h'
p3395
aS'c:/marmalade/7.5/s3e/h/ext'
p3396
aS'c:/marmalade/7.5/s3e/h/std'
p3397
aS'c:/marmalade/7.5/s3e/h/std/c++'
p3398
aS'c:/marmalade/7.5/s3e/h/ext_legacy'
p3399
aS'c:/marmalade/7.5/s3e/h/legacy'
p3400
asS'weak_frameworks'
p3401
(lp3402
sS'extprojects'
p3403
(dp3404
sg588
(dp3405
g582
(lp3406
(g87
S'.'
p3407
I0
tp3408
assS'macro_types'
p3409
(dp3410
g521
I1
sg522
I0
sg523
I0
sg524
I0
sg525
I0
sg526
I0
sg527
I0
sg528
I0
sg529
I0
sg531
I0
sg532
I0
sg533
I0
sg534
I0
sg535
I0
sg537
I0
sg539
I0
sg540
I0
sg541
I0
sg542
I0
sg543
I0
sg544
I0
sg545
I1
sg546
I0
sg547
I0
sg548
I0
sg549
I0
sg550
I01
sg551
I1
sg552
I0
sg553
I0
sg554
I0
sg555
I0
sg556
I0
sg558
I0
sg559
I0
ssS'commands'
p3411
(lp3412
sg590
(g1058
S'VC12'
p3413
S'X86ARMAARCH64'
p3414
tp3415
sS'build_libs'
p3416
(dp3417
sg592
g0
sS'frameworks'
p3418
(lp3419
sS'environ'
p3420
(dp3421
sS'target_name_debug'
p3422
g330
sS'builders'
p3423
(dp3424
g582
(dp3425
S'.S'
p3426
(dp3427
S'gcc_aarch64'
p3428
(lp3429
S'.obj'
p3430
aS'echo AARCH64 Assembling(GCC) ${SOURCE}...'
p3431
aS'c:/marmalade/7.5/s3e\\gcc\\win32\\aarch64\\bin\\aarch64-none-elf-gcc -c -o ${TARGET} ${SOURCE}'
p3432
asS'rvct'
p3433
(lp3434
g3430
aS'echo ARM Assembling(RVCT) ${SOURCE}...'
p3435
aS'c:/marmalade/7.5/s3e\\rvct\\bin\\armasm -o ${TARGET} ${SOURCE}'
p3436
asg444
(lp3437
g3430
aS'echo ARM Assembling(GCC) ${SOURCE}...'
p3438
aS'c:/marmalade/7.5/s3e\\gcc\\win32\\arm\\bin\\arm-none-eabi-gcc -c -o ${TARGET} ${SOURCE}'
p3439
asS'ppu'
p3440
(lp3441
S'.a'
p3442
aS'echo PPU Assembling(SNC) ${SOURCE}...'
p3443
aS'c:/marmalade/7.5/s3e\\rvct\\bin\\armasm -o ${TARGET} ${SOURCE}'
p3444
assS'.s'
p3445
g3427
sS'.vp'
p3446
(lp3447
NaS'"C:/Marmalade/7.5/s3e/python/python.exe" "c:/marmalade/7.5/modules/iwgx/tools/compile_shaders.py" ${SOURCE}'
p3448
asssS'extproject_names'
p3449
(lp3450
sbtp3451
.