((dp0
S'arm_dbg_args'
p1
S'-via:"d:\\School\\cs115\\AmazingMaze\\build_amazingmaze_vc12\\AmazingMaze_vc12_arm_debug.via" -qemu'
p2
sS'game-icf'
p3
S''
p4
sS'dist'
p5
NsS'csproj'
p6
g4
sS'module_path_append'
p7
NsS'global_path'
p8
S'd:\\school\\cs115'
p9
sS'system_path'
p10
S'c:\\marmalade\\7.5\\s3e\\makefile_builder'
p11
sS'android_x86_dbg_args'
p12
S'../../tools/DeployTool/DeployTool.exe --dir "d:\\School\\cs115\\AmazingMaze\\build_amazingmaze_vc12"'
p13
sS'aarch64-arch-mod'
p14
g4
sS'no-emit'
p15
NsS'arm-float-abi'
p16
g4
sS'arm_rel_rtsm_args'
p17
S'-via:"d:\\School\\cs115\\AmazingMaze\\build_amazingmaze_vc12\\AmazingMaze_vc12_arm_release.via" -qemu'
p18
sS'amd64'
p19
NsS'line-width'
p20
I80
sS'gcc_dbg_args'
p21
S'-via:"d:\\School\\cs115\\AmazingMaze\\build_amazingmaze_vc12\\AmazingMaze_vc12_gcc_debug.via" -qemu'
p22
sS'android-x86'
p23
NsS'x86_dbg_exe'
p24
S'c:/marmalade/7.5/s3e\\win32\\s3e_simulator_debug.exe'
p25
sS'disable-runtime-checks'
p26
NsS'release'
p27
NsS'no-make'
p28
NsS'xcode-x86-build-settings'
p29
g4
sS'optimise-size'
p30
NsS'fat'
p31
NsS'output-name-debug'
p32
g4
sS'arm-fpu'
p33
g4
sS'proj_name'
p34
S'AmazingMaze_vc12'
p35
sS'rvct-version'
p36
S'none'
p37
sS'compiler'
p38
g4
sS'execute'
p39
NsS'compile-static'
p40
NsS'msvc-project'
p41
I01
sS'buildenv'
p42
S'VC12'
p43
sS'quick'
p44
NsS'module_path'
p45
NsS'mkf_default'
p46
S's3e-default.mkf'
p47
sS'use-release-std-libs'
p48
NsS'using_perforce'
p49
I00
sS'tizen-x86'
p50
NsS'mips-s3e'
p51
NsS's3e-api-lib-name'
p52
S's3e_api_iwgl'
p53
sS'ios-no-pic'
p54
NsS'shared-arm-lib'
p55
NsS'arm-cpu'
p56
g4
sS'compile-thumb'
p57
NsS'no-ide'
p58
NsS'msvc-version'
p59
S'6.0'
p60
sS'arm'
p61
NsS'builddir'
p62
g4
sS'compile-debug-as-release'
p63
I0
sS'arm-arch'
p64
g4
sS'brief'
p65
NsS'dll'
p66
NsS'buildenv-toolset'
p67
g4
sS'version'
p68
NsS'aarch64-arch'
p69
g4
sS'ccache'
p70
I0
sS'offline'
p71
NsS'ios-version'
p72
g4
sS'hub_data'
p73
g4
sS'fake_vc_call'
p74
I01
sS'jobs'
p75
I0
sS'linkflags'
p76
NsS'gcc_aarch64_dbg_args'
p77
g13
sS'debug'
p78
NsS'xcode-build-order'
p79
g4
sS'gcc_aarch64_rel_rtsm_args'
p80
S'-via:"d:\\School\\cs115\\AmazingMaze\\build_amazingmaze_vc12\\AmazingMaze_vc12_gcc_aarch64_release.via" -qemu'
p81
sS'gcc_rel_rtsm_args'
p82
S'-via:"d:\\School\\cs115\\AmazingMaze\\build_amazingmaze_vc12\\AmazingMaze_vc12_gcc_release.via" -qemu'
p83
sS'done_defaults'
p84
I1
sS'path'
p85
NsS's3e-data-dir'
p86
S'd:/School/cs115/AmazingMaze\\data'
p87
sS'enable-exceptions'
p88
NsS'osx-dll'
p89
NsS'extension'
p90
g4
sS'no-vc6'
p91
NsS'no-strip'
p92
NsS'win32-console'
p93
NsS'dist-format'
p94
g4
sS's3e-force-arch'
p95
NsS'dump_defines'
p96
NsS'use-shared-std-libs'
p97
NsS'gcc-version'
p98
g4
sS'x86_dbg_args'
p99
S'-via:"d:\\School\\cs115\\AmazingMaze\\build_amazingmaze_vc12\\AmazingMaze_vc12_debug.via"'
p100
sS'tizen_x86_dbg_args'
p101
g13
sS'arm-debugger'
p102
g4
sS'use_temp_extension'
p103
NsS'verbose'
p104
I0
sS'log'
p105
NsS'aarch64'
p106
NsS'rebuild'
p107
NsS'mips_dbg_args'
p108
g13
sS'win32-simulator-dll'
p109
NsS'strict'
p110
NsS'xcode-aarch64-build-settings'
p111
g4
sS'enable-global-path'
p112
NsS'gcc_aarch64_rel_args'
p113
g13
sS'cflags'
p114
NsS'dist-dir'
p115
g4
sS'xcode-arm-build-settings'
p116
g4
sS'jflags'
p117
NsS'csprojSDKRefs'
p118
g4
sS'tizen_x86_rel_exe'
p119
S'c:\\marmalade\\7.5\\s3e\\makefile_builder\\tool_launcher.exe'
p120
sS'test-assets'
p121
g4
sS'distcc'
p122
NsS'external-compiler'
p123
NsS'no-distcc'
p124
NsS'preinclude'
p125
NsS'using_sdk'
p126
I01
sS'nologo'
p127
NsS'warn-level'
p128
I2
sS'mips_dbg_exe'
p129
g120
sS'mkb_in'
p130
S'd:/School/cs115/AmazingMaze/AmazingMaze.mkb'
p131
sS'tizen_x86_dbg_exe'
p132
g120
sS'arm_dbg_exe'
p133
S'c:/marmalade/7.5/s3e\\bin\\armdebug.exe'
p134
sS'csprojDLLRef'
p135
NsS'tizen_x86_rel_args'
p136
g13
sS'android_x86_dbg_exe'
p137
g120
sS'test-config'
p138
g4
sS'list-targets'
p139
NsS'arm_rel_exe'
p140
g120
sS'arm_rel_args'
p141
g13
sS'makedeps'
p142
NsS'android_x86_rel_exe'
p143
g120
sS'default-buildenv'
p144
S'vc12'
p145
sS'x86_rel_exe'
p146
g25
sS'preprocess-java'
p147
NsS'mips_rel_args'
p148
g13
sS'defines'
p149
NsS'lib'
p150
NsS'non-interactive'
p151
NsS'global_argv'
p152
(lp153
S'C:\\Marmalade\\7.5\\s3e\\makefile_builder\\mkb.py'
p154
aS'd:/School/cs115/AmazingMaze/AmazingMaze.mkb'
p155
aS'--buildenv=VC12'
p156
aS'--fake-vc-call'
p157
aS'--default-buildenv=vc12'
p158
aS'--msvc-project'
p159
asS'make'
p160
NsS'optimise-speed'
p161
NsS'internal'
p162
NsS'enable-stdinc'
p163
NsS'deploy-only'
p164
NsS'x86'
p165
NsS'deploy'
p166
g4
sS'x86_run_exe'
p167
S'c:/marmalade/7.5/s3e\\win32\\s3e_console.exe'
p168
sS'cxxflags'
p169
NsS'x86_rel_args'
p170
S'-via:"d:\\School\\cs115\\AmazingMaze\\build_amazingmaze_vc12\\AmazingMaze_vc12_release.via"'
p171
sS'gcc_rel_args'
p172
g13
sS'mips'
p173
NsS'xcode-build-settings'
p174
g4
sS'incredibuild'
p175
NsS'strict-compile'
p176
NsS'use-auto-subdirs'
p177
NsS'mips_rel_exe'
p178
g120
sS'android_x86_rel_args'
p179
g13
sS'app-icf'
p180
g4
sS'deployargs'
p181
NsS'iosnativedebug'
p182
NsS'use_prebuilt'
p183
NsS'mkf_in'
p184
(lp185
S'c:\\marmalade\\7.5\\s3e\\s3e-default.mkf'
p186
aS'c:\\marmalade\\7.5\\modules\\iwutil\\iwutil.mkf'
p187
aS'c:\\marmalade\\7.5\\modules\\third_party\\libjpeg\\libjpeg.mkf'
p188
aS'c:\\marmalade\\7.5\\modules\\third_party\\libpng\\libpng.mkf'
p189
aS'c:\\marmalade\\7.5\\modules\\third_party\\zlib\\zlib.mkf'
p190
aS'c:\\marmalade\\7.5\\modules\\iw2dscenegraphcore\\iw2dscenegraphcore.mkf'
p191
aS'c:\\marmalade\\7.5\\modules\\iw2dscenegraph\\iw2dscenegraph.mkf'
p192
aS'c:\\marmalade\\7.5\\modules\\iw2d\\iw2d.mkf'
p193
aS'c:\\marmalade\\7.5\\modules\\iwgx\\iwgx.mkf'
p194
aS'c:\\marmalade\\7.5\\modules\\iwgl\\iwgl.mkf'
p195
aS'c:\\marmalade\\7.5\\modules\\iwgeom\\iwgeom.mkf'
p196
aS'c:\\marmalade\\7.5\\modules\\iwresmanager\\iwresmanager.mkf'
p197
aS'c:\\marmalade\\7.5\\extensions\\pvrtextool\\pvrtextool.mkf'
p198
aS'c:\\marmalade\\7.5\\modules\\iwgxfont\\iwgxfont.mkf'
p199
aS'c:\\marmalade\\7.5\\modules\\third_party\\tiniconv\\tiniconv.mkf'
p200
aS'c:\\marmalade\\7.5\\modules\\iwtween\\iwtween.mkf'
p201
asS'strict-mkb'
p202
NsS'executeargs'
p203
NsS'clean'
p204
NsS'no-asm'
p205
NsS'output-name'
p206
g4
sS'no-modules'
p207
NsS'find_define'
p208
g4
s(dp209
S'c:\\marmalade\\7.5\\s3e\\makefile_builder\\templates\\vc7_suo.pyc'
p210
F1422012890.0
sS'c:\\marmalade\\7.5\\s3e\\makefile_builder\\templates\\ws81_vcxproj.pyc'
p211
F1422012892.0
sS'c:\\marmalade\\7.5\\s3e\\makefile_builder\\plugins\\s3e_ws8.pyc'
p212
F1422012890.0
sS'c:\\marmalade\\7.5\\s3e\\makefile_builder\\templates'
p213
F1422054614.950279
sS'c:\\marmalade\\7.5\\s3e\\makefile_builder\\templates\\qmake.py'
p214
F1422011718.0
sS'c:\\marmalade\\7.5\\s3e\\makefile_builder\\templates\\vc10_user.pyc'
p215
F1422012890.0
sS'c:\\marmalade\\7.5\\s3e\\makefile_builder\\plugins'
p216
F1422055040.2056024
sS'c:\\marmalade\\7.5\\s3e\\makefile_builder\\mkb_main.pyc'
p217
F1422012890.0
sS'c:\\marmalade\\7.5\\s3e\\makefile_builder\\templates\\mips_linker_script'
p218
F1422011718.0
sS'c:\\marmalade\\7.5\\s3e\\makefile_builder\\plugins\\XcodeEmitter.py'
p219
F1422011718.0
sS'c:\\marmalade\\7.5\\s3e\\makefile_builder\\mkb.py'
p220
F1422011718.0
sS'c:\\marmalade\\7.5\\s3e\\makefile_builder\\templates\\ws81_ext_sln.pyc'
p221
F1422012892.0
sS'c:\\marmalade\\7.5\\s3e\\makefile_builder\\templates\\win32_dsp.pyc'
p222
F1422012890.0
sS'c:\\marmalade\\7.5\\s3e\\makefile_builder\\templates\\ws8_csproj.pyc'
p223
F1422012892.0
sS'c:\\marmalade\\7.5\\s3e\\makefile_builder\\deployment.pyc'
p224
F1422012890.0
sS'c:\\marmalade\\7.5\\s3e\\makefile_builder\\plugins\\win32_vc6.pyc'
p225
F1422012890.0
sS'c:\\marmalade\\7.5\\s3e\\makefile_builder\\plugins\\osx_xcode.pyc'
p226
F1422012890.0
sS'c:\\marmalade\\7.5\\s3e\\makefile_builder\\plugins\\null.pyc'
p227
F1422012890.0
sS'c:\\marmalade\\7.5\\s3e\\makefile_builder\\templates\\wp81_csproj.pyc'
p228
F1422012892.0
sS'c:\\marmalade\\7.5\\s3e\\makefile_builder\\templates\\qmake_user.py'
p229
F1422011718.0
sS'c:\\marmalade\\7.5\\s3e\\makefile_builder\\templates\\vc6_opt.pyc'
p230
F1422012890.0
sS'c:\\marmalade\\7.5\\s3e\\makefile_builder\\plugins\\vc7_utils.pyc'
p231
F1422012890.0
sS'c:\\marmalade\\7.5\\s3e\\makefile_builder\\templates\\wp81_vcxproj.pyc'
p232
F1422012892.0
sS'c:\\marmalade\\7.5\\s3e\\makefile_builder\\templates\\win32_vcxproj.pyc'
p233
F1422012890.0
sS'c:\\marmalade\\7.5\\s3e\\makefile_builder\\templates\\ws8_ext_sln.pyc'
p234
F1422012892.0
sS'c:\\marmalade\\7.5\\s3e\\makefile_builder\\templates\\ws8_ext_csproj.pyc'
p235
F1422012892.0
sS'c:\\marmalade\\7.5\\s3e\\makefile_builder\\templates\\wp8_ext_csproj.pyc'
p236
F1422012892.0
sS'c:\\marmalade\\7.5\\s3e\\makefile_builder\\plugins\\s3e_wp8.pyc'
p237
F1422012890.0
sS'c:\\marmalade\\7.5\\s3e\\makefile_builder\\templates\\ws81_csproj.pyc'
p238
F1422012892.0
sS'c:\\marmalade\\7.5\\s3e\\makefile_builder\\docs\\deprecated.options.txt'
p239
F1422011718.0
sS'c:\\marmalade\\7.5\\s3e\\makefile_builder\\plugins\\s3e_make.pyc'
p240
F1422012890.0
sS'c:\\marmalade\\7.5\\s3e\\makefile_builder\\templates\\win8_ext_csproj.pyc'
p241
F1422012892.0
sS'c:\\marmalade\\7.5\\s3e\\makefile_builder\\mkb_parser.pyc'
p242
F1422012890.0
sS'c:\\marmalade\\7.5\\s3e\\makefile_builder\\plugins\\s3e_web.pyc'
p243
F1422012890.0
sS'c:\\marmalade\\7.5\\s3e\\makefile_builder\\docs\\mkb.defines.txt'
p244
F1422011718.0
sS'c:\\marmalade\\7.5\\s3e\\makefile_builder\\plugins\\osx_scons.pyc'
p245
F1422012890.0
sS'c:\\marmalade\\7.5\\s3e\\makefile_builder\\plugins\\ws81_ws81.pyc'
p246
F1422012890.0
sS'c:\\marmalade\\7.5\\s3e\\makefile_builder\\plugins\\s3e_qmake.py'
p247
F1422011718.0
sS'c:\\marmalade\\7.5\\s3e\\makefile_builder\\templates\\win8_csproj.pyc'
p248
F1422012892.0
sS'c:\\marmalade\\7.5\\s3e\\makefile_builder\\plugins\\s3e_vc6.pyc'
p249
F1422012890.0
sS'c:\\marmalade\\7.5\\s3e\\makefile_builder\\plugins\\wp81_wp81.pyc'
p250
F1422012890.0
sS'c:\\marmalade\\7.5\\s3e\\makefile_builder\\templates\\wp81_csproj_user.pyc'
p251
F1422012892.0
sS'c:\\marmalade\\7.5\\s3e\\makefile_builder\\templates\\win32_dsw.pyc'
p252
F1422012890.0
sS'c:\\marmalade\\7.5\\s3e\\makefile_builder\\templates\\xcode4.xcscheme'
p253
F1422011718.0
sS'c:\\marmalade\\7.5\\s3e\\makefile_builder\\templates\\template.opt'
p254
F1422011718.0
sS'c:\\marmalade\\7.5\\s3e\\makefile_builder\\templates\\template.suo'
p255
F1422011718.0
sS'c:\\marmalade\\7.5\\s3e\\makefile_builder\\templates\\linker_script'
p256
F1422011718.0
sS'c:\\marmalade\\7.5\\s3e\\makefile_builder\\templates\\gdb_start.txt'
p257
F1422011718.0
sS'c:\\marmalade\\7.5\\s3e\\makefile_builder\\mkb_launcher.exe'
p258
F1422012030.0
sS'c:\\marmalade\\7.5\\s3e\\makefile_builder\\templates\\scons.pyc'
p259
F1422012890.0
sS'c:\\marmalade\\7.5\\s3e\\makefile_builder\\docs\\parse_options.pyc'
p260
F1422012892.0
sS'c:\\marmalade\\7.5\\s3e\\makefile_builder\\templates\\xcode4_arm.xcscheme'
p261
F1422011718.0
sS'c:\\marmalade\\7.5\\s3e\\makefile_builder\\plugins\\VisualStudioEmitter.pyc'
p262
F1422012890.0
sS'c:\\marmalade\\7.5\\s3e\\makefile_builder\\plugins\\s3e_xcode.pyc'
p263
F1422055040.2056024
sS'c:\\marmalade\\7.5\\s3e\\makefile_builder\\plugins\\Emitter.pyc'
p264
F1422012890.0
sS'c:\\marmalade\\7.5\\s3e\\makefile_builder\\templates\\ws8_sln.pyc'
p265
F1422012892.0
sS'c:\\marmalade\\7.5\\s3e\\makefile_builder\\tool_launcher.exe'
p266
F1422012030.0
sS'c:\\marmalade\\7.5\\s3e\\makefile_builder\\templates\\wp8_sln.pyc'
p267
F1422012892.0
sS'c:\\marmalade\\7.5\\s3e\\makefile_builder\\mkb_upstream.pyc'
p268
F1422012890.0
sS'c:\\marmalade\\7.5\\s3e\\makefile_builder\\templates\\ws81_csproj_user.pyc'
p269
F1422012892.0
sS'c:\\marmalade\\7.5\\s3e\\makefile_builder\\templates\\win32_sln.pyc'
p270
F1422012890.0
sS'c:\\marmalade\\7.5\\s3e\\makefile_builder\\templates\\xcode4_DeployTool.xcscheme'
p271
F1422011718.0
sS'c:\\marmalade\\7.5\\s3e\\makefile_builder\\plugins\\deploy.pyc'
p272
F1422012890.0
sS'c:\\marmalade\\7.5\\s3e\\makefile_builder\\plugins\\s3e_win8.pyc'
p273
F1422012890.0
sS'c:\\marmalade\\7.5\\s3e\\makefile_builder\\plugins\\iphone.pyc'
p274
F1422012890.0
sS'c:\\marmalade\\7.5\\s3e\\makefile_builder\\plugins\\Win8Emitter.pyc'
p275
F1422012890.0
sS'c:\\marmalade\\7.5\\s3e\\makefile_builder\\plugins\\s3e_qmake.pyc'
p276
F1422055040.1706004
sS'c:\\marmalade\\7.5\\s3e\\makefile_builder\\docs'
p277
F1422054614.9632797
sS'c:\\marmalade\\7.5\\s3e\\makefile_builder\\mkb_globals.pyc'
p278
F1422012890.0
sS'c:\\marmalade\\7.5\\s3e\\makefile_builder\\plugins\\win8_utils.pyc'
p279
F1422012890.0
sS'c:\\marmalade\\7.5\\s3e\\makefile_builder\\plugins\\xcode4_schememanagement.py'
p280
F1422011718.0
sS'c:\\marmalade\\7.5\\s3e\\makefile_builder\\templates\\wp81_ext_sln.pyc'
p281
F1422012892.0
sS'c:\\marmalade\\7.5\\s3e\\makefile_builder\\templates\\make.py'
p282
F1422011718.0
sS'c:\\marmalade\\7.5\\s3e\\makefile_builder\\templates\\ws81_ext_csproj.pyc'
p283
F1422012892.0
sS'c:\\marmalade\\7.5\\s3e\\makefile_builder\\plugins\\s3e_xcode.py'
p284
F1422011718.0
sS'c:\\marmalade\\7.5\\s3e\\makefile_builder\\plugins\\XcodeEmitter.pyc'
p285
F1422055040.1075966
sS'c:\\marmalade\\7.5\\s3e\\makefile_builder\\docs\\deployment_options.txt'
p286
F1422011718.0
sS'c:\\marmalade\\7.5\\s3e\\makefile_builder\\templates\\win8_sln.pyc'
p287
F1422012892.0
sS'c:\\marmalade\\7.5\\s3e\\makefile_builder\\plugins\\java.pyc'
p288
F1422012890.0
sS'c:\\marmalade\\7.5\\s3e\\makefile_builder\\plugins\\xcode4_schememanagement.pyc'
p289
F1422055040.1115968
sS'c:\\marmalade\\7.5\\s3e\\makefile_builder\\plugins\\SConsEmitter.pyc'
p290
F1422012890.0
sS'c:\\marmalade\\7.5\\s3e\\makefile_builder\\templates\\win32_vcproj.pyc'
p291
F1422012890.0
sS'c:\\marmalade\\7.5\\s3e\\makefile_builder\\plugins\\wp8_wp8.pyc'
p292
F1422012890.0
sS'c:\\marmalade\\7.5\\s3e\\makefile_builder\\templates\\MainWindow.xib'
p293
F1422011718.0
sS'c:\\marmalade\\7.5\\s3e\\makefile_builder\\mkb_util.pyc'
p294
F1422012890.0
sS'c:\\marmalade\\7.5\\s3e\\makefile_builder\\templates\\vc8_user.pyc'
p295
F1422012890.0
sS'c:\\marmalade\\7.5\\s3e\\makefile_builder\\templates\\Info.plist'
p296
F1422011718.0
sS'c:\\marmalade\\7.5\\s3e\\makefile_builder\\templates\\wp8_csproj_user.pyc'
p297
F1422012892.0
sS'c:\\marmalade\\7.5\\s3e\\makefile_builder\\docs\\deprecated.defines.txt'
p298
F1422011718.0
sS'c:\\marmalade\\7.5\\s3e\\makefile_builder\\templates\\ws8_csproj_user.pyc'
p299
F1422012892.0
sS'c:\\marmalade\\7.5\\s3e\\makefile_builder\\plugins\\S3EEmitter.pyc'
p300
F1422012890.0
sS'c:\\marmalade\\7.5\\s3e\\makefile_builder\\templates\\rvct_linker_script'
p301
F1422011718.0
sS'c:\\marmalade\\7.5\\s3e\\makefile_builder\\templates\\xcode_pbxuser.py'
p302
F1422011718.0
sS'c:\\marmalade\\7.5\\s3e\\makefile_builder\\docs\\options.txt'
p303
F1422011718.0
sS'c:\\marmalade\\7.5\\s3e\\makefile_builder\\templates\\wp81_sln.pyc'
p304
F1422012892.0
sS'c:\\marmalade\\7.5\\s3e\\makefile_builder\\templates\\ws81_sln.pyc'
p305
F1422012892.0
sS'c:\\marmalade\\7.5\\s3e\\makefile_builder\\plugins\\vc6_utils.pyc'
p306
F1422012890.0
sS'c:\\marmalade\\7.5\\s3e\\makefile_builder\\templates\\wp81_ext_csproj.pyc'
p307
F1422012892.0
sS'c:\\marmalade\\7.5\\s3e\\makefile_builder\\plugins\\s3e_wp81.pyc'
p308
F1422012890.0
sS'c:\\marmalade\\7.5\\s3e\\makefile_builder\\templates\\aarch64_linker_script'
p309
F1422011718.0
sS'c:\\marmalade\\7.5\\s3e\\makefile_builder\\templates\\ws8_vcxproj.pyc'
p310
F1422012892.0
sS'c:\\marmalade\\7.5\\s3e\\makefile_builder\\plugins\\MakeEmitter.pyc'
p311
F1422012890.0
sS'c:\\marmalade\\7.5\\s3e\\makefile_builder\\templates\\win32_vcxproj_filters.pyc'
p312
F1422012890.0
sS'c:\\marmalade\\7.5\\s3e\\makefile_builder\\templates\\xcode.py'
p313
F1422011718.0
sS'c:\\marmalade\\7.5\\s3e\\makefile_builder\\plugins\\s3e_ws81.pyc'
p314
F1422012890.0
sS'c:\\marmalade\\7.5\\s3e\\makefile_builder\\plugins\\linux_scons.pyc'
p315
F1422012890.0
sS'c:\\marmalade\\7.5\\s3e\\makefile_builder\\templates\\win8_vcxproj.pyc'
p316
F1422012892.0
sS'c:\\marmalade\\7.5\\s3e\\makefile_builder\\plugins\\s3e_scons.pyc'
p317
F1422012890.0
sS'c:\\marmalade\\7.5\\s3e\\makefile_builder\\templates\\wp8_csproj.pyc'
p318
F1422012892.0
sS'c:\\marmalade\\7.5\\s3e\\makefile_builder\\templates\\win8_csproj_user.pyc'
p319
F1422012892.0
sS'c:\\marmalade\\7.5\\s3e\\makefile_builder\\plugins\\ws8_ws8.pyc'
p320
F1422012890.0
sS'c:\\marmalade\\7.5\\s3e\\makefile_builder\\templates\\wp8_vcxproj.pyc'
p321
F1422012892.0
sS'c:\\marmalade\\7.5\\s3e\\makefile_builder\\mkb_option.pyc'
p322
F1422012890.0
sccopy_reg
_reconstructor
p323
(cmkb_main
MkbFile
p324
c__builtin__
object
p325
Ntp326
Rp327
(dp328
g5
(lp329
sS'target_name'
p330
S'AmazingMaze'
p331
sS'current_file'
p332
g131
sS'package_path'
p333
(lp334
sS'post_build'
p335
(lp336
(lp337
S'c:/marmalade/7.5/s3e/tools'
p338
aS'C:\\Marmalade\\7.5\\s3e\\python\\python.exe .\\process_map.py "$(TargetPath)"'
p339
aa(S'c:\\marmalade\\7.5\\s3e\\bin'
p340
S'"s3e_plink" -l "$(TargetPath)" '
p341
g165
tp342
asS'librarys'
p343
(lp344
g323
(cmkb_main
Library
p345
g325
Ntp346
Rp347
(dp348
S'name'
p349
S'vc6_compat.lib'
p350
sS'expand_name'
p351
I00
sS'include_spec_rvct_objs'
p352
(lp353
sS'include_all_objs'
p354
I00
sS'share_arm'
p355
I00
sS'arch'
p356
S'x86'
p357
sS'nodebug'
p358
I00
sg38
Nsbag323
(g345
g325
Ntp359
Rp360
(dp361
g349
S'iwutil'
p362
sg351
I01
sg352
(lp363
sg354
Nsg355
Nsg356
Nsg358
I00
sg38
Nsbag323
(g345
g325
Ntp364
Rp365
(dp366
g349
S'jpeg'
p367
sg351
I01
sg352
g363
sg354
Nsg355
Nsg356
Nsg358
I00
sg38
Nsbag323
(g345
g325
Ntp368
Rp369
(dp370
g349
S'z'
p371
sg351
I01
sg352
g363
sg354
Nsg355
Nsg356
Nsg358
I00
sg38
Nsbag323
(g345
g325
Ntp372
Rp373
(dp374
g349
S'png'
p375
sg351
I01
sg352
g363
sg354
Nsg355
Nsg356
Nsg358
I00
sg38
Nsbag323
(g345
g325
Ntp376
Rp377
(dp378
g349
S'iw2d'
p379
sg351
I01
sg352
g363
sg354
Nsg355
Nsg356
Nsg358
I00
sg38
Nsbag323
(g345
g325
Ntp380
Rp381
(dp382
g349
S'ATI_Compress_MT_VC7.lib'
p383
sg351
I00
sg352
g363
sg354
Nsg355
Nsg356
S'x86'
p384
sg358
I00
sg38
Nsbag323
(g345
g325
Ntp385
Rp386
(dp387
g349
S'iwgx'
p388
sg351
I01
sg352
g363
sg354
Nsg355
Nsg356
Nsg358
I00
sg38
Nsbag323
(g345
g325
Ntp389
Rp390
(dp391
g349
S'iwgl'
p392
sg351
I01
sg352
g363
sg354
Nsg355
Nsg356
Nsg358
I00
sg38
Nsbag323
(g345
g325
Ntp393
Rp394
(dp395
g349
S'iwgeom'
p396
sg351
I01
sg352
g363
sg354
Nsg355
Nsg356
Nsg358
I00
sg38
Nsbag323
(g345
g325
Ntp397
Rp398
(dp399
g349
S'iwresmanager'
p400
sg351
I01
sg352
g363
sg354
Nsg355
Nsg356
Nsg358
I00
sg38
Nsbag323
(g345
g325
Ntp401
Rp402
(dp403
g349
S'iwgxfont'
p404
sg351
I01
sg352
g363
sg354
Nsg355
Nsg356
Nsg358
I00
sg38
Nsbag323
(g345
g325
Ntp405
Rp406
(dp407
g349
S'tiniconv'
p408
sg351
I01
sg352
g363
sg354
Nsg355
Nsg356
Nsg358
I00
sg38
Nsbag323
(g345
g325
Ntp409
Rp410
(dp411
g349
S's3e_cpp'
p412
sg351
I01
sg352
g353
sg354
I00
sg355
I00
sg356
Nsg358
I00
sg38
Nsbag323
(g345
g325
Ntp413
Rp414
(dp415
g349
S's3e'
p416
sg351
I01
sg352
(lp417
S'iwcrt.o'
p418
asg354
I00
sg355
I00
sg356
Nsg358
I00
sg38
Nsbag323
(g345
g325
Ntp419
Rp420
(dp421
g349
g53
sg351
I01
sg352
g353
sg354
I00
sg355
I00
sg356
S'x86'
p422
sg358
I01
sg38
Nsbag323
(g345
g325
Ntp423
Rp424
(dp425
g349
g53
sg351
I01
sg352
g353
sg354
I00
sg355
I00
sg356
S'!x86'
p426
sg358
I01
sg38
Nsbag323
(g345
g325
Ntp427
Rp428
(dp429
g349
S'stdc++'
p430
sg351
I00
sg352
g353
sg354
I00
sg355
I00
sg356
S'mips'
p431
sg358
I00
sg38
Nsbag323
(g345
g325
Ntp432
Rp433
(dp434
g349
S'c'
p435
sg351
I00
sg352
g353
sg354
I00
sg355
I00
sg356
S'mips'
p436
sg358
I00
sg38
Nsbag323
(g345
g325
Ntp437
Rp438
(dp439
g349
S'm'
p440
sg351
I00
sg352
g353
sg354
I00
sg355
I00
sg356
S'mips'
p441
sg358
I00
sg38
Nsbag323
(g345
g325
Ntp442
Rp443
(dp444
g349
S'gcc'
p445
sg351
I00
sg352
g353
sg354
I00
sg355
I00
sg356
S'mips'
p446
sg358
I00
sg38
Nsbag323
(g345
g325
Ntp447
Rp448
(dp449
g349
S'stdc++'
p450
sg351
I00
sg352
g353
sg354
I00
sg355
I00
sg356
S'gcc_x86_android'
p451
sg358
I00
sg38
Nsbag323
(g345
g325
Ntp452
Rp453
(dp454
g349
g435
sg351
I00
sg352
g353
sg354
I00
sg355
I00
sg356
S'gcc_x86_android'
p455
sg358
I00
sg38
Nsbag323
(g345
g325
Ntp456
Rp457
(dp458
g349
g440
sg351
I00
sg352
g353
sg354
I00
sg355
I00
sg356
S'gcc_x86_android'
p459
sg358
I00
sg38
Nsbag323
(g345
g325
Ntp460
Rp461
(dp462
g349
g445
sg351
I00
sg352
g353
sg354
I00
sg355
I00
sg356
S'gcc_x86_android'
p463
sg358
I00
sg38
NsbasS'library_paths'
p464
(lp465
g323
(cmkb_main
LibraryPath
p466
g325
Ntp467
Rp468
(dp469
S'expand_path'
p470
I01
sg349
S'c:/marmalade/7.5/modules/iwutil'
p471
sbag323
(g466
g325
Ntp472
Rp473
(dp474
g470
I01
sg349
S'c:/marmalade/7.5/modules/third_party/libjpeg'
p475
sbag323
(g466
g325
Ntp476
Rp477
(dp478
g470
I01
sg349
S'c:/marmalade/7.5/modules/third_party/zlib'
p479
sbag323
(g466
g325
Ntp480
Rp481
(dp482
g470
I01
sg349
S'c:/marmalade/7.5/modules/third_party/libpng'
p483
sbag323
(g466
g325
Ntp484
Rp485
(dp486
g470
I01
sg349
S'c:/marmalade/7.5/modules/iw2d'
p487
sbag323
(g466
g325
Ntp488
Rp489
(dp490
g470
I00
sg349
S'c:/marmalade/7.5/modules/iwgx/atitools'
p491
sbag323
(g466
g325
Ntp492
Rp493
(dp494
g470
I01
sg349
S'c:/marmalade/7.5/modules/iwgx'
p495
sbag323
(g466
g325
Ntp496
Rp497
(dp498
g470
I01
sg349
S'c:/marmalade/7.5/modules/iwgl'
p499
sbag323
(g466
g325
Ntp500
Rp501
(dp502
g470
I01
sg349
S'c:/marmalade/7.5/modules/iwgeom'
p503
sbag323
(g466
g325
Ntp504
Rp505
(dp506
g470
I01
sg349
S'c:/marmalade/7.5/modules/iwresmanager'
p507
sbag323
(g466
g325
Ntp508
Rp509
(dp510
g470
I01
sg349
S'c:/marmalade/7.5/modules/iwgxfont'
p511
sbag323
(g466
g325
Ntp512
Rp513
(dp514
g470
I01
sg349
S'c:/marmalade/7.5/modules/third_party/tiniconv'
p515
sbag323
(g466
g325
Ntp516
Rp517
(dp518
g470
I01
sg349
S'c:/marmalade/7.5/s3e'
p519
sbasS'macros'
p520
(dp521
S'IW_USE_CALLSTACK'
p522
NsS'IW_MKF_IWGEOM'
p523
NsS'I3D_PLATFORM_S3E'
p524
NsS'IW_MKF_IW2DSCENEGRAPHCORE'
p525
NsS'IW_MKF_LIBJPEG'
p526
NsS'I3D_OS_S3E'
p527
NsS'IW_MKF_PVRTEXTOOL'
p528
NsS'IW_MKF_TINICONV'
p529
NsS'IW_APP_VERSION'
p530
S'"1.0"'
p531
sS'__S3E__'
p532
NsS'IW_MKF_IWRESMANAGER'
p533
NsS'IW_MKF_IWUTIL'
p534
NsS'IW_PLATFORM_S3E'
p535
NsS'IW_ASSERTION_CHANNEL_2D'
p536
S'1'
p537
sS'IW_APP_NAME'
p538
S'"AmazingMaze"'
p539
sS'IW_MKF_S3E_DEFAULT'
p540
NsS'IW_MKF_IWGXFONT'
p541
NsS'IW_MKF_IWTWEEN'
p542
NsS'IW_MKF_ZLIB'
p543
NsS'IW_MKF_IWGX'
p544
NsS'IW_MKF_IW2DSCENEGRAPH'
p545
NsS'IW_USE_ASSERTIONS'
p546
NsS'_CRT_SECURE_NO_DEPRECATE'
p547
NsS'IW_MKF_IWGL'
p548
NsS'IW_MKF_LIBPNG'
p549
NsS'IW_TRACE_CHANNEL_IW_2DSCENEGRAPH'
p550
g537
sS'IW_DEBUG'
p551
NsS'IW_USE_TRACING'
p552
NsS'IW_ASSERTION_CHANNEL_IW_2DSCENEGRAPH'
p553
g537
sS'IW_TRACE_CHANNEL_PVRTEXTOOL'
p554
g537
sS'IW_SDK'
p555
NsS'S3E_INCLUDE_LEGACY'
p556
NsS'IW_TRACE_CHANNEL_PVRTEXTOOL_VERBOSE'
p557
S'2'
p558
sS'IW_MKF_IW2D'
p559
NsS'IW_ASSERTION_CHANNEL_PVRTEXTOOL'
p560
g537
ssS'done_warnings'
p561
(dp562
sS'subprojects'
p563
(dp564
g199
S'iwgxfont'
p565
sg186
S's3e-default.mkf'
p566
sg191
S'iw2dscenegraphcore'
p567
sg190
S'zlib'
p568
sg197
S'iwresmanager'
p569
sg200
S'tiniconv'
p570
sg188
S'libjpeg'
p571
sg192
S'iw2dscenegraph'
p572
sg189
S'libpng'
p573
sg187
S'iwutil'
p574
sg201
S'iwtween'
p575
sg194
S'iwgx'
p576
sg193
S'iw2d'
p577
sg195
S'iwgl'
p578
sg196
S'iwgeom'
p579
sg198
S'PVRTexTool'
p580
ssS'deployments'
p581
(dp582
S'Default'
p583
g323
(cdeployment
Deployment
p584
g325
Ntp585
Rp586
(dp587
S'got_version'
p588
I0
sS'assets'
p589
g583
sS'mkb'
p590
g327
sS'target'
p591
Nsg356
(lp592
sS'options'
p593
(dp594
S'iphone-link-lib'
p595
(lp596
sS'game-icf'
p597
NsS'android-tm'
p598
NsS'winmobile-icon32'
p599
NsS'ws8-logo-image150x150'
p600
NsS'wp81-logo-image150x150'
p601
NsS'ws81-product-version'
p602
NsS'osx-ext-dll'
p603
(lp604
S'c:/marmalade/7.5/extensions/pvrtextool/lib/osx/libPVRTexTool.dylib'
p605
asS'iphone-provisioning-profile'
p606
NsS'win32-icon'
p607
NsS'ws8-splash-screen-image620x300'
p608
NsS'wp81-extra-pri'
p609
(lp610
sS'ws8-ext-capabilities'
p611
(lp612
sS'android-icon-hdpi'
p613
NsS'iphone-ipad-only'
p614
NsS'iphone-splash-full-orient'
p615
NsS'wp8-tile-fliptemplate-supports-large'
p616
NsS'iphone-show-status-bar'
p617
NsS'roku-requires-mkv'
p618
NsS'long-caption'
p619
NsS'android-pkgname'
p620
NsS'wp81-publisher-display-name'
p621
NsS'blackberry-permissions-read-device-identifying-information'
p622
NsS'ws81-certificate-end-date'
p623
NsS'psp-dlgcontentid'
p624
NsS'iphone-minimum-ios-version'
p625
NsS'target-folder'
p626
NsS'tizen-dist1-CA-path'
p627
NsS'symbian-icon2-format'
p628
NsS'tizen-author-key'
p629
NsS'firefoxos-icon-128X128'
p630
NsS'iphone-region'
p631
NsS'uiq3-icon3-mask'
p632
NsS'brew-encoding'
p633
NsS'android-x86'
p634
NsS'nds-initialcode'
p635
NsS'iphone-persistent-wifi'
p636
NsS'psp-snd0'
p637
NsS'roku-icon-focus-hd'
p638
NsS'osx-appid'
p639
NsS'winmobile-install-folder'
p640
NsS'android-external-res'
p641
(lp642
sS'ws8-product-version'
p643
NsS'brew-priviledges'
p644
NsS'iphone-info-plist-override'
p645
NsS'iphone-icon-ipad'
p646
NsS'iphone-skip-icon-generation'
p647
NsS'roku-hidden'
p648
NsS'psp-titlename'
p649
NsS'wp81-product-version'
p650
NsS'symbian-icon1-mask'
p651
NsS'psp-parentallevel'
p652
NsS'iphone-launch-storyboard'
p653
NsS'splashscreen-use-all'
p654
NsS'wp8-author'
p655
NsS'symbian-disable-ecompxl'
p656
NsS'splashscreen-auto-onblack'
p657
NsS'iphone-icon-dir'
p658
NsS'iphone-icon-extra'
p659
NsS'win32-ext-dll'
p660
(lp661
S'c:/marmalade/7.5/extensions/pvrtextool/lib/win32/PVRTexTool.dll'
p662
asS'iphone-development-key'
p663
NsS'winmobile-icon48'
p664
NsS'android-unsigned'
p665
NsS'osx-appstore-category'
p666
NsS'version-revision'
p667
NsS'roku-icon-focus-sd'
p668
NsS'android-keystore'
p669
NsS'winmobile-png90'
p670
NsS'iphone-icon-ipad-high-res'
p671
NsS'iphone-disable-ipad'
p672
NsS'ws81-splash-screen-background'
p673
NsS'wp8-ext-capabilities'
p674
(lp675
sS'brew-icon-large'
p676
NsS'symbian-icon1-mask-black'
p677
NsS'ws8-extra-res'
p678
(lp679
sS'iphone-bundle-localisations'
p680
NsS'winmobile-png60'
p681
NsS'blackberry-permissions-access-shared'
p682
NsS'blackberry-author'
p683
NsS'android-icon-xxxhdpi'
p684
NsS'olddeploytoolstyle'
p685
NsS'android_icon_gallery'
p686
NsS'wp81-splash-screen-background'
p687
NsS'winmobile-cab-compress'
p688
NsS'iphone-info-plist'
p689
NsS'ws81-ext-managed-dll'
p690
(lp691
sS'playbook-cskpass'
p692
NsS'ws8-distribution-pfx-password'
p693
NsS'symbian-key'
p694
NsS'app-icf'
p695
NsS'blackberry-storepass'
p696
NsS'wp8-tile-fliptemplate-back-title'
p697
NsS'brew-compress-loader'
p698
NsS'win32-pref-windowposy'
p699
NsS'win32-pref-windowposx'
p700
NsS'roku-requires-audiometadata'
p701
NsS'wp8-exclude-low-mem'
p702
NsS'iphone-icon-ipad-search-high-res'
p703
NsS'iphone-link-libdir'
p704
(lp705
sS'wp81-ext-capabilities'
p706
(lp707
sS'blackberry-permissions-read-geolocation'
p708
NsS'ws81-ext-device-capabilities'
p709
(lp710
sS'tizen-signed'
p711
NsS'android-extra-application-manifest'
p712
(lp713
sS'ws8-ext-native-dll'
p714
(lp715
sS'symbian-icon2-mask'
p716
NsS'iphone-launch-extra'
p717
NsS'webos-memory'
p718
NsS'android-keypass'
p719
NsS'name'
p720
NsS'uiq3-icon2-format'
p721
NsS'roku-splash-screen-sd'
p722
NsS'auto-derbh'
p723
NsS'roku-icon-side-sd'
p724
NsS'android-external-assets'
p725
(lp726
sS'nds-publicsavedatasize'
p727
NsS'splashscreen'
p728
NsS'brew-mif'
p729
NsS'iphone-icon-settings-high-res'
p730
NsS'android-manifest'
p731
NsS'ws81-splash-screen-image620x300'
p732
NsS'wp81-product-name'
p733
NsS's3e-compression'
p734
NsS'tizen-author-password'
p735
NsS'wp8-tile-fliptemplate-back-content'
p736
NsS'blackberry-extra-descriptor'
p737
(lp738
sS'symbian-icon1'
p739
NsS'symbian-icon2'
p740
NsS'nds-makercode'
p741
NsS'android-extra-styles-file'
p742
NsS'wp81-publisher-id'
p743
NsS'nds-bannertitle-jp'
p744
NsS'wp81-logo-image44x44'
p745
NsS'osx-sign-for-store'
p746
NsS'symbian7-uid'
p747
NsS'wp8-tile-fliptemplate-large-back-content'
p748
NsS'wp81-phone-publisher-id'
p749
NsS'nds-bannertitle-cn'
p750
NsS'iphone-distribution-key'
p751
NsS'android-icon-gallery'
p752
NsS'blackberry-keystore'
p753
NsS'iphone-nosign'
p754
NsS'caption'
p755
NsS'android-extra-manifest'
p756
(lp757
sS'wp81-ext-sdk-ref'
p758
(lp759
sS'android-icon-xxhdpi'
p760
NsS'version-minor'
p761
NsS'iphone-skip-launch-generation'
p762
NsS'iphone-link-libdirs'
p763
(lp764
sS'iphone-icon-large'
p765
NsS'symbian-keypwd'
p766
NsS'symbian8-uid'
p767
NsS'symbian-cert-key'
p768
NsS'winmobile-ampd-part-number'
p769
NsS'arch'
p770
NsS'nds-romheadertemplate'
p771
NsS'webos-icon'
p772
NsS'wp81-ext-device-capabilities'
p773
(lp774
sS'psp-dlgprotectdocument'
p775
NsS'ws8-splash-screen-background'
p776
NsS'android-icon-mdpi'
p777
NsS'nds-icon'
p778
NsS'ws8-custom-manifest-fill'
p779
NsS'iphone-development-cert'
p780
NsS'and'
p781
NsS'symbian-icon2-mask-black'
p782
NsS'blackberry-phone-icon'
p783
NsS'iphone-enable-4inch-retina'
p784
NsS'ws8-custom-manifest'
p785
NsS'version-major'
p786
NsS'wp8-genre-isgame'
p787
NsS'uiq3-uid'
p788
NsS'iphone-splash-retina-generate'
p789
NsS'tizen-hw-acceleration'
p790
NsS'iphone_bundle_localisations'
p791
NsS'tizen-dist1-key'
p792
NsS'wp81-custom-manifest-fill'
p793
NsS'wp8-custom-manifest'
p794
NsS'nds-bannertitle-ge'
p795
NsS'iphone-sign-for-distribution'
p796
NsS'wp8-tile-fliptemplate-medium-back-image'
p797
NsS'wp8-publisher-id'
p798
NsS'icon'
p799
NsS'wp8-exclude-wxga'
p800
NsS'wp81-identity-name'
p801
NsS'uiq3-icon2-mask'
p802
NsS'iphone-splashscreen-portrait'
p803
NsS'iphone-icon-high-res'
p804
NsS'ws81-distribution-pfx-password'
p805
NsS'playbook-author'
p806
NsS'android-icon-xhdpi'
p807
NsS'linux-ext-lib'
p808
(lp809
sS'blackberry-permissions-access-internet'
p810
NsS'wp8-exclude-720p'
p811
NsS'lgtv-use-drm'
p812
NsS'symbian-platsecflags'
p813
NsS'ws8-description'
p814
NsS'blackberry-playbook-icon'
p815
NsS'copyright'
p816
NsS'win32-gles-directory'
p817
NsS'version'
p818
NsS'iphone-uiviewcontroller-based-status-bar'
p819
NsS'ws81-logo-image150x150'
p820
NsS'osx-signing-identity-app'
p821
NsS'tizen-project-url'
p822
NsS'symbian-icon-svg'
p823
NsS'android-aliasname'
p824
NsS'psp-dlgmanual'
p825
NsS'brew-uid'
p826
NsS'symbian-locationsupport'
p827
NsS'wp81-logo-image50x50'
p828
NsS'ws8-ext-managed-dll'
p829
(lp830
sS'nds-bannertitle-it'
p831
NsS'ws81-custom-manifest-fill'
p832
NsS'ws8-ext-sdk-manifest-part'
p833
(lp834
sS'uiq3-icon1-mask'
p835
NsS'winmobile-icon16'
p836
NsS'ws8-product-name'
p837
NsS'blackberry-cskpass'
p838
NsS'winmobile-start-menu-folder'
p839
NsS'brew-clsid'
p840
NsS'roku-requires-bluetooth'
p841
NsS'ws8-ext-device-capabilities'
p842
(lp843
sS'blackberry-permissions-use-camera'
p844
NsS'ws81-extra-pri'
p845
(lp846
sS'iphone-prerendered-icon'
p847
NsS'iphone-appid'
p848
NsS'ws8-identity-name'
p849
NsS'tizen-dist2-CA-path'
p850
NsS'android-external-jars'
p851
(lp852
sS'winmobile-icon64'
p853
NsS'blackberry-permissions-post-notification'
p854
NsS'winmobile-setup-dll'
p855
NsS'firefoxos-manifest'
p856
NsS'win8-winrt-extra-res'
p857
(lp858
sS'wp81-ext-sdk-manifest-part'
p859
(lp860
sS'symbian9-uid'
p861
NsS'iphone-icon-ipad-ios7'
p862
NsS'winmobile-trace-file'
p863
NsS'roku-splash-color'
p864
NsS'psp-appversion'
p865
NsS'ws8-publisher-id'
p866
NsS'android-supports-gl-texture'
p867
(lp868
sS'winmobile-png45'
p869
NsS'wp81-extra-res'
p870
(lp871
sS'android-storepass'
p872
NsS'osx-signing-identity-inst'
p873
NsS'android-custom-activity'
p874
NsS'psp-discversion'
p875
NsS'wp81-ext-managed-dll'
p876
(lp877
sS'psp-copyright'
p878
NsS'embed-icf'
p879
NsS'tizen-manifest'
p880
NsS'osx-icon'
p881
NsS'webos-appinfo'
p882
NsS'psp-dlghealthwarning'
p883
NsS'webos-appid'
p884
NsS'roku-icon-side-hd'
p885
NsS'iphone-icon-ipad-search-high-res-ios7'
p886
NsS'iphone-extra-plist'
p887
(lp888
sS'ws81-ext-sdk-manifest-part'
p889
(lp890
sS'loader_name_prefix'
p891
NsS'iphone-launch-dir'
p892
NsS'nds-titlename'
p893
NsS'ws81-logo-image50x50'
p894
NsS'wp81-custom-manifest'
p895
NsS'osx-entitlements-plist'
p896
NsS'psp-dlgicon0'
p897
NsS'winmobile-nouninstall'
p898
NsS'psp-discid'
p899
NsS'tizen-dist2-password'
p900
NsS'ws8-ext-sdk-ref'
p901
(lp902
sS'iphone-extra-string'
p903
(lp904
sS'version-string'
p905
NsS'iphone-icon-high-res-ios7'
p906
NsS'blackberry-permissions-record-audio'
p907
NsS'ws8-certificate-end-date'
p908
NsS'tizen-so'
p909
(lp910
sS'wp8-tile-fliptemplate-small-image'
p911
NsS'playbook-authorid'
p912
NsS'iphone-signing-identity'
p913
NsS'roku-persist-quota'
p914
NsS'nds-bannertitle-fr'
p915
NsS'ws8-distribution-pfx'
p916
NsS'ws8-publisher-display-name'
p917
NsS'brew-icon-small'
p918
NsS'psp-dlgpic2'
p919
NsS'psp-dlgpic0'
p920
NsS'psp-pic0'
p921
NsS'psp-pic1'
p922
NsS'win32-pref-windowtitle'
p923
NsS'psp-icon0'
p924
NsS'psp-icon1'
p925
NsS'ws81-identity-name'
p926
NsS'winmobile-icon'
p927
NsS'iphone-no-splash'
p928
NsS'iphone-splash'
p929
NsS'iphone-app-fonts'
p930
NsS'wp8-ext-native-dll'
p931
(lp932
sS'wp81-splash-screen-image480x800'
p933
NsS'ws81-distribution-cer'
p934
NsS'iphone-backgroundmode-audio'
p935
NsS'uiq3-icon2'
p936
NsS'uiq3-icon3'
p937
NsS'uiq3-icon1'
p938
NsS'uiq3-icon1-format'
p939
NsS'ws8-logo-image50x50'
p940
NsS'iphone-icon-ipad-search'
p941
NsS'symbian-run-on-install'
p942
NsS'wp81-description'
p943
NsS'ws81-publisher-display-name'
p944
NsS'firefoxos-xulrunner'
p945
NsS'symbian-soundrecordsupport'
p946
NsS'nds-bannertitle-sp'
p947
NsS'psp-producer'
p948
NsS'iphone-apple-wwdr-cert'
p949
NsS'android-icon-nonstandard'
p950
NsS'win32-pref-processtitle'
p951
NsS'nds-bannertitle-hn'
p952
NsS'tizen-dist2-key'
p953
NsS'brew-depends'
p954
NsS'ws81-custom-manifest'
p955
NsS'iphone-allow-launch-rotation'
p956
NsS'iphone-icon-ipad-search-ios7'
p957
NsS'brew-icon-medium'
p958
NsS'iphone-bundle-url-name'
p959
NsS'wp8-tile-fliptemplate-large-front-image'
p960
NsS'tizen-dist2-CA-root-path'
p961
NsS'ws81-description'
p962
NsS'uiq3-icon3-format'
p963
NsS'ws81-logo-image30x30'
p964
NsS'win8-phone-extra-res'
p965
(lp966
sS'iphone-signing-host'
p967
NsS'tizen-icon'
p968
NsS'osx-info-plist'
p969
NsS'symbian-icon1-format'
p970
NsS'ws81-distribution-pfx'
p971
NsS'blackberry-authorid'
p972
NsS'ws81-publisher-id'
p973
NsS'win8-store-extra-res'
p974
(lp975
sS'wp8-description'
p976
NsS'iphone-link-opts'
p977
(lp978
sS'ws81-ext-sdk-ref'
p979
(lp980
sS'roku-splash-min-time'
p981
NsS'wp8-tile-fliptemplate-medium-front-image'
p982
NsS'iphone-disable-launch-images'
p983
NsS'provider'
p984
NsS'playbook-keystore'
p985
NsS'tizen-appid'
p986
NsS'wp8-extra-res'
p987
(lp988
sS'symbian-osexecsupport'
p989
NsS'android-install-location'
p990
NsS'nds-privatesavedatasize'
p991
NsS'iphone-disable-testflight'
p992
NsS'playbook-storepass'
p993
NsS'android-icon-ldpi'
p994
NsS'manufacturer'
p995
NsS'itunes-artwork'
p996
NsS'iphone-extra-sections'
p997
NsS'ws81-product-name'
p998
NsS'ws81-ext-native-dll'
p999
(lp1000
sS'ws8-extra-pri'
p1001
(lp1002
sS'wp8-product-id'
p1003
NsS'ws8-logo-image30x30'
p1004
NsS'wp8-ext-managed-dll'
p1005
(lp1006
sS'iphone-splashscreen-landscape'
p1007
NsS'symbian-maxheapsize'
p1008
NsS'android-extra-packages'
p1009
(lp1010
sS'priv-sign-key'
p1011
NsS'networking'
p1012
NsS'android-icon'
p1013
NsS'iphone-icon-settings'
p1014
NsS'wp81-phone-product-id'
p1015
NsS'firefoxos-icon-60X60'
p1016
NsS'iphone-distribution-cert'
p1017
NsS'android_extra_strings'
p1018
NsS'nds-bannertitle-en'
p1019
NsS'wp8-tile-fliptemplate-title'
p1020
NsS'android-so'
p1021
(lp1022
sS'wp8-higher-mem'
p1023
NsS'wp8-ext-sdk-ref'
p1024
(lp1025
sS'wp8-fast-resume-mode'
p1026
NsS'roku-splash-screen-hd'
p1027
NsS'iphone-bundle-url-schemes'
p1028
NsS'roku-screensaver-private'
p1029
NsS'osx-extra-res'
p1030
(lp1031
sS'ws81-extra-res'
p1032
(lp1033
sS'playbook-icon'
p1034
NsS'uid'
p1035
NsS'pkguid-as-uid'
p1036
NsS'wp81-ext-native-dll'
p1037
(lp1038
sS'tizen-dist1-password'
p1039
NsS'roku-screensaver-title'
p1040
NsS'osx-minimum-osx-version'
p1041
NsS'symbian-cert'
p1042
NsS'iphone-icon'
p1043
NsS'ws81-ext-capabilities'
p1044
(lp1045
sS'ws8-distribution-cer'
p1046
NsS'playbook-access-shared'
p1047
NsS'iphone-icon-ipad-high-res-ios7'
p1048
NsS'iphone-link-libs'
p1049
(lp1050
sS'wp8-exclude-wvga'
p1051
NsS'assets'
p1052
NsS'wp8-tile-fliptemplate-large-back-image'
p1053
NsS'wp8-custom-manifest-fill'
p1054
NsS'pub-sign-key'
p1055
NsS'android-extra-strings'
p1056
NsS'tizen-author-CA-path'
p1057
Nssg349
g583
sbssS'platform'
p1058
S'S3E'
p1059
sg68
S'1.0'
p1060
sS'arcade_platform'
p1061
g4
sS'extensions'
p1062
(dp1063
sS'source_groups_tree'
p1064
(dp1065
S'(libpng)'
p1066
(dp1067
S'h'
p1068
(dp1069
S'c:/marmalade/7.5/modules/third_party/libpng/h/png.h'
p1070
(lp1071
I1
a(dp1072
asS'c:/marmalade/7.5/modules/third_party/libpng/h/pngconf.h'
p1073
(lp1074
I1
ag1072
assS'c:/marmalade/7.5/modules/third_party/libpng/libpng.mkf'
p1075
(lp1076
I1
a(dp1077
assS'd:/School/cs115/AmazingMaze/MazeGenerator.cpp'
p1078
(lp1079
I1
a(dp1080
asS'(tiniconv)'
p1081
(dp1082
S'c:/marmalade/7.5/modules/third_party/tiniconv/tiniconv.mkf'
p1083
(lp1084
I1
a(dp1085
asS'c:/marmalade/7.5/modules/third_party/tiniconv/source/tiniconv_int.h'
p1086
(lp1087
I1
a(dp1088
asS'c:/marmalade/7.5/modules/third_party/tiniconv/source/tiniconv.h'
p1089
(lp1090
I1
ag1088
assS'd:/School/cs115/AmazingMaze/MazeGenerator.h'
p1091
(lp1092
I1
ag1080
asS'd:/School/cs115/AmazingMaze/MazeDrawer.h'
p1093
(lp1094
I1
ag1080
asS'd:/School/cs115/AmazingMaze/PlayerMovement.h'
p1095
(lp1096
I1
ag1080
asS'd:/School/cs115/AmazingMaze/MazeDrawer.cpp'
p1097
(lp1098
I1
ag1080
asS'Extensions'
p1099
(dp1100
S'PVRTexTool'
p1101
(dp1102
S'interface'
p1103
(dp1104
S'c:/marmalade/7.5/extensions/pvrtextool/interface/PVRTexTool.defines.txt'
p1105
(lp1106
I1
a(dp1107
asS'c:/marmalade/7.5/extensions/pvrtextool/interface/PVRTexTool_interface.cpp'
p1108
(lp1109
I1
ag1107
assS'c:/marmalade/7.5/extensions/pvrtextool/h/PVRTexTool.h'
p1110
(lp1111
I1
ag1107
asS'c:/marmalade/7.5/extensions/pvrtextool/pvrtextool.mkf'
p1112
(lp1113
I1
a(dp1114
asssS'd:/School/cs115/AmazingMaze/AmazingMaze.cpp'
p1115
(lp1116
I1
ag1080
asS"'Marmalade Studio'"
p1117
(dp1118
S'iw2dscenegraph'
p1119
(dp1120
S'c:/marmalade/7.5/modules/iw2dscenegraph/source/Iw2DSceneGraph.cpp'
p1121
(lp1122
I1
a(dp1123
asS'c:/marmalade/7.5/modules/iw2dscenegraph/docs/iw2dscenegraph.defines.txt'
p1124
(lp1125
I1
ag1123
asS'c:/marmalade/7.5/modules/iw2dscenegraph/h/Iw2DSceneGraph.h'
p1126
(lp1127
I1
ag1123
asS'c:/marmalade/7.5/modules/iw2dscenegraph/iw2dscenegraph.mkf'
p1128
(lp1129
I1
a(dp1130
assS'iwgl'
p1131
(dp1132
S'c:/marmalade/7.5/modules/iwgl/iwgl.mkf'
p1133
(lp1134
I1
a(dp1135
asS'c:/marmalade/7.5/modules/iwgl/h/IwGL.h'
p1136
(lp1137
I1
a(dp1138
asS'c:/marmalade/7.5/modules/iwgl/docs/iwgl.config.txt'
p1139
(lp1140
I1
ag1138
asS'c:/marmalade/7.5/modules/iwgl/h/IwGLExt.h'
p1141
(lp1142
I1
ag1138
assS'iw2d'
p1143
(dp1144
S'c:/marmalade/7.5/modules/iw2d/iw2d.mkf'
p1145
(lp1146
I1
a(dp1147
asS'c:/marmalade/7.5/modules/iw2d/docs/iw2d.config.txt'
p1148
(lp1149
I1
a(dp1150
asS'c:/marmalade/7.5/modules/iw2d/h/Iw2D.h'
p1151
(lp1152
I1
ag1150
asS'c:/marmalade/7.5/modules/iw2d/docs/iw2d_public.defines.txt'
p1153
(lp1154
I1
ag1150
assS'iwgxfont'
p1155
(dp1156
S'c:/marmalade/7.5/modules/iwgxfont/h/IwGxFontGlyph.h'
p1157
(lp1158
I1
a(dp1159
asS'c:/marmalade/7.5/modules/iwgxfont/h/IwGxFontTypes.h'
p1160
(lp1161
I1
ag1159
asS'c:/marmalade/7.5/modules/iwgxfont/docs/iwgxfont.config.txt'
p1162
(lp1163
I1
ag1159
asS'c:/marmalade/7.5/modules/iwgxfont/h/IwGxFontState.h'
p1164
(lp1165
I1
ag1159
asS'c:/marmalade/7.5/modules/iwgxfont/h/IwGxFontContainer.h'
p1166
(lp1167
I1
ag1159
asS'c:/marmalade/7.5/modules/iwgxfont/iwgxfont.mkf'
p1168
(lp1169
I1
a(dp1170
asS'c:/marmalade/7.5/modules/iwgxfont/h/IwGxFontPreparedData.h'
p1171
(lp1172
I1
ag1159
asS'c:/marmalade/7.5/modules/iwgxfont/h/IwGxFont.h'
p1173
(lp1174
I1
ag1159
asS'c:/marmalade/7.5/modules/iwgxfont/docs/iwgxfont_public.defines.txt'
p1175
(lp1176
I1
ag1159
assS'iwgeom'
p1177
(dp1178
S'c:/marmalade/7.5/modules/iwgeom/h/IwGeomSVec2.h'
p1179
(lp1180
I1
a(dp1181
asS'c:/marmalade/7.5/modules/iwgeom/h/IwGeomSphere.h'
p1182
(lp1183
I1
ag1181
asS'c:/marmalade/7.5/modules/iwgeom/h/IwGeomSVec3.h'
p1184
(lp1185
I1
ag1181
asS'c:/marmalade/7.5/modules/iwgeom/iwgeom.mkf'
p1186
(lp1187
I1
a(dp1188
asS'c:/marmalade/7.5/modules/iwgeom/h/IwGeomSqrt.h'
p1189
(lp1190
I1
ag1181
asS'c:/marmalade/7.5/modules/iwgeom/h/IwGeomFQuat.h'
p1191
(lp1192
I1
ag1181
asS'c:/marmalade/7.5/modules/iwgeom/h/IwGeomQuat.h.tpl'
p1193
(lp1194
I1
ag1181
asS'c:/marmalade/7.5/modules/iwgeom/h/IwGeomVec2.h'
p1195
(lp1196
I1
ag1181
asS'c:/marmalade/7.5/modules/iwgeom/h/IwGeomMat.h'
p1197
(lp1198
I1
ag1181
asS'c:/marmalade/7.5/modules/iwgeom/h/IwGeomVec3.h'
p1199
(lp1200
I1
ag1181
asS'c:/marmalade/7.5/modules/iwgeom/h/IwGeomLegacy.h'
p1201
(lp1202
I1
ag1181
asS'c:/marmalade/7.5/modules/iwgeom/h/IwGeom.h'
p1203
(lp1204
I1
ag1181
asS'c:/marmalade/7.5/modules/iwgeom/h/IwGeomSQuat.h'
p1205
(lp1206
I1
ag1181
asS'c:/marmalade/7.5/modules/iwgeom/h/IwGeomFBBox.h'
p1207
(lp1208
I1
ag1181
asS'c:/marmalade/7.5/modules/iwgeom/h/IwGeomFMat.h'
p1209
(lp1210
I1
ag1181
asS'c:/marmalade/7.5/modules/iwgeom/h/IwGeomPlane.h'
p1211
(lp1212
I1
ag1181
asS'c:/marmalade/7.5/modules/iwgeom/h/IwGeomMat2D.h'
p1213
(lp1214
I1
ag1181
asS'c:/marmalade/7.5/modules/iwgeom/h/IwGeomFVec2.h'
p1215
(lp1216
I1
ag1181
asS'c:/marmalade/7.5/modules/iwgeom/h/IwGeomSVec4.h'
p1217
(lp1218
I1
ag1181
asS'c:/marmalade/7.5/modules/iwgeom/h/IwGeomVec4.h'
p1219
(lp1220
I1
ag1181
asS'c:/marmalade/7.5/modules/iwgeom/h/IwGeomCore.h'
p1221
(lp1222
I1
ag1181
asS'c:/marmalade/7.5/modules/iwgeom/h/IwGeomVec.h.tpl'
p1223
(lp1224
I1
ag1181
asS'c:/marmalade/7.5/modules/iwgeom/h/IwGeomVec.h'
p1225
(lp1226
I1
ag1181
asS'c:/marmalade/7.5/modules/iwgeom/h/IwGeomIntersect.h'
p1227
(lp1228
I1
ag1181
asS'c:/marmalade/7.5/modules/iwgeom/h/IwGeomFVec4.h'
p1229
(lp1230
I1
ag1181
asS'c:/marmalade/7.5/modules/iwgeom/h/IwGeomMat.h.tpl'
p1231
(lp1232
I1
ag1181
asS'c:/marmalade/7.5/modules/iwgeom/h/IwGeomMat2D.h.tpl'
p1233
(lp1234
I1
ag1181
asS'c:/marmalade/7.5/modules/iwgeom/h/IwGeomFMat2D.h'
p1235
(lp1236
I1
ag1181
asS'c:/marmalade/7.5/modules/iwgeom/h/IwGeomMenu.h'
p1237
(lp1238
I1
ag1181
asS'c:/marmalade/7.5/modules/iwgeom/h/IwGeomBBox.h'
p1239
(lp1240
I1
ag1181
asS'c:/marmalade/7.5/modules/iwgeom/h/IwGeomFSphere.h'
p1241
(lp1242
I1
ag1181
asS'c:/marmalade/7.5/modules/iwgeom/h/IwGeomFVec3.h'
p1243
(lp1244
I1
ag1181
asS'c:/marmalade/7.5/modules/iwgeom/h/IwGeomFPlane.h'
p1245
(lp1246
I1
ag1181
asS'c:/marmalade/7.5/modules/iwgeom/docs/iwgeom.config.txt'
p1247
(lp1248
I1
ag1181
asS'c:/marmalade/7.5/modules/iwgeom/h/IwGeomQuat.h'
p1249
(lp1250
I1
ag1181
asS'c:/marmalade/7.5/modules/iwgeom/h/IwGeomFIntersect.h'
p1251
(lp1252
I1
ag1181
assS'iwresmanager'
p1253
(dp1254
S'c:/marmalade/7.5/modules/iwresmanager/h/IwResHandlerITX.h'
p1255
(lp1256
I1
a(dp1257
asS'c:/marmalade/7.5/modules/iwresmanager/h/IwResSerialise.h'
p1258
(lp1259
I1
ag1257
asS'c:/marmalade/7.5/modules/iwresmanager/h/IwResManagerClass.h'
p1260
(lp1261
I1
ag1257
asS'c:/marmalade/7.5/modules/iwresmanager/h/IwResHandlerGROUP.h'
p1262
(lp1263
I1
ag1257
asS'c:/marmalade/7.5/modules/iwresmanager/h/IwResManager.h'
p1264
(lp1265
I1
ag1257
asS'c:/marmalade/7.5/modules/iwresmanager/iwresmanager.mkf'
p1266
(lp1267
I1
a(dp1268
asS'c:/marmalade/7.5/modules/iwresmanager/docs/iwresmanager.config.txt'
p1269
(lp1270
I1
ag1257
asS'c:/marmalade/7.5/modules/iwresmanager/h/IwResGroup.h'
p1271
(lp1272
I1
ag1257
asS'c:/marmalade/7.5/modules/iwresmanager/h/IwResHandler.h'
p1273
(lp1274
I1
ag1257
asS'c:/marmalade/7.5/modules/iwresmanager/h/IwResHandlerImage.h'
p1275
(lp1276
I1
ag1257
assS'iwgx'
p1277
(dp1278
S'c:/marmalade/7.5/modules/iwgx/h/IwDebugPrim.h'
p1279
(lp1280
I1
a(dp1281
asS'c:/marmalade/7.5/modules/iwgx/h/IwGxTransformSW.h'
p1282
(lp1283
I1
ag1281
asS'c:/marmalade/7.5/modules/iwgx/h/IwTexture.h'
p1284
(lp1285
I1
ag1281
asS'c:/marmalade/7.5/modules/iwgx/h/IwGxFuncTable.h'
p1286
(lp1287
I1
ag1281
asS'c:/marmalade/7.5/modules/iwgx/h/IwResHandlerMTL.h'
p1288
(lp1289
I1
ag1281
asS'c:/marmalade/7.5/modules/iwgx/h/IwGxPrint.h'
p1290
(lp1291
I1
ag1281
asS'c:/marmalade/7.5/modules/iwgx/h/IwGxStream.h'
p1292
(lp1293
I1
ag1281
asS'c:/marmalade/7.5/modules/iwgx/h/IwMatAnim.h'
p1294
(lp1295
I1
ag1281
asS'c:/marmalade/7.5/modules/iwgx/h/IwClip.h'
p1296
(lp1297
I1
ag1281
asS'c:/marmalade/7.5/modules/iwgx/h/IwGxSurface.h'
p1298
(lp1299
I1
ag1281
asS'c:/marmalade/7.5/modules/iwgx/h/IwGxError.h'
p1300
(lp1301
I1
ag1281
asS'c:/marmalade/7.5/modules/iwgx/h/IwGx.h'
p1302
(lp1303
I1
ag1281
asS'c:/marmalade/7.5/modules/iwgx/docs/iwgx_public.defines.txt'
p1304
(lp1305
I1
ag1281
asS'c:/marmalade/7.5/modules/iwgx/h/IwGxDebug.h'
p1306
(lp1307
I1
ag1281
asS'c:/marmalade/7.5/modules/iwgx/h/IwGxShaderTechnique.h'
p1308
(lp1309
I1
ag1281
asS'c:/marmalade/7.5/modules/iwgx/h/IwMaterial.h'
p1310
(lp1311
I1
ag1281
asS'c:/marmalade/7.5/modules/iwgx/h/IwGxMetrics.h'
p1312
(lp1313
I1
ag1281
asS'c:/marmalade/7.5/modules/iwgx/h/IwClip.inl'
p1314
(lp1315
I1
ag1281
asS'c:/marmalade/7.5/modules/iwgx/h/IwFColour.h'
p1316
(lp1317
I1
ag1281
asS'c:/marmalade/7.5/modules/iwgx/h/IwGxTypes.h'
p1318
(lp1319
I1
ag1281
asS'c:/marmalade/7.5/modules/iwgx/iwgx.mkf'
p1320
(lp1321
I1
a(dp1322
asS'c:/marmalade/7.5/modules/iwgx/docs/iwgx.config.txt'
p1323
(lp1324
I1
ag1281
asS'c:/marmalade/7.5/modules/iwgx/h/IwColour.h'
p1325
(lp1326
I1
ag1281
asS'c:/marmalade/7.5/modules/iwgx/h/IwGxState.h'
p1327
(lp1328
I1
ag1281
asS'c:/marmalade/7.5/modules/iwgx/h/IwTPage.h'
p1329
(lp1330
I1
ag1281
assS'iw2dscenegraphcore'
p1331
(dp1332
S'c:/marmalade/7.5/modules/iw2dscenegraphcore/iw2dscenegraphcore.mkf'
p1333
(lp1334
I1
a(dp1335
asS'c:/marmalade/7.5/modules/iw2dscenegraphcore/h/Iw2DSceneGraphCore.h'
p1336
(lp1337
I1
a(dp1338
asS'c:/marmalade/7.5/modules/iw2dscenegraphcore/source/Iw2DSceneGraphCore.cpp'
p1339
(lp1340
I1
ag1338
assS'iwutil'
p1341
(dp1342
S'c:/marmalade/7.5/modules/iwutil/h/IwSingleton.h'
p1343
(lp1344
I1
a(dp1345
asS'c:/marmalade/7.5/modules/iwutil/h/IwMath.h'
p1346
(lp1347
I1
ag1345
asS'c:/marmalade/7.5/modules/iwutil/h/IwBuffer.h'
p1348
(lp1349
I1
ag1345
asS'c:/marmalade/7.5/modules/iwutil/h/IwCore.h'
p1350
(lp1351
I1
ag1345
asS'c:/marmalade/7.5/modules/iwutil/h/IwDivide.h'
p1352
(lp1353
I1
ag1345
asS'c:/marmalade/7.5/modules/iwutil/h/IwMemory.h'
p1354
(lp1355
I1
ag1345
asS'c:/marmalade/7.5/modules/iwutil/h/IwImageHelper.h'
p1356
(lp1357
I1
ag1345
asS'c:/marmalade/7.5/modules/iwutil/h/IwManagedList.h'
p1358
(lp1359
I1
ag1345
asS'c:/marmalade/7.5/modules/iwutil/h/IwProfileMenu.h'
p1360
(lp1361
I1
ag1345
asS'c:/marmalade/7.5/modules/iwutil/h/IwClassFactory.h'
p1362
(lp1363
I1
ag1345
asS'c:/marmalade/7.5/modules/iwutil/h/IwDivTable.h'
p1364
(lp1365
I1
ag1345
asS'c:/marmalade/7.5/modules/iwutil/h/IwManaged.h'
p1366
(lp1367
I1
ag1345
asS'c:/marmalade/7.5/modules/iwutil/h/IwTextParseable.h'
p1368
(lp1369
I1
ag1345
asS'c:/marmalade/7.5/modules/iwutil/h/IwChar.h'
p1370
(lp1371
I1
ag1345
asS'c:/marmalade/7.5/modules/iwutil/h/IwRandom.h'
p1372
(lp1373
I1
ag1345
asS'c:/marmalade/7.5/modules/iwutil/h/IwDebug.h'
p1374
(lp1375
I1
ag1345
asS'c:/marmalade/7.5/modules/iwutil/h/IwUTF8.h'
p1376
(lp1377
I1
ag1345
asS'c:/marmalade/7.5/modules/iwutil/docs/iwutil.config.txt'
p1378
(lp1379
I1
ag1345
asS'c:/marmalade/7.5/modules/iwutil/h/IwAllocator.h'
p1380
(lp1381
I1
ag1345
asS'c:/marmalade/7.5/modules/iwutil/h/IwMemBucketHelpers.h'
p1382
(lp1383
I1
ag1345
asS'c:/marmalade/7.5/modules/iwutil/h/IwTextParserITX.h'
p1384
(lp1385
I1
ag1345
asS'c:/marmalade/7.5/modules/iwutil/h/IwKeymap.h'
p1386
(lp1387
I1
ag1345
asS'c:/marmalade/7.5/modules/iwutil/h/IwImage.h'
p1388
(lp1389
I1
ag1345
asS'c:/marmalade/7.5/modules/iwutil/h/IwOptimiseARM.h'
p1390
(lp1391
I1
ag1345
asS'c:/marmalade/7.5/modules/iwutil/h/IwMemBucket.h'
p1392
(lp1393
I1
ag1345
asS'c:/marmalade/7.5/modules/iwutil/h/IwOptimiseSize.h'
p1394
(lp1395
I1
ag1345
asS'c:/marmalade/7.5/modules/iwutil/h/IwRuntime.h'
p1396
(lp1397
I1
ag1345
asS'c:/marmalade/7.5/modules/iwutil/h/IwMemManagerDL.h'
p1398
(lp1399
I1
ag1345
asS'c:/marmalade/7.5/modules/iwutil/h/IwPath.h'
p1400
(lp1401
I1
ag1345
asS'c:/marmalade/7.5/modules/iwutil/h/IwOptimiseSpeed.h'
p1402
(lp1403
I1
ag1345
asS'c:/marmalade/7.5/modules/iwutil/h/IwList.h'
p1404
(lp1405
I1
ag1345
asS'c:/marmalade/7.5/modules/iwutil/h/IwAutoFile.h'
p1406
(lp1407
I1
ag1345
asS'c:/marmalade/7.5/modules/iwutil/h/IwVariableBitField.h'
p1408
(lp1409
I1
ag1345
asS'c:/marmalade/7.5/modules/iwutil/h/IwHashString.h'
p1410
(lp1411
I1
ag1345
asS'c:/marmalade/7.5/modules/iwutil/h/IwOptimiseThumb.h'
p1412
(lp1413
I1
ag1345
asS'c:/marmalade/7.5/modules/iwutil/iwutil.mkf'
p1414
(lp1415
I1
a(dp1416
asS'c:/marmalade/7.5/modules/iwutil/h/IwUtil.h'
p1417
(lp1418
I1
ag1345
asS'c:/marmalade/7.5/modules/iwutil/h/IwString.h'
p1419
(lp1420
I1
ag1345
asS'c:/marmalade/7.5/modules/iwutil/h/IwFile.h'
p1421
(lp1422
I1
ag1345
asS'c:/marmalade/7.5/modules/iwutil/h/IwUncopyable.h'
p1423
(lp1424
I1
ag1345
asS'c:/marmalade/7.5/modules/iwutil/h/IwTextParser.h'
p1425
(lp1426
I1
ag1345
asS'c:/marmalade/7.5/modules/iwutil/h/IwCopyingPtr.h'
p1427
(lp1428
I1
ag1345
asS'c:/marmalade/7.5/modules/iwutil/h/IwEvent.h'
p1429
(lp1430
I1
ag1345
asS'c:/marmalade/7.5/modules/iwutil/h/IwFibre.h'
p1431
(lp1432
I1
ag1345
asS'c:/marmalade/7.5/modules/iwutil/h/IwArray.h'
p1433
(lp1434
I1
ag1345
asS'c:/marmalade/7.5/modules/iwutil/h/IwMenu.h'
p1435
(lp1436
I1
ag1345
asS'c:/marmalade/7.5/modules/iwutil/h/IwTypes.h'
p1437
(lp1438
I1
ag1345
asS'c:/marmalade/7.5/modules/iwutil/h/IwUtilInitTerm.h'
p1439
(lp1440
I1
ag1345
asS'c:/marmalade/7.5/modules/iwutil/h/IwResource.h'
p1441
(lp1442
I1
ag1345
asS'c:/marmalade/7.5/modules/iwutil/h/IwSerialise.h'
p1443
(lp1444
I1
ag1345
asssS'd:/School/cs115/AmazingMaze/PlayerMovement.cpp'
p1445
(lp1446
I1
ag1080
asS'(zlib)'
p1447
(dp1448
g1068
(dp1449
S'c:/marmalade/7.5/modules/third_party/zlib/h/zconf.h'
p1450
(lp1451
I1
a(dp1452
asS'c:/marmalade/7.5/modules/third_party/zlib/h/zlib.h'
p1453
(lp1454
I1
ag1452
assS'c:/marmalade/7.5/modules/third_party/zlib/zlib.mkf'
p1455
(lp1456
I1
a(dp1457
assS'(iwtween)'
p1458
(dp1459
S'c:/marmalade/7.5/modules/iwtween/h/IwTween.h'
p1460
(lp1461
I1
a(dp1462
asS'c:/marmalade/7.5/modules/iwtween/source/IwTween.cpp'
p1463
(lp1464
I1
ag1462
asS'c:/marmalade/7.5/modules/iwtween/iwtween.mkf'
p1465
(lp1466
I1
a(dp1467
assS'(s3e-default)'
p1468
(dp1469
S'c:/marmalade/7.5/s3e/s3e-default.mkf'
p1470
(lp1471
I1
a(dp1472
assS'(libjpeg)'
p1473
(dp1474
S'c:/marmalade/7.5/modules/third_party/libjpeg/libjpeg.mkf'
p1475
(lp1476
I1
a(dp1477
asg1068
(dp1478
S'c:/marmalade/7.5/modules/third_party/libjpeg/h/jerror.h'
p1479
(lp1480
I1
a(dp1481
asS'c:/marmalade/7.5/modules/third_party/libjpeg/h/jdhuff.h'
p1482
(lp1483
I1
ag1481
asS'c:/marmalade/7.5/modules/third_party/libjpeg/h/cderror.h'
p1484
(lp1485
I1
ag1481
asS'c:/marmalade/7.5/modules/third_party/libjpeg/h/transupp.h'
p1486
(lp1487
I1
ag1481
asS'c:/marmalade/7.5/modules/third_party/libjpeg/h/jinclude.h'
p1488
(lp1489
I1
ag1481
asS'c:/marmalade/7.5/modules/third_party/libjpeg/h/jmorecfg.h'
p1490
(lp1491
I1
ag1481
asS'c:/marmalade/7.5/modules/third_party/libjpeg/h/jdct.h'
p1492
(lp1493
I1
ag1481
asS'c:/marmalade/7.5/modules/third_party/libjpeg/h/jmemsys.h'
p1494
(lp1495
I1
ag1481
asS'c:/marmalade/7.5/modules/third_party/libjpeg/h/jpegint.h'
p1496
(lp1497
I1
ag1481
asS'c:/marmalade/7.5/modules/third_party/libjpeg/h/jchuff.h'
p1498
(lp1499
I1
ag1481
asS'c:/marmalade/7.5/modules/third_party/libjpeg/h/cdjpeg.h'
p1500
(lp1501
I1
ag1481
asS'c:/marmalade/7.5/modules/third_party/libjpeg/h/jversion.h'
p1502
(lp1503
I1
ag1481
asS'c:/marmalade/7.5/modules/third_party/libjpeg/h/jconfig.h'
p1504
(lp1505
I1
ag1481
asS'c:/marmalade/7.5/modules/third_party/libjpeg/h/jpeglib.h'
p1506
(lp1507
I1
ag1481
assssS'files'
p1508
(dp1509
S'IwGxFontPreparedData.h'
p1510
g323
(cmkb_main
File
p1511
g325
Ntp1512
Rp1513
(dp1514
S'flags'
p1515
g1159
sS'group'
p1516
(lp1517
S"'Marmalade Studio'"
p1518
ag1155
asg349
g1171
sbsS'iterator'
p1519
g323
(g1511
g325
Ntp1520
Rp1521
(dp1522
g1515
(dp1523
sg1516
(lp1524
S"'Marmalade System (S3E)'"
p1525
aS'stdc headers'
p1526
aS'c++'
p1527
asg349
S'c:/marmalade/7.5/s3e/h/std/c++/iterator'
p1528
sbsS'PlayerMovement.h'
p1529
g323
(g1511
g325
Ntp1530
Rp1531
(dp1532
g1515
g1080
sg1516
(lp1533
sg349
g1095
sbsS'IwGL.h'
p1534
g323
(g1511
g325
Ntp1535
Rp1536
(dp1537
g1515
g1138
sg1516
(lp1538
S"'Marmalade Studio'"
p1539
ag1131
asg349
g1136
sbsS's3e.h'
p1540
g323
(g1511
g325
Ntp1541
Rp1542
(dp1543
g1515
g1523
sg1516
(lp1544
g1525
asg349
S'c:/marmalade/7.5/s3e/h/s3e.h'
p1545
sbsS'errno.h'
p1546
g323
(g1511
g325
Ntp1547
Rp1548
(dp1549
g1515
g1523
sg1516
(lp1550
g1525
aS'stdc headers'
p1551
asg349
S'c:/marmalade/7.5/s3e/h/std/errno.h'
p1552
sbsS'IwSingleton.h'
p1553
g323
(g1511
g325
Ntp1554
Rp1555
(dp1556
g1515
g1345
sg1516
(lp1557
S"'Marmalade Studio'"
p1558
ag1341
asg349
g1343
sbsS'dlfcn.h'
p1559
g323
(g1511
g325
Ntp1560
Rp1561
(dp1562
g1515
g1523
sg1516
g1550
sg349
S'c:/marmalade/7.5/s3e/h/std/dlfcn.h'
p1563
sbsS'stdio_streambuf'
p1564
g323
(g1511
g325
Ntp1565
Rp1566
(dp1567
g1515
g1523
sg1516
g1524
sg349
S'c:/marmalade/7.5/s3e/h/std/c++/stdio_streambuf'
p1568
sbsS'sched.h'
p1569
g323
(g1511
g325
Ntp1570
Rp1571
(dp1572
g1515
g1523
sg1516
g1550
sg349
S'c:/marmalade/7.5/s3e/h/std/sched.h'
p1573
sbsS'IwGeomFMat2D.h'
p1574
g323
(g1511
g325
Ntp1575
Rp1576
(dp1577
g1515
g1181
sg1516
(lp1578
S"'Marmalade Studio'"
p1579
ag1177
asg349
g1235
sbsS'cassert'
p1580
g323
(g1511
g325
Ntp1581
Rp1582
(dp1583
g1515
g1523
sg1516
g1524
sg349
S'c:/marmalade/7.5/s3e/h/std/c++/cassert'
p1584
sbsS'grp.h'
p1585
g323
(g1511
g325
Ntp1586
Rp1587
(dp1588
g1515
g1523
sg1516
g1550
sg349
S'c:/marmalade/7.5/s3e/h/std/grp.h'
p1589
sbsS'list'
p1590
g323
(g1511
g325
Ntp1591
Rp1592
(dp1593
g1515
g1523
sg1516
g1524
sg349
S'c:/marmalade/7.5/s3e/h/std/c++/list'
p1594
sbsS'IwGeomMat.h.tpl'
p1595
g323
(g1511
g325
Ntp1596
Rp1597
(dp1598
g1515
g1181
sg1516
g1578
sg349
g1231
sbsS'istream'
p1599
g323
(g1511
g325
Ntp1600
Rp1601
(dp1602
g1515
g1523
sg1516
g1524
sg349
S'c:/marmalade/7.5/s3e/h/std/c++/istream'
p1603
sbsS'jpeglib.h'
p1604
g323
(g1511
g325
Ntp1605
Rp1606
(dp1607
g1515
g1481
sg1516
(lp1608
g1473
ag1068
asg349
g1506
sbsS'iw2d_public.defines.txt'
p1609
g323
(g1511
g325
Ntp1610
Rp1611
(dp1612
g1515
g1150
sg1516
(lp1613
S"'Marmalade Studio'"
p1614
ag1143
asg349
g1153
sbsS'iostream.h'
p1615
g323
(g1511
g325
Ntp1616
Rp1617
(dp1618
g1515
g1523
sg1516
g1524
sg349
S'c:/marmalade/7.5/s3e/h/std/c++/iostream.h'
p1619
sbsS'string'
p1620
g323
(g1511
g325
Ntp1621
Rp1622
(dp1623
g1515
g1523
sg1516
g1524
sg349
S'c:/marmalade/7.5/s3e/h/std/c++/string'
p1624
sbsS'IwMemory.h'
p1625
g323
(g1511
g325
Ntp1626
Rp1627
(dp1628
g1515
g1345
sg1516
g1557
sg349
g1354
sbsS'IwGeomPlane.h'
p1629
g323
(g1511
g325
Ntp1630
Rp1631
(dp1632
g1515
g1181
sg1516
g1578
sg349
g1211
sbsS'iw2d.config.txt'
p1633
g323
(g1511
g325
Ntp1634
Rp1635
(dp1636
g1515
g1150
sg1516
g1613
sg349
g1148
sbsS'iomanip'
p1637
g323
(g1511
g325
Ntp1638
Rp1639
(dp1640
g1515
g1523
sg1516
g1524
sg349
S'c:/marmalade/7.5/s3e/h/std/c++/iomanip'
p1641
sbsS'iwgeom.mkf'
p1642
g323
(g1511
g325
Ntp1643
Rp1644
(dp1645
g1515
g1188
sg1516
g1578
sg349
g1186
sbsS'IwGxError.h'
p1646
g323
(g1511
g325
Ntp1647
Rp1648
(dp1649
g1515
g1281
sg1516
(lp1650
S"'Marmalade Studio'"
p1651
ag1277
asg349
g1300
sbsS'IwGeom.h'
p1652
g323
(g1511
g325
Ntp1653
Rp1654
(dp1655
g1515
g1181
sg1516
g1578
sg349
g1203
sbsS'IwGeomVec4.h'
p1656
g323
(g1511
g325
Ntp1657
Rp1658
(dp1659
g1515
g1181
sg1516
g1578
sg349
g1219
sbsS'dir.h'
p1660
g323
(g1511
g325
Ntp1661
Rp1662
(dp1663
g1515
g1523
sg1516
(lp1664
g1525
aS'stdc headers'
p1665
aS'sys'
p1666
asg349
S'c:/marmalade/7.5/s3e/h/std/sys/dir.h'
p1667
sbsS'locale.h'
p1668
g323
(g1511
g325
Ntp1669
Rp1670
(dp1671
g1515
g1523
sg1516
g1550
sg349
S'c:/marmalade/7.5/s3e/h/std/locale.h'
p1672
sbsS'vector'
p1673
g323
(g1511
g325
Ntp1674
Rp1675
(dp1676
g1515
g1523
sg1516
g1524
sg349
S'c:/marmalade/7.5/s3e/h/std/c++/vector'
p1677
sbsS'IwManaged.h'
p1678
g323
(g1511
g325
Ntp1679
Rp1680
(dp1681
g1515
g1345
sg1516
g1557
sg349
g1366
sbsS's3eCompass.h'
p1682
g323
(g1511
g325
Ntp1683
Rp1684
(dp1685
g1515
g1523
sg1516
g1544
sg349
S'c:/marmalade/7.5/s3e/h/s3eCompass.h'
p1686
sbsS'cderror.h'
p1687
g323
(g1511
g325
Ntp1688
Rp1689
(dp1690
g1515
g1481
sg1516
g1608
sg349
g1484
sbsS'climits'
p1691
g323
(g1511
g325
Ntp1692
Rp1693
(dp1694
g1515
g1523
sg1516
g1524
sg349
S'c:/marmalade/7.5/s3e/h/std/c++/climits'
p1695
sbsS's3eVibra.h'
p1696
g323
(g1511
g325
Ntp1697
Rp1698
(dp1699
g1515
g1523
sg1516
g1544
sg349
S'c:/marmalade/7.5/s3e/h/s3eVibra.h'
p1700
sbsS'jversion.h'
p1701
g323
(g1511
g325
Ntp1702
Rp1703
(dp1704
g1515
g1481
sg1516
g1608
sg349
g1502
sbsS'fnmatch.h'
p1705
g323
(g1511
g325
Ntp1706
Rp1707
(dp1708
g1515
g1523
sg1516
g1550
sg349
S'c:/marmalade/7.5/s3e/h/std/fnmatch.h'
p1709
sbsS'IwGxState.h'
p1710
g323
(g1511
g325
Ntp1711
Rp1712
(dp1713
g1515
g1281
sg1516
g1650
sg349
g1327
sbsS's3eAudio.h'
p1714
g323
(g1511
g325
Ntp1715
Rp1716
(dp1717
g1515
g1523
sg1516
g1544
sg349
S'c:/marmalade/7.5/s3e/h/s3eAudio.h'
p1718
sbsS'PlayerMovement.cpp'
p1719
g323
(g1511
g325
Ntp1720
Rp1721
(dp1722
g1515
g1080
sg1516
g1533
sg349
g1445
sbsS's3eSurface.h'
p1723
g323
(g1511
g325
Ntp1724
Rp1725
(dp1726
g1515
g1523
sg1516
g1544
sg349
S'c:/marmalade/7.5/s3e/h/s3eSurface.h'
p1727
sbsS'new'
p1728
g323
(g1511
g325
Ntp1729
Rp1730
(dp1731
g1515
g1523
sg1516
g1524
sg349
S'c:/marmalade/7.5/s3e/h/std/c++/new'
p1732
sbsS's3eWindow.h'
p1733
g323
(g1511
g325
Ntp1734
Rp1735
(dp1736
g1515
g1523
sg1516
(lp1737
g1525
aS'Extensions'
p1738
asg349
S'c:/marmalade/7.5/s3e/h/ext/s3eWindow.h'
p1739
sbsS'IwBuffer.h'
p1740
g323
(g1511
g325
Ntp1741
Rp1742
(dp1743
g1515
g1345
sg1516
g1557
sg349
g1348
sbsS'IwGeomQuat.h.tpl'
p1744
g323
(g1511
g325
Ntp1745
Rp1746
(dp1747
g1515
g1181
sg1516
g1578
sg349
g1193
sbsS's3eOSExec.h'
p1748
g323
(g1511
g325
Ntp1749
Rp1750
(dp1751
g1515
g1523
sg1516
g1737
sg349
S'c:/marmalade/7.5/s3e/h/ext/s3eOSExec.h'
p1752
sbsS'IwGxTransformSW.h'
p1753
g323
(g1511
g325
Ntp1754
Rp1755
(dp1756
g1515
g1281
sg1516
g1650
sg349
g1282
sbsS'IwGxMetrics.h'
p1757
g323
(g1511
g325
Ntp1758
Rp1759
(dp1760
g1515
g1281
sg1516
g1650
sg349
g1312
sbsS'iwgxfont.config.txt'
p1761
g323
(g1511
g325
Ntp1762
Rp1763
(dp1764
g1515
g1159
sg1516
g1517
sg349
g1162
sbsS'gl2platform.h'
p1765
g323
(g1511
g325
Ntp1766
Rp1767
(dp1768
g1515
g1523
sg1516
(lp1769
g1525
aS'GL'
p1770
aS'GLES 2.0'
p1771
asg349
S'c:/marmalade/7.5/s3e/h/GLES2/gl2platform.h'
p1772
sbsS'iw2dscenegraph.defines.txt'
p1773
g323
(g1511
g325
Ntp1774
Rp1775
(dp1776
g1515
g1123
sg1516
(lp1777
S"'Marmalade Studio'"
p1778
ag1119
asg349
g1124
sbsS'queue'
p1779
g323
(g1511
g325
Ntp1780
Rp1781
(dp1782
g1515
g1523
sg1516
g1524
sg349
S'c:/marmalade/7.5/s3e/h/std/c++/queue'
p1783
sbsS'time_1.h'
p1784
g323
(g1511
g325
Ntp1785
Rp1786
(dp1787
g1515
g1523
sg1516
g1664
sg349
S'c:/marmalade/7.5/s3e/h/std/sys/time.h'
p1788
sbsS'Iw2D.h'
p1789
g323
(g1511
g325
Ntp1790
Rp1791
(dp1792
g1515
g1150
sg1516
g1613
sg349
g1151
sbsS'IwGeomVec2.h'
p1793
g323
(g1511
g325
Ntp1794
Rp1795
(dp1796
g1515
g1181
sg1516
g1578
sg349
g1195
sbsS's3eDevice.h'
p1797
g323
(g1511
g325
Ntp1798
Rp1799
(dp1800
g1515
g1523
sg1516
g1544
sg349
S'c:/marmalade/7.5/s3e/h/s3eDevice.h'
p1801
sbsS'malloc.h'
p1802
g323
(g1511
g325
Ntp1803
Rp1804
(dp1805
g1515
g1523
sg1516
g1550
sg349
S'c:/marmalade/7.5/s3e/h/std/malloc.h'
p1806
sbsS'stdarg.h'
p1807
g323
(g1511
g325
Ntp1808
Rp1809
(dp1810
g1515
g1523
sg1516
g1550
sg349
S'c:/marmalade/7.5/s3e/h/std/stdarg.h'
p1811
sbsS'IwGeomCore.h'
p1812
g323
(g1511
g325
Ntp1813
Rp1814
(dp1815
g1515
g1181
sg1516
g1578
sg349
g1221
sbsS'Iw2DSceneGraph.h'
p1816
g323
(g1511
g325
Ntp1817
Rp1818
(dp1819
g1515
g1123
sg1516
g1777
sg349
g1126
sbsS'AmazingMaze.cpp'
p1820
g323
(g1511
g325
Ntp1821
Rp1822
(dp1823
g1515
g1080
sg1516
g1533
sg349
g1115
sbsS'endian.h'
p1824
g323
(g1511
g325
Ntp1825
Rp1826
(dp1827
g1515
g1523
sg1516
g1550
sg349
S'c:/marmalade/7.5/s3e/h/std/endian.h'
p1828
sbsS'tiniconv.mkf'
p1829
g323
(g1511
g325
Ntp1830
Rp1831
(dp1832
g1515
g1085
sg1516
(lp1833
g1081
asg349
g1083
sbsS'gl3ext.h'
p1834
g323
(g1511
g325
Ntp1835
Rp1836
(dp1837
g1515
g1523
sg1516
(lp1838
g1525
aS'GL'
p1839
aS'GLES 3.0'
p1840
asg349
S'c:/marmalade/7.5/s3e/h/GLES3/gl3ext.h'
p1841
sbsS'glob.h'
p1842
g323
(g1511
g325
Ntp1843
Rp1844
(dp1845
g1515
g1523
sg1516
g1550
sg349
S'c:/marmalade/7.5/s3e/h/std/glob.h'
p1846
sbsS'MazeGenerator.h'
p1847
g323
(g1511
g325
Ntp1848
Rp1849
(dp1850
g1515
g1080
sg1516
g1533
sg349
g1091
sbsS's3eCamera.h'
p1851
g323
(g1511
g325
Ntp1852
Rp1853
(dp1854
g1515
g1523
sg1516
g1544
sg349
S'c:/marmalade/7.5/s3e/h/s3eCamera.h'
p1855
sbsS'jconfig.h'
p1856
g323
(g1511
g325
Ntp1857
Rp1858
(dp1859
g1515
g1481
sg1516
g1608
sg349
g1504
sbsS'memory'
p1860
g323
(g1511
g325
Ntp1861
Rp1862
(dp1863
g1515
g1523
sg1516
g1524
sg349
S'c:/marmalade/7.5/s3e/h/std/c++/memory'
p1864
sbsS'egl.h'
p1865
g323
(g1511
g325
Ntp1866
Rp1867
(dp1868
g1515
g1523
sg1516
(lp1869
g1525
aS'GL'
p1870
aS'EGL'
p1871
asg349
S'c:/marmalade/7.5/s3e/h/EGL/egl.h'
p1872
sbsS'IwClip.inl'
p1873
g323
(g1511
g325
Ntp1874
Rp1875
(dp1876
g1515
g1281
sg1516
g1650
sg349
g1314
sbsS'IwMemManagerDL.h'
p1877
g323
(g1511
g325
Ntp1878
Rp1879
(dp1880
g1515
g1345
sg1516
g1557
sg349
g1398
sbsS'deque'
p1881
g323
(g1511
g325
Ntp1882
Rp1883
(dp1884
g1515
g1523
sg1516
g1524
sg349
S'c:/marmalade/7.5/s3e/h/std/c++/deque'
p1885
sbsS'IwString.h'
p1886
g323
(g1511
g325
Ntp1887
Rp1888
(dp1889
g1515
g1345
sg1516
g1557
sg349
g1419
sbsS'cwchar'
p1890
g323
(g1511
g325
Ntp1891
Rp1892
(dp1893
g1515
g1523
sg1516
g1524
sg349
S'c:/marmalade/7.5/s3e/h/std/c++/cwchar'
p1894
sbsS'iwutil.mkf'
p1895
g323
(g1511
g325
Ntp1896
Rp1897
(dp1898
g1515
g1416
sg1516
g1557
sg349
g1414
sbsS'csignal'
p1899
g323
(g1511
g325
Ntp1900
Rp1901
(dp1902
g1515
g1523
sg1516
g1524
sg349
S'c:/marmalade/7.5/s3e/h/std/c++/csignal'
p1903
sbsS'float.h'
p1904
g323
(g1511
g325
Ntp1905
Rp1906
(dp1907
g1515
g1523
sg1516
g1550
sg349
S'c:/marmalade/7.5/s3e/h/std/float.h'
p1908
sbsS'pthread_alloc'
p1909
g323
(g1511
g325
Ntp1910
Rp1911
(dp1912
g1515
g1523
sg1516
g1524
sg349
S'c:/marmalade/7.5/s3e/h/std/c++/pthread_alloc'
p1913
sbsS'getopt.h'
p1914
g323
(g1511
g325
Ntp1915
Rp1916
(dp1917
g1515
g1523
sg1516
g1550
sg349
S'c:/marmalade/7.5/s3e/h/std/getopt.h'
p1918
sbsS'IwOptimiseARM.h'
p1919
g323
(g1511
g325
Ntp1920
Rp1921
(dp1922
g1515
g1345
sg1516
g1557
sg349
g1390
sbsS'times.h'
p1923
g323
(g1511
g325
Ntp1924
Rp1925
(dp1926
g1515
g1523
sg1516
g1664
sg349
S'c:/marmalade/7.5/s3e/h/std/sys/times.h'
p1927
sbsS'IwGeomFSphere.h'
p1928
g323
(g1511
g325
Ntp1929
Rp1930
(dp1931
g1515
g1181
sg1516
g1578
sg349
g1241
sbsS'IwTypes.h'
p1932
g323
(g1511
g325
Ntp1933
Rp1934
(dp1935
g1515
g1345
sg1516
g1557
sg349
g1437
sbsS'unistd.h'
p1936
g323
(g1511
g325
Ntp1937
Rp1938
(dp1939
g1515
g1523
sg1516
g1550
sg349
S'c:/marmalade/7.5/s3e/h/std/unistd.h'
p1940
sbsS's3eCompression.h'
p1941
g323
(g1511
g325
Ntp1942
Rp1943
(dp1944
g1515
g1523
sg1516
g1544
sg349
S'c:/marmalade/7.5/s3e/h/s3eCompression.h'
p1945
sbsS'langinfo.h'
p1946
g323
(g1511
g325
Ntp1947
Rp1948
(dp1949
g1515
g1523
sg1516
g1550
sg349
S'c:/marmalade/7.5/s3e/h/std/langinfo.h'
p1950
sbsS's3edebugHeap.h'
p1951
g323
(g1511
g325
Ntp1952
Rp1953
(dp1954
g1515
g1523
sg1516
g1737
sg349
S'c:/marmalade/7.5/s3e/h/ext/s3edebugHeap.h'
p1955
sbsS'AirplayVersion.h'
p1956
g323
(g1511
g325
Ntp1957
Rp1958
(dp1959
g1515
g1523
sg1516
g1544
sg349
S'c:/marmalade/7.5/s3e/h/AirplayVersion.h'
p1960
sbsS'gl2extimg.h'
p1961
g323
(g1511
g325
Ntp1962
Rp1963
(dp1964
g1515
g1523
sg1516
g1769
sg349
S'c:/marmalade/7.5/s3e/h/GLES2/gl2extimg.h'
p1965
sbsS'app.config.txt'
p1966
g323
(g1511
g325
Ntp1967
Rp1968
(dp1969
g1515
(dp1970
sg1516
g4
sg349
S'd:/School/cs115/AmazingMaze/data/app.config.txt'
p1971
sbsS'IwGeomSqrt.h'
p1972
g323
(g1511
g325
Ntp1973
Rp1974
(dp1975
g1515
g1181
sg1516
g1578
sg349
g1189
sbsS'tiniconv_int.h'
p1976
g323
(g1511
g325
Ntp1977
Rp1978
(dp1979
g1515
g1088
sg1516
g1833
sg349
g1086
sbsS'syslog.h'
p1980
g323
(g1511
g325
Ntp1981
Rp1982
(dp1983
g1515
g1523
sg1516
g1550
sg349
S'c:/marmalade/7.5/s3e/h/std/syslog.h'
p1984
sbsS'IwGxFontTypes.h'
p1985
g323
(g1511
g325
Ntp1986
Rp1987
(dp1988
g1515
g1159
sg1516
g1517
sg349
g1160
sbsS'IwGeomFIntersect.h'
p1989
g323
(g1511
g325
Ntp1990
Rp1991
(dp1992
g1515
g1181
sg1516
g1578
sg349
g1251
sbsS'hash_map'
p1993
g323
(g1511
g325
Ntp1994
Rp1995
(dp1996
g1515
g1523
sg1516
g1524
sg349
S'c:/marmalade/7.5/s3e/h/std/c++/hash_map'
p1997
sbsS's3e.mkf'
p1998
g323
(g1511
g325
Ntp1999
Rp2000
(dp2001
g1515
(dp2002
sg1516
g1544
sg349
S'c:/marmalade/7.5/s3e/s3e.mkf'
p2003
sbsS'IwGeomMat2D.h.tpl'
p2004
g323
(g1511
g325
Ntp2005
Rp2006
(dp2007
g1515
g1181
sg1516
g1578
sg349
g1233
sbsS's3eOSReadString.h'
p2008
g323
(g1511
g325
Ntp2009
Rp2010
(dp2011
g1515
g1523
sg1516
g1737
sg349
S'c:/marmalade/7.5/s3e/h/ext/s3eOSReadString.h'
p2012
sbsS'map'
p2013
g323
(g1511
g325
Ntp2014
Rp2015
(dp2016
g1515
g1523
sg1516
g1524
sg349
S'c:/marmalade/7.5/s3e/h/std/c++/map'
p2017
sbsS'iwtween.mkf'
p2018
g323
(g1511
g325
Ntp2019
Rp2020
(dp2021
g1515
g1467
sg1516
(lp2022
g1458
asg349
g1465
sbsS'IwOptimiseSpeed.h'
p2023
g323
(g1511
g325
Ntp2024
Rp2025
(dp2026
g1515
g1345
sg1516
g1557
sg349
g1402
sbsS'msl_string.h'
p2027
g323
(g1511
g325
Ntp2028
Rp2029
(dp2030
g1515
g1523
sg1516
g1524
sg349
S'c:/marmalade/7.5/s3e/h/std/c++/msl_string.h'
p2031
sbsS'select.h'
p2032
g323
(g1511
g325
Ntp2033
Rp2034
(dp2035
g1515
g1523
sg1516
g1664
sg349
S'c:/marmalade/7.5/s3e/h/std/sys/select.h'
p2036
sbsS'zlib.mkf'
p2037
g323
(g1511
g325
Ntp2038
Rp2039
(dp2040
g1515
g1457
sg1516
(lp2041
g1447
asg349
g1455
sbsS'signal.h'
p2042
g323
(g1511
g325
Ntp2043
Rp2044
(dp2045
g1515
g1523
sg1516
g1550
sg349
S'c:/marmalade/7.5/s3e/h/std/signal.h'
p2046
sbsS'sigcontext.h'
p2047
g323
(g1511
g325
Ntp2048
Rp2049
(dp2050
g1515
g1523
sg1516
g1550
sg349
S'c:/marmalade/7.5/s3e/h/std/sigcontext.h'
p2051
sbsS'libpng.mkf'
p2052
g323
(g1511
g325
Ntp2053
Rp2054
(dp2055
g1515
g1077
sg1516
(lp2056
g1066
asg349
g1075
sbsS's3eClipboard.h'
p2057
g323
(g1511
g325
Ntp2058
Rp2059
(dp2060
g1515
g1523
sg1516
g1544
sg349
S'c:/marmalade/7.5/s3e/h/s3eClipboard.h'
p2061
sbsS'IwGxFuncTable.h'
p2062
g323
(g1511
g325
Ntp2063
Rp2064
(dp2065
g1515
g1281
sg1516
g1650
sg349
g1286
sbsS'IwResHandlerGROUP.h'
p2066
g323
(g1511
g325
Ntp2067
Rp2068
(dp2069
g1515
g1257
sg1516
(lp2070
g1117
ag1253
asg349
g1262
sbsS's3eDebug.h'
p2071
g323
(g1511
g325
Ntp2072
Rp2073
(dp2074
g1515
g1523
sg1516
g1544
sg349
S'c:/marmalade/7.5/s3e/h/s3eDebug.h'
p2075
sbsS'socket.h'
p2076
g323
(g1511
g325
Ntp2077
Rp2078
(dp2079
g1515
g1523
sg1516
g1664
sg349
S'c:/marmalade/7.5/s3e/h/std/sys/socket.h'
p2080
sbsS'glext.h'
p2081
g323
(g1511
g325
Ntp2082
Rp2083
(dp2084
g1515
g1523
sg1516
(lp2085
g1525
aS'GL'
p2086
aS'GLES 1.x'
p2087
asg349
S'c:/marmalade/7.5/s3e/h/GLES/glext.h'
p2088
sbsS'typeinfo.h'
p2089
g323
(g1511
g325
Ntp2090
Rp2091
(dp2092
g1515
g1523
sg1516
g1524
sg349
S'c:/marmalade/7.5/s3e/h/std/c++/typeinfo.h'
p2093
sbsS'typeinfo'
p2094
g323
(g1511
g325
Ntp2095
Rp2096
(dp2097
g1515
g1523
sg1516
g1524
sg349
S'c:/marmalade/7.5/s3e/h/std/c++/typeinfo'
p2098
sbsS'fstream.h'
p2099
g323
(g1511
g325
Ntp2100
Rp2101
(dp2102
g1515
g1523
sg1516
g1524
sg349
S'c:/marmalade/7.5/s3e/h/std/c++/fstream.h'
p2103
sbsS's3ePointer.h'
p2104
g323
(g1511
g325
Ntp2105
Rp2106
(dp2107
g1515
g1523
sg1516
g1544
sg349
S'c:/marmalade/7.5/s3e/h/s3ePointer.h'
p2108
sbsS'iw2d.mkf'
p2109
g323
(g1511
g325
Ntp2110
Rp2111
(dp2112
g1515
g1147
sg1516
g1613
sg349
g1145
sbsS'PVRTexTool.h'
p2113
g323
(g1511
g325
Ntp2114
Rp2115
(dp2116
g1515
g1107
sg1516
(lp2117
g1099
ag1101
asg349
g1110
sbsS's3eGL.h'
p2118
g323
(g1511
g325
Ntp2119
Rp2120
(dp2121
g1515
g1523
sg1516
g1544
sg349
S'c:/marmalade/7.5/s3e/h/s3eGL.h'
p2122
sbsS'IwGeomFVec2.h'
p2123
g323
(g1511
g325
Ntp2124
Rp2125
(dp2126
g1515
g1181
sg1516
g1578
sg349
g1215
sbsS'IwGeomSVec4.h'
p2127
g323
(g1511
g325
Ntp2128
Rp2129
(dp2130
g1515
g1181
sg1516
g1578
sg349
g1217
sbsS'poll.h'
p2131
g323
(g1511
g325
Ntp2132
Rp2133
(dp2134
g1515
g1523
sg1516
g1550
sg349
S'c:/marmalade/7.5/s3e/h/std/poll.h'
p2135
sbsS'IwMatAnim.h'
p2136
g323
(g1511
g325
Ntp2137
Rp2138
(dp2139
g1515
g1281
sg1516
g1650
sg349
g1294
sbsS'PVRTexTool.defines.txt'
p2140
g323
(g1511
g325
Ntp2141
Rp2142
(dp2143
g1515
g1107
sg1516
(lp2144
g1099
ag1101
ag1103
asg349
g1105
sbsS'IwGx.h'
p2145
g323
(g1511
g325
Ntp2146
Rp2147
(dp2148
g1515
g1281
sg1516
g1650
sg349
g1302
sbsS'valarray'
p2149
g323
(g1511
g325
Ntp2150
Rp2151
(dp2152
g1515
g1523
sg1516
g1524
sg349
S'c:/marmalade/7.5/s3e/h/std/c++/valarray'
p2153
sbsS'iosfwd'
p2154
g323
(g1511
g325
Ntp2155
Rp2156
(dp2157
g1515
g1523
sg1516
g1524
sg349
S'c:/marmalade/7.5/s3e/h/std/c++/iosfwd'
p2158
sbsS'gl2.h'
p2159
g323
(g1511
g325
Ntp2160
Rp2161
(dp2162
g1515
g1523
sg1516
g1769
sg349
S'c:/marmalade/7.5/s3e/h/GLES2/gl2.h'
p2163
sbsS'jpegint.h'
p2164
g323
(g1511
g325
Ntp2165
Rp2166
(dp2167
g1515
g1481
sg1516
g1608
sg349
g1496
sbsS'stdiostream.h'
p2168
g323
(g1511
g325
Ntp2169
Rp2170
(dp2171
g1515
g1523
sg1516
g1524
sg349
S'c:/marmalade/7.5/s3e/h/std/c++/stdiostream.h'
p2172
sbsS'mem.h'
p2173
g323
(g1511
g325
Ntp2174
Rp2175
(dp2176
g1515
g1523
sg1516
g1524
sg349
S'c:/marmalade/7.5/s3e/h/std/c++/mem.h'
p2177
sbsS'jerror.h'
p2178
g323
(g1511
g325
Ntp2179
Rp2180
(dp2181
g1515
g1481
sg1516
g1608
sg349
g1479
sbsS'zconf.h'
p2182
g323
(g1511
g325
Ntp2183
Rp2184
(dp2185
g1515
g1452
sg1516
(lp2186
g1447
ag1068
asg349
g1450
sbsS's3e.config.txt'
p2187
g323
(g1511
g325
Ntp2188
Rp2189
(dp2190
g1515
g1523
sg1516
g1544
sg349
S'c:/marmalade/7.5/s3e/s3e.config.txt'
p2191
sbsS'numeric'
p2192
g323
(g1511
g325
Ntp2193
Rp2194
(dp2195
g1515
g1523
sg1516
g1524
sg349
S'c:/marmalade/7.5/s3e/h/std/c++/numeric'
p2196
sbsS'utime.h'
p2197
g323
(g1511
g325
Ntp2198
Rp2199
(dp2200
g1515
g1523
sg1516
g1550
sg349
S'c:/marmalade/7.5/s3e/h/std/utime.h'
p2201
sbsS'jdhuff.h'
p2202
g323
(g1511
g325
Ntp2203
Rp2204
(dp2205
g1515
g1481
sg1516
g1608
sg349
g1482
sbsS'IwGxStream.h'
p2206
g323
(g1511
g325
Ntp2207
Rp2208
(dp2209
g1515
g1281
sg1516
g1650
sg349
g1292
sbsS'IwImage.h'
p2210
g323
(g1511
g325
Ntp2211
Rp2212
(dp2213
g1515
g1345
sg1516
g1557
sg349
g1388
sbsS's3eImagePicker.h'
p2214
g323
(g1511
g325
Ntp2215
Rp2216
(dp2217
g1515
g1523
sg1516
g1737
sg349
S'c:/marmalade/7.5/s3e/h/ext/s3eImagePicker.h'
p2218
sbsS'stdlib.h'
p2219
g323
(g1511
g325
Ntp2220
Rp2221
(dp2222
g1515
g1523
sg1516
g1550
sg349
S'c:/marmalade/7.5/s3e/h/std/stdlib.h'
p2223
sbsS'IwCopyingPtr.h'
p2224
g323
(g1511
g325
Ntp2225
Rp2226
(dp2227
g1515
g1345
sg1516
g1557
sg349
g1427
sbsS'iostream'
p2228
g323
(g1511
g325
Ntp2229
Rp2230
(dp2231
g1515
g1523
sg1516
g1524
sg349
S'c:/marmalade/7.5/s3e/h/std/c++/iostream'
p2232
sbsS'png.h'
p2233
g323
(g1511
g325
Ntp2234
Rp2235
(dp2236
g1515
g1072
sg1516
(lp2237
g1066
ag1068
asg349
g1070
sbsS'stddef.h'
p2238
g323
(g1511
g325
Ntp2239
Rp2240
(dp2241
g1515
g1523
sg1516
g1550
sg349
S'c:/marmalade/7.5/s3e/h/std/stddef.h'
p2242
sbsS'setjmp_win32.h'
p2243
g323
(g1511
g325
Ntp2244
Rp2245
(dp2246
g1515
g1523
sg1516
g1550
sg349
S'c:/marmalade/7.5/s3e/h/std/setjmp_win32.h'
p2247
sbsS'IwGxPrint.h'
p2248
g323
(g1511
g325
Ntp2249
Rp2250
(dp2251
g1515
g1281
sg1516
g1650
sg349
g1290
sbsS'iwgx_public.defines.txt'
p2252
g323
(g1511
g325
Ntp2253
Rp2254
(dp2255
g1515
g1281
sg1516
g1650
sg349
g1304
sbsS'streambuf.h'
p2256
g323
(g1511
g325
Ntp2257
Rp2258
(dp2259
g1515
g1523
sg1516
g1524
sg349
S'c:/marmalade/7.5/s3e/h/std/c++/streambuf.h'
p2260
sbsS'IwGeomFPlane.h'
p2261
g323
(g1511
g325
Ntp2262
Rp2263
(dp2264
g1515
g1181
sg1516
g1578
sg349
g1245
sbsS'wchar.h'
p2265
g323
(g1511
g325
Ntp2266
Rp2267
(dp2268
g1515
g1523
sg1516
g1550
sg349
S'c:/marmalade/7.5/s3e/h/std/wchar.h'
p2269
sbsS's3eCameraCapture.h'
p2270
g323
(g1511
g325
Ntp2271
Rp2272
(dp2273
g1515
g1523
sg1516
g1737
sg349
S'c:/marmalade/7.5/s3e/h/ext/s3eCameraCapture.h'
p2274
sbsS'eglext.h'
p2275
g323
(g1511
g325
Ntp2276
Rp2277
(dp2278
g1515
g1523
sg1516
g1869
sg349
S'c:/marmalade/7.5/s3e/h/EGL/eglext.h'
p2279
sbsS'IwResHandlerImage.h'
p2280
g323
(g1511
g325
Ntp2281
Rp2282
(dp2283
g1515
g1257
sg1516
g2070
sg349
g1275
sbsS'strstream.h'
p2284
g323
(g1511
g325
Ntp2285
Rp2286
(dp2287
g1515
g1523
sg1516
g1524
sg349
S'c:/marmalade/7.5/s3e/h/std/c++/strstream.h'
p2288
sbsS'tiniconv.h'
p2289
g323
(g1511
g325
Ntp2290
Rp2291
(dp2292
g1515
g1088
sg1516
g1833
sg349
g1089
sbsS'IwGLExt.h'
p2293
g323
(g1511
g325
Ntp2294
Rp2295
(dp2296
g1515
g1138
sg1516
g1538
sg349
g1141
sbsS'app.icf'
p2297
g323
(g1511
g325
Ntp2298
Rp2299
(dp2300
g1515
(dp2301
sg1516
g4
sg349
S'd:/School/cs115/AmazingMaze/data/app.icf'
p2302
sbsS'IwClassFactory.h'
p2303
g323
(g1511
g325
Ntp2304
Rp2305
(dp2306
g1515
g1345
sg1516
g1557
sg349
g1362
sbsS'file.h'
p2307
g323
(g1511
g325
Ntp2308
Rp2309
(dp2310
g1515
g1523
sg1516
g1664
sg349
S'c:/marmalade/7.5/s3e/h/std/sys/file.h'
p2311
sbsS'cstring'
p2312
g323
(g1511
g325
Ntp2313
Rp2314
(dp2315
g1515
g1523
sg1516
g1524
sg349
S'c:/marmalade/7.5/s3e/h/std/c++/cstring'
p2316
sbsS'iwutil.config.txt'
p2317
g323
(g1511
g325
Ntp2318
Rp2319
(dp2320
g1515
g1345
sg1516
g1557
sg349
g1378
sbsS's3eSMS.h'
p2321
g323
(g1511
g325
Ntp2322
Rp2323
(dp2324
g1515
g1523
sg1516
g1737
sg349
S'c:/marmalade/7.5/s3e/h/ext/s3eSMS.h'
p2325
sbsS'limits.h'
p2326
g323
(g1511
g325
Ntp2327
Rp2328
(dp2329
g1515
g1523
sg1516
g1550
sg349
S'c:/marmalade/7.5/s3e/h/std/limits.h'
p2330
sbsS'iwgl.config.txt'
p2331
g323
(g1511
g325
Ntp2332
Rp2333
(dp2334
g1515
g1138
sg1516
g1538
sg349
g1139
sbsS'IwMaterial.h'
p2335
g323
(g1511
g325
Ntp2336
Rp2337
(dp2338
g1515
g1281
sg1516
g1650
sg349
g1310
sbsS'PVRTexTool_interface.cpp'
p2339
g323
(g1511
g325
Ntp2340
Rp2341
(dp2342
g1515
g1107
sg1516
g2144
sg349
g1108
sbsS'IwGxSurface.h'
p2343
g323
(g1511
g325
Ntp2344
Rp2345
(dp2346
g1515
g1281
sg1516
g1650
sg349
g1298
sbsS's3eSocket.h'
p2347
g323
(g1511
g325
Ntp2348
Rp2349
(dp2350
g1515
g1523
sg1516
g1544
sg349
S'c:/marmalade/7.5/s3e/h/s3eSocket.h'
p2351
sbsS'IwAutoFile.h'
p2352
g323
(g1511
g325
Ntp2353
Rp2354
(dp2355
g1515
g1345
sg1516
g1557
sg349
g1406
sbsS'ipc.h'
p2356
g323
(g1511
g325
Ntp2357
Rp2358
(dp2359
g1515
g1523
sg1516
g1664
sg349
S'c:/marmalade/7.5/s3e/h/std/sys/ipc.h'
p2360
sbsS'poll_1.h'
p2361
g323
(g1511
g325
Ntp2362
Rp2363
(dp2364
g1515
g1523
sg1516
g1664
sg349
S'c:/marmalade/7.5/s3e/h/std/sys/poll.h'
p2365
sbsS's3eThread.h'
p2366
g323
(g1511
g325
Ntp2367
Rp2368
(dp2369
g1515
g1523
sg1516
g1544
sg349
S'c:/marmalade/7.5/s3e/h/s3eThread.h'
p2370
sbsS'ucontext.h'
p2371
g323
(g1511
g325
Ntp2372
Rp2373
(dp2374
g1515
g1523
sg1516
g1550
sg349
S'c:/marmalade/7.5/s3e/h/std/ucontext.h'
p2375
sbsS'time.h'
p2376
g323
(g1511
g325
Ntp2377
Rp2378
(dp2379
g1515
g1523
sg1516
g1550
sg349
S'c:/marmalade/7.5/s3e/h/std/time.h'
p2380
sbsS'jchuff.h'
p2381
g323
(g1511
g325
Ntp2382
Rp2383
(dp2384
g1515
g1481
sg1516
g1608
sg349
g1498
sbsS's3eSoundRecord.h'
p2385
g323
(g1511
g325
Ntp2386
Rp2387
(dp2388
g1515
g1523
sg1516
g1544
sg349
S'c:/marmalade/7.5/s3e/h/s3eSoundRecord.h'
p2389
sbsS'IwFibre.h'
p2390
g323
(g1511
g325
Ntp2391
Rp2392
(dp2393
g1515
g1345
sg1516
g1557
sg349
g1431
sbsS's3eVersion.h'
p2394
g323
(g1511
g325
Ntp2395
Rp2396
(dp2397
g1515
g1523
sg1516
g1544
sg349
S'c:/marmalade/7.5/s3e/h/s3eVersion.h'
p2398
sbsS'IwGxFontGlyph.h'
p2399
g323
(g1511
g325
Ntp2400
Rp2401
(dp2402
g1515
g1159
sg1516
g1517
sg349
g1157
sbsS's3eTypes.h'
p2403
g323
(g1511
g325
Ntp2404
Rp2405
(dp2406
g1515
g1523
sg1516
g1544
sg349
S'c:/marmalade/7.5/s3e/h/s3eTypes.h'
p2407
sbsS'signal_2.h'
p2408
g323
(g1511
g325
Ntp2409
Rp2410
(dp2411
g1515
g1523
sg1516
g1524
sg349
S'c:/marmalade/7.5/s3e/h/std/c++/signal.h'
p2412
sbsS'termios.h'
p2413
g323
(g1511
g325
Ntp2414
Rp2415
(dp2416
g1515
g1523
sg1516
g1550
sg349
S'c:/marmalade/7.5/s3e/h/std/termios.h'
p2417
sbsS'iw2dscenegraph.mkf'
p2418
g323
(g1511
g325
Ntp2419
Rp2420
(dp2421
g1515
g1130
sg1516
g1777
sg349
g1128
sbsS'slist'
p2422
g323
(g1511
g325
Ntp2423
Rp2424
(dp2425
g1515
g1523
sg1516
g1524
sg349
S'c:/marmalade/7.5/s3e/h/std/c++/slist'
p2426
sbsS'cstdlib'
p2427
g323
(g1511
g325
Ntp2428
Rp2429
(dp2430
g1515
g1523
sg1516
g1524
sg349
S'c:/marmalade/7.5/s3e/h/std/c++/cstdlib'
p2431
sbsS's3eLocation.h'
p2432
g323
(g1511
g325
Ntp2433
Rp2434
(dp2435
g1515
g1523
sg1516
g1544
sg349
S'c:/marmalade/7.5/s3e/h/s3eLocation.h'
p2436
sbsS'IwMemBucketHelpers.h'
p2437
g323
(g1511
g325
Ntp2438
Rp2439
(dp2440
g1515
g1345
sg1516
g1557
sg349
g1382
sbsS's3eHash.h'
p2441
g323
(g1511
g325
Ntp2442
Rp2443
(dp2444
g1515
g1523
sg1516
g1544
sg349
S'c:/marmalade/7.5/s3e/h/s3eHash.h'
p2445
sbsS'IwGeomFMat.h'
p2446
g323
(g1511
g325
Ntp2447
Rp2448
(dp2449
g1515
g1181
sg1516
g1578
sg349
g1209
sbsS'type_traits.h'
p2450
g323
(g1511
g325
Ntp2451
Rp2452
(dp2453
g1515
g1523
sg1516
g1524
sg349
S'c:/marmalade/7.5/s3e/h/std/c++/type_traits.h'
p2454
sbsS's3eAtomic.h'
p2455
g323
(g1511
g325
Ntp2456
Rp2457
(dp2458
g1515
g1523
sg1516
g1544
sg349
S'c:/marmalade/7.5/s3e/h/s3eAtomic.h'
p2459
sbsS'IwMenu.h'
p2460
g323
(g1511
g325
Ntp2461
Rp2462
(dp2463
g1515
g1345
sg1516
g1557
sg349
g1435
sbsS'IwResHandlerITX.h'
p2464
g323
(g1511
g325
Ntp2465
Rp2466
(dp2467
g1515
g1257
sg1516
g2070
sg349
g1255
sbsS'IwArray.h'
p2468
g323
(g1511
g325
Ntp2469
Rp2470
(dp2471
g1515
g1345
sg1516
g1557
sg349
g1433
sbsS'IwUTF8.h'
p2472
g323
(g1511
g325
Ntp2473
Rp2474
(dp2475
g1515
g1345
sg1516
g1557
sg349
g1376
sbsS'math_rvct.h'
p2476
g323
(g1511
g325
Ntp2477
Rp2478
(dp2479
g1515
g1523
sg1516
g1550
sg349
S'c:/marmalade/7.5/s3e/h/std/math_rvct.h'
p2480
sbsS'IwUtil.h'
p2481
g323
(g1511
g325
Ntp2482
Rp2483
(dp2484
g1515
g1345
sg1516
g1557
sg349
g1417
sbsS'IwFColour.h'
p2485
g323
(g1511
g325
Ntp2486
Rp2487
(dp2488
g1515
g1281
sg1516
g1650
sg349
g1316
sbsS'wctype.h'
p2489
g323
(g1511
g325
Ntp2490
Rp2491
(dp2492
g1515
g1523
sg1516
g1550
sg349
S'c:/marmalade/7.5/s3e/h/std/wctype.h'
p2493
sbsS'cstddef'
p2494
g323
(g1511
g325
Ntp2495
Rp2496
(dp2497
g1515
g1523
sg1516
g1524
sg349
S'c:/marmalade/7.5/s3e/h/std/c++/cstddef'
p2498
sbsS'assert.h'
p2499
g323
(g1511
g325
Ntp2500
Rp2501
(dp2502
g1515
g1523
sg1516
g1550
sg349
S'c:/marmalade/7.5/s3e/h/std/assert.h'
p2503
sbsS'mman.h'
p2504
g323
(g1511
g325
Ntp2505
Rp2506
(dp2507
g1515
g1523
sg1516
g1664
sg349
S'c:/marmalade/7.5/s3e/h/std/sys/mman.h'
p2508
sbsS'IwRandom.h'
p2509
g323
(g1511
g325
Ntp2510
Rp2511
(dp2512
g1515
g1345
sg1516
g1557
sg349
g1372
sbsS'libgen.h'
p2513
g323
(g1511
g325
Ntp2514
Rp2515
(dp2516
g1515
g1523
sg1516
g1550
sg349
S'c:/marmalade/7.5/s3e/h/std/libgen.h'
p2517
sbsS'utsname.h'
p2518
g323
(g1511
g325
Ntp2519
Rp2520
(dp2521
g1515
g1523
sg1516
g1664
sg349
S'c:/marmalade/7.5/s3e/h/std/sys/utsname.h'
p2522
sbsS'wait.h'
p2523
g323
(g1511
g325
Ntp2524
Rp2525
(dp2526
g1515
g1523
sg1516
g1664
sg349
S'c:/marmalade/7.5/s3e/h/std/sys/wait.h'
p2527
sbsS'param.h'
p2528
g323
(g1511
g325
Ntp2529
Rp2530
(dp2531
g1515
g1523
sg1516
g1664
sg349
S'c:/marmalade/7.5/s3e/h/std/sys/param.h'
p2532
sbsS'IwDivide.h'
p2533
g323
(g1511
g325
Ntp2534
Rp2535
(dp2536
g1515
g1345
sg1516
g1557
sg349
g1352
sbsS'Iw2DSceneGraphCore.cpp'
p2537
g323
(g1511
g325
Ntp2538
Rp2539
(dp2540
g1515
g1338
sg1516
(lp2541
S"'Marmalade Studio'"
p2542
ag1331
asg349
g1339
sbsS'IwResManager.h'
p2543
g323
(g1511
g325
Ntp2544
Rp2545
(dp2546
g1515
g1257
sg1516
g2070
sg349
g1264
sbsS'ostream'
p2547
g323
(g1511
g325
Ntp2548
Rp2549
(dp2550
g1515
g1523
sg1516
g1524
sg349
S'c:/marmalade/7.5/s3e/h/std/c++/ostream'
p2551
sbsS'cwctype'
p2552
g323
(g1511
g325
Ntp2553
Rp2554
(dp2555
g1515
g1523
sg1516
g1524
sg349
S'c:/marmalade/7.5/s3e/h/std/c++/cwctype'
p2556
sbsS'set'
p2557
g323
(g1511
g325
Ntp2558
Rp2559
(dp2560
g1515
g1523
sg1516
g1524
sg349
S'c:/marmalade/7.5/s3e/h/std/c++/set'
p2561
sbsS'IwGeomSQuat.h'
p2562
g323
(g1511
g325
Ntp2563
Rp2564
(dp2565
g1515
g1181
sg1516
g1578
sg349
g1205
sbsS'locale'
p2566
g323
(g1511
g325
Ntp2567
Rp2568
(dp2569
g1515
g1523
sg1516
g1524
sg349
S'c:/marmalade/7.5/s3e/h/std/c++/locale'
p2570
sbsS'cstdio'
p2571
g323
(g1511
g325
Ntp2572
Rp2573
(dp2574
g1515
g1523
sg1516
g1524
sg349
S'c:/marmalade/7.5/s3e/h/std/c++/cstdio'
p2575
sbsS'MazeDrawer.cpp'
p2576
g323
(g1511
g325
Ntp2577
Rp2578
(dp2579
g1515
g1080
sg1516
g1533
sg349
g1097
sbsS'cdjpeg.h'
p2580
g323
(g1511
g325
Ntp2581
Rp2582
(dp2583
g1515
g1481
sg1516
g1608
sg349
g1500
sbsS'IwList.h'
p2584
g323
(g1511
g325
Ntp2585
Rp2586
(dp2587
g1515
g1345
sg1516
g1557
sg349
g1404
sbsS'inttypes.h'
p2588
g323
(g1511
g325
Ntp2589
Rp2590
(dp2591
g1515
g1523
sg1516
g1550
sg349
S'c:/marmalade/7.5/s3e/h/std/inttypes.h'
p2592
sbsS'dirent.h'
p2593
g323
(g1511
g325
Ntp2594
Rp2595
(dp2596
g1515
g1523
sg1516
g1550
sg349
S'c:/marmalade/7.5/s3e/h/std/dirent.h'
p2597
sbsS'IwGeomVec3.h'
p2598
g323
(g1511
g325
Ntp2599
Rp2600
(dp2601
g1515
g1181
sg1516
g1578
sg349
g1199
sbsS'transupp.h'
p2602
g323
(g1511
g325
Ntp2603
Rp2604
(dp2605
g1515
g1481
sg1516
g1608
sg349
g1486
sbsS'IwMath.h'
p2606
g323
(g1511
g325
Ntp2607
Rp2608
(dp2609
g1515
g1345
sg1516
g1557
sg349
g1346
sbsS'IwGeomQuat.h'
p2610
g323
(g1511
g325
Ntp2611
Rp2612
(dp2613
g1515
g1181
sg1516
g1578
sg349
g1249
sbsS'glplatform.h'
p2614
g323
(g1511
g325
Ntp2615
Rp2616
(dp2617
g1515
g1523
sg1516
g2085
sg349
S'c:/marmalade/7.5/s3e/h/GLES/glplatform.h'
p2618
sbsS's3e-default.mkf'
p2619
g323
(g1511
g325
Ntp2620
Rp2621
(dp2622
g1515
g1472
sg1516
(lp2623
g1468
asg349
g1470
sbsS'bitset'
p2624
g323
(g1511
g325
Ntp2625
Rp2626
(dp2627
g1515
g1523
sg1516
g1524
sg349
S'c:/marmalade/7.5/s3e/h/std/c++/bitset'
p2628
sbsS'alloca.h'
p2629
g323
(g1511
g325
Ntp2630
Rp2631
(dp2632
g1515
g1523
sg1516
g1550
sg349
S'c:/marmalade/7.5/s3e/h/std/alloca.h'
p2633
sbsS'IwResHandler.h'
p2634
g323
(g1511
g325
Ntp2635
Rp2636
(dp2637
g1515
g1257
sg1516
g2070
sg349
g1273
sbsS'IwResHandlerMTL.h'
p2638
g323
(g1511
g325
Ntp2639
Rp2640
(dp2641
g1515
g1281
sg1516
g1650
sg349
g1288
sbsS'IwRuntime.h'
p2642
g323
(g1511
g325
Ntp2643
Rp2644
(dp2645
g1515
g1345
sg1516
g1557
sg349
g1396
sbsS'limits'
p2646
g323
(g1511
g325
Ntp2647
Rp2648
(dp2649
g1515
g1523
sg1516
g1524
sg349
S'c:/marmalade/7.5/s3e/h/std/c++/limits'
p2650
sbsS'IwGeomBBox.h'
p2651
g323
(g1511
g325
Ntp2652
Rp2653
(dp2654
g1515
g1181
sg1516
g1578
sg349
g1239
sbsS's3eContacts.h'
p2655
g323
(g1511
g325
Ntp2656
Rp2657
(dp2658
g1515
g1523
sg1516
g1544
sg349
S'c:/marmalade/7.5/s3e/h/s3eContacts.h'
p2659
sbsS's3eLicense.h'
p2660
g323
(g1511
g325
Ntp2661
Rp2662
(dp2663
g1515
g1523
sg1516
g1544
sg349
S'c:/marmalade/7.5/s3e/h/s3eLicense.h'
p2664
sbsS'iwgx.config.txt'
p2665
g323
(g1511
g325
Ntp2666
Rp2667
(dp2668
g1515
g1281
sg1516
g1650
sg349
g1323
sbsS'IwTextParser.h'
p2669
g323
(g1511
g325
Ntp2670
Rp2671
(dp2672
g1515
g1345
sg1516
g1557
sg349
g1425
sbsS's3eTimer.h'
p2673
g323
(g1511
g325
Ntp2674
Rp2675
(dp2676
g1515
g1523
sg1516
g1544
sg349
S'c:/marmalade/7.5/s3e/h/s3eTimer.h'
p2677
sbsS'IwGeomVec.h'
p2678
g323
(g1511
g325
Ntp2679
Rp2680
(dp2681
g1515
g1181
sg1516
g1578
sg349
g1225
sbsS'IwSerialise.h'
p2682
g323
(g1511
g325
Ntp2683
Rp2684
(dp2685
g1515
g1345
sg1516
g1557
sg349
g1443
sbsS'MazeDrawer.h'
p2686
g323
(g1511
g325
Ntp2687
Rp2688
(dp2689
g1515
g1080
sg1516
g1533
sg349
g1093
sbsS'cstdarg'
p2690
g323
(g1511
g325
Ntp2691
Rp2692
(dp2693
g1515
g1523
sg1516
g1524
sg349
S'c:/marmalade/7.5/s3e/h/std/c++/cstdarg'
p2694
sbsS'fstream'
p2695
g323
(g1511
g325
Ntp2696
Rp2697
(dp2698
g1515
g1523
sg1516
g1524
sg349
S'c:/marmalade/7.5/s3e/h/std/c++/fstream'
p2699
sbsS'gl2ext.h'
p2700
g323
(g1511
g325
Ntp2701
Rp2702
(dp2703
g1515
g1523
sg1516
g1769
sg349
S'c:/marmalade/7.5/s3e/h/GLES2/gl2ext.h'
p2704
sbsS'IwChar.h'
p2705
g323
(g1511
g325
Ntp2706
Rp2707
(dp2708
g1515
g1345
sg1516
g1557
sg349
g1370
sbsS's3eSound.h'
p2709
g323
(g1511
g325
Ntp2710
Rp2711
(dp2712
g1515
g1523
sg1516
g1544
sg349
S'c:/marmalade/7.5/s3e/h/s3eSound.h'
p2713
sbsS's3eIOSBackgroundAudio.h'
p2714
g323
(g1511
g325
Ntp2715
Rp2716
(dp2717
g1515
g1523
sg1516
g1737
sg349
S'c:/marmalade/7.5/s3e/h/ext/s3eIOSBackgroundAudio.h'
p2718
sbsS'exception.h'
p2719
g323
(g1511
g325
Ntp2720
Rp2721
(dp2722
g1515
g1523
sg1516
g1524
sg349
S'c:/marmalade/7.5/s3e/h/std/c++/exception.h'
p2723
sbsS'iwgeom.config.txt'
p2724
g323
(g1511
g325
Ntp2725
Rp2726
(dp2727
g1515
g1181
sg1516
g1578
sg349
g1247
sbsS'iwgx.mkf'
p2728
g323
(g1511
g325
Ntp2729
Rp2730
(dp2731
g1515
g1322
sg1516
g1650
sg349
g1320
sbsS'gl.h'
p2732
g323
(g1511
g325
Ntp2733
Rp2734
(dp2735
g1515
g1523
sg1516
g2085
sg349
S'c:/marmalade/7.5/s3e/h/GLES/gl.h'
p2736
sbsS'zlib.h'
p2737
g323
(g1511
g325
Ntp2738
Rp2739
(dp2740
g1515
g1452
sg1516
g2186
sg349
g1453
sbsS'temp_defines_release.h'
p2741
g323
(g1511
g325
Ntp2742
Rp2743
(dp2744
g1515
(lp2745
sg1516
(lp2746
S"'generated files'"
p2747
asg349
S'd:/School/cs115/AmazingMaze/build_amazingmaze_vc12/temp_defines_release.h'
p2748
sbsS'iwgl.mkf'
p2749
g323
(g1511
g325
Ntp2750
Rp2751
(dp2752
g1515
g1135
sg1516
g1538
sg349
g1133
sbsS'IwColour.h'
p2753
g323
(g1511
g325
Ntp2754
Rp2755
(dp2756
g1515
g1281
sg1516
g1650
sg349
g1325
sbsS's3eLibrary.h'
p2757
g323
(g1511
g325
Ntp2758
Rp2759
(dp2760
g1515
g1523
sg1516
g1737
sg349
S'c:/marmalade/7.5/s3e/h/ext/s3eLibrary.h'
p2761
sbsS'types.h'
p2762
g323
(g1511
g325
Ntp2763
Rp2764
(dp2765
g1515
g1523
sg1516
g1664
sg349
S'c:/marmalade/7.5/s3e/h/std/sys/types.h'
p2766
sbsS'ifaddrs.h'
p2767
g323
(g1511
g325
Ntp2768
Rp2769
(dp2770
g1515
g1523
sg1516
g1550
sg349
S'c:/marmalade/7.5/s3e/h/std/ifaddrs.h'
p2771
sbsS'strstream'
p2772
g323
(g1511
g325
Ntp2773
Rp2774
(dp2775
g1515
g1523
sg1516
g1524
sg349
S'c:/marmalade/7.5/s3e/h/std/c++/strstream'
p2776
sbsS'IwTween.cpp'
p2777
g323
(g1511
g325
Ntp2778
Rp2779
(dp2780
g1515
g1462
sg1516
g2022
sg349
g1463
sbsS'exception'
p2781
g323
(g1511
g325
Ntp2782
Rp2783
(dp2784
g1515
g1523
sg1516
g1524
sg349
S'c:/marmalade/7.5/s3e/h/std/c++/exception'
p2785
sbsS'rlocks.h'
p2786
g323
(g1511
g325
Ntp2787
Rp2788
(dp2789
g1515
g1523
sg1516
g1524
sg349
S'c:/marmalade/7.5/s3e/h/std/c++/rlocks.h'
p2790
sbsS'ioctl.h'
p2791
g323
(g1511
g325
Ntp2792
Rp2793
(dp2794
g1515
g1523
sg1516
g1664
sg349
S'c:/marmalade/7.5/s3e/h/std/sys/ioctl.h'
p2795
sbsS'rope'
p2796
g323
(g1511
g325
Ntp2797
Rp2798
(dp2799
g1515
g1523
sg1516
g1524
sg349
S'c:/marmalade/7.5/s3e/h/std/c++/rope'
p2800
sbsS'jinclude.h'
p2801
g323
(g1511
g325
Ntp2802
Rp2803
(dp2804
g1515
g1481
sg1516
g1608
sg349
g1488
sbsS'IwEvent.h'
p2805
g323
(g1511
g325
Ntp2806
Rp2807
(dp2808
g1515
g1345
sg1516
g1557
sg349
g1429
sbsS'IwOptimiseSize.h'
p2809
g323
(g1511
g325
Ntp2810
Rp2811
(dp2812
g1515
g1345
sg1516
g1557
sg349
g1394
sbsS'iwgxfont_public.defines.txt'
p2813
g323
(g1511
g325
Ntp2814
Rp2815
(dp2816
g1515
g1159
sg1516
g1517
sg349
g1175
sbsS'iconv.h'
p2817
g323
(g1511
g325
Ntp2818
Rp2819
(dp2820
g1515
g1523
sg1516
g1550
sg349
S'c:/marmalade/7.5/s3e/h/std/iconv.h'
p2821
sbsS'sendfile.h'
p2822
g323
(g1511
g325
Ntp2823
Rp2824
(dp2825
g1515
g1523
sg1516
g1664
sg349
S'c:/marmalade/7.5/s3e/h/std/sys/sendfile.h'
p2826
sbsS'IwGeomSphere.h'
p2827
g323
(g1511
g325
Ntp2828
Rp2829
(dp2830
g1515
g1181
sg1516
g1578
sg349
g1182
sbsS'MazeGenerator.cpp'
p2831
g323
(g1511
g325
Ntp2832
Rp2833
(dp2834
g1515
g1080
sg1516
g1533
sg349
g1078
sbsS'IwResManagerClass.h'
p2835
g323
(g1511
g325
Ntp2836
Rp2837
(dp2838
g1515
g1257
sg1516
g2070
sg349
g1260
sbsS'jdct.h'
p2839
g323
(g1511
g325
Ntp2840
Rp2841
(dp2842
g1515
g1481
sg1516
g1608
sg349
g1492
sbsS'cctype'
p2843
g323
(g1511
g325
Ntp2844
Rp2845
(dp2846
g1515
g1523
sg1516
g1524
sg349
S'c:/marmalade/7.5/s3e/h/std/c++/cctype'
p2847
sbsS's3eConfig.h'
p2848
g323
(g1511
g325
Ntp2849
Rp2850
(dp2851
g1515
g1523
sg1516
g1544
sg349
S'c:/marmalade/7.5/s3e/h/s3eConfig.h'
p2852
sbsS'IwHashString.h'
p2853
g323
(g1511
g325
Ntp2854
Rp2855
(dp2856
g1515
g1345
sg1516
g1557
sg349
g1410
sbsS'stat.h'
p2857
g323
(g1511
g325
Ntp2858
Rp2859
(dp2860
g1515
g1523
sg1516
g1664
sg349
S'c:/marmalade/7.5/s3e/h/std/sys/stat.h'
p2861
sbsS'byteswap.h'
p2862
g323
(g1511
g325
Ntp2863
Rp2864
(dp2865
g1515
g1523
sg1516
g1550
sg349
S'c:/marmalade/7.5/s3e/h/std/byteswap.h'
p2866
sbsS'iwresmanager.mkf'
p2867
g323
(g1511
g325
Ntp2868
Rp2869
(dp2870
g1515
g1268
sg1516
g2070
sg349
g1266
sbsS'IwUtilInitTerm.h'
p2871
g323
(g1511
g325
Ntp2872
Rp2873
(dp2874
g1515
g1345
sg1516
g1557
sg349
g1439
sbsS'pthread_1.h'
p2875
g323
(g1511
g325
Ntp2876
Rp2877
(dp2878
g1515
g1523
sg1516
g1524
sg349
S'c:/marmalade/7.5/s3e/h/std/c++/pthread.h'
p2879
sbsS'IwMemBucket.h'
p2880
g323
(g1511
g325
Ntp2881
Rp2882
(dp2883
g1515
g1345
sg1516
g1557
sg349
g1392
sbsS'complex'
p2884
g323
(g1511
g325
Ntp2885
Rp2886
(dp2887
g1515
g1523
sg1516
g1524
sg349
S'c:/marmalade/7.5/s3e/h/std/c++/complex'
p2888
sbsS'algorithm'
p2889
g323
(g1511
g325
Ntp2890
Rp2891
(dp2892
g1515
g1523
sg1516
g1524
sg349
S'c:/marmalade/7.5/s3e/h/std/c++/algorithm'
p2893
sbsS's3e.icf'
p2894
g323
(g1511
g325
Ntp2895
Rp2896
(dp2897
g1515
g1523
sg1516
g1544
sg349
S'c:/marmalade/7.5/s3e/s3e.icf'
p2898
sbsS'sem.h'
p2899
g323
(g1511
g325
Ntp2900
Rp2901
(dp2902
g1515
g1523
sg1516
g1664
sg349
S'c:/marmalade/7.5/s3e/h/std/sys/sem.h'
p2903
sbsS'IwGxFontState.h'
p2904
g323
(g1511
g325
Ntp2905
Rp2906
(dp2907
g1515
g1159
sg1516
g1517
sg349
g1164
sbsS'stdio.h'
p2908
g323
(g1511
g325
Ntp2909
Rp2910
(dp2911
g1515
g1523
sg1516
g1550
sg349
S'c:/marmalade/7.5/s3e/h/std/stdio.h'
p2912
sbsS'jmemsys.h'
p2913
g323
(g1511
g325
Ntp2914
Rp2915
(dp2916
g1515
g1481
sg1516
g1608
sg349
g1494
sbsS'ios'
p2917
g323
(g1511
g325
Ntp2918
Rp2919
(dp2920
g1515
g1523
sg1516
g1524
sg349
S'c:/marmalade/7.5/s3e/h/std/c++/ios'
p2921
sbsS'IwTween.h'
p2922
g323
(g1511
g325
Ntp2923
Rp2924
(dp2925
g1515
g1462
sg1516
g2022
sg349
g1460
sbsS'IwGeomFVec4.h'
p2926
g323
(g1511
g325
Ntp2927
Rp2928
(dp2929
g1515
g1181
sg1516
g1578
sg349
g1229
sbsS'stack'
p2930
g323
(g1511
g325
Ntp2931
Rp2932
(dp2933
g1515
g1523
sg1516
g1524
sg349
S'c:/marmalade/7.5/s3e/h/std/c++/stack'
p2934
sbsS'new.h'
p2935
g323
(g1511
g325
Ntp2936
Rp2937
(dp2938
g1515
g1523
sg1516
g1524
sg349
S'c:/marmalade/7.5/s3e/h/std/c++/new.h'
p2939
sbsS's3eEMail.h'
p2940
g323
(g1511
g325
Ntp2941
Rp2942
(dp2943
g1515
g1523
sg1516
g1737
sg349
S'c:/marmalade/7.5/s3e/h/ext/s3eEMail.h'
p2944
sbsS's3eVideo.h'
p2945
g323
(g1511
g325
Ntp2946
Rp2947
(dp2948
g1515
g1523
sg1516
g1544
sg349
S'c:/marmalade/7.5/s3e/h/s3eVideo.h'
p2949
sbsS'pngconf.h'
p2950
g323
(g1511
g325
Ntp2951
Rp2952
(dp2953
g1515
g1072
sg1516
g2237
sg349
g1073
sbsS'pwd.h'
p2954
g323
(g1511
g325
Ntp2955
Rp2956
(dp2957
g1515
g1523
sg1516
g1550
sg349
S'c:/marmalade/7.5/s3e/h/std/pwd.h'
p2958
sbsS'IwOptimiseThumb.h'
p2959
g323
(g1511
g325
Ntp2960
Rp2961
(dp2962
g1515
g1345
sg1516
g1557
sg349
g1412
sbsS'gl3.h'
p2963
g323
(g1511
g325
Ntp2964
Rp2965
(dp2966
g1515
g1523
sg1516
g1838
sg349
S'c:/marmalade/7.5/s3e/h/GLES3/gl3.h'
p2967
sbsS'IwClip.h'
p2968
g323
(g1511
g325
Ntp2969
Rp2970
(dp2971
g1515
g1281
sg1516
g1650
sg349
g1296
sbsS'iwresmanager.config.txt'
p2972
g323
(g1511
g325
Ntp2973
Rp2974
(dp2975
g1515
g1257
sg1516
g2070
sg349
g1269
sbsS'IwGxShaderTechnique.h'
p2976
g323
(g1511
g325
Ntp2977
Rp2978
(dp2979
g1515
g1281
sg1516
g1650
sg349
g1308
sbsS'IwCore.h'
p2980
g323
(g1511
g325
Ntp2981
Rp2982
(dp2983
g1515
g1345
sg1516
g1557
sg349
g1350
sbsS'cfloat'
p2984
g323
(g1511
g325
Ntp2985
Rp2986
(dp2987
g1515
g1523
sg1516
g1524
sg349
S'c:/marmalade/7.5/s3e/h/std/c++/cfloat'
p2988
sbsS'IwGeomMat2D.h'
p2989
g323
(g1511
g325
Ntp2990
Rp2991
(dp2992
g1515
g1181
sg1516
g1578
sg349
g1213
sbsS'IwAllocator.h'
p2993
g323
(g1511
g325
Ntp2994
Rp2995
(dp2996
g1515
g1345
sg1516
g1557
sg349
g1380
sbsS'IwPath.h'
p2997
g323
(g1511
g325
Ntp2998
Rp2999
(dp3000
g1515
g1345
sg1516
g1557
sg349
g1400
sbsS'iwgxfont.mkf'
p3001
g323
(g1511
g325
Ntp3002
Rp3003
(dp3004
g1515
g1170
sg1516
g1517
sg349
g1168
sbsS'IwTexture.h'
p3005
g323
(g1511
g325
Ntp3006
Rp3007
(dp3008
g1515
g1281
sg1516
g1650
sg349
g1284
sbsS'IwGeomVec.h.tpl'
p3009
g323
(g1511
g325
Ntp3010
Rp3011
(dp3012
g1515
g1181
sg1516
g1578
sg349
g1223
sbsS's3eAccelerometer.h'
p3013
g323
(g1511
g325
Ntp3014
Rp3015
(dp3016
g1515
g1523
sg1516
g1544
sg349
S'c:/marmalade/7.5/s3e/h/s3eAccelerometer.h'
p3017
sbsS'setjmp.h'
p3018
g323
(g1511
g325
Ntp3019
Rp3020
(dp3021
g1515
g1523
sg1516
g1550
sg349
S'c:/marmalade/7.5/s3e/h/std/setjmp.h'
p3022
sbsS'IwFile.h'
p3023
g323
(g1511
g325
Ntp3024
Rp3025
(dp3026
g1515
g1345
sg1516
g1557
sg349
g1421
sbsS'IwTextParseable.h'
p3027
g323
(g1511
g325
Ntp3028
Rp3029
(dp3030
g1515
g1345
sg1516
g1557
sg349
g1368
sbsS'istream.h'
p3031
g323
(g1511
g325
Ntp3032
Rp3033
(dp3034
g1515
g1523
sg1516
g1524
sg349
S'c:/marmalade/7.5/s3e/h/std/c++/istream.h'
p3035
sbsS'stdint.h'
p3036
g323
(g1511
g325
Ntp3037
Rp3038
(dp3039
g1515
g1523
sg1516
g1550
sg349
S'c:/marmalade/7.5/s3e/h/std/stdint.h'
p3040
sbsS'semaphore.h'
p3041
g323
(g1511
g325
Ntp3042
Rp3043
(dp3044
g1515
g1523
sg1516
g1550
sg349
S'c:/marmalade/7.5/s3e/h/std/semaphore.h'
p3045
sbsS'ctime'
p3046
g323
(g1511
g325
Ntp3047
Rp3048
(dp3049
g1515
g1523
sg1516
g1524
sg349
S'c:/marmalade/7.5/s3e/h/std/c++/ctime'
p3050
sbsS'sstream'
p3051
g323
(g1511
g325
Ntp3052
Rp3053
(dp3054
g1515
g1523
sg1516
g1524
sg349
S'c:/marmalade/7.5/s3e/h/std/c++/sstream'
p3055
sbsS'IwGeomFBBox.h'
p3056
g323
(g1511
g325
Ntp3057
Rp3058
(dp3059
g1515
g1181
sg1516
g1578
sg349
g1207
sbsS'IwDebugPrim.h'
p3060
g323
(g1511
g325
Ntp3061
Rp3062
(dp3063
g1515
g1281
sg1516
g1650
sg349
g1279
sbsS'IwGxFontContainer.h'
p3064
g323
(g1511
g325
Ntp3065
Rp3066
(dp3067
g1515
g1159
sg1516
g1517
sg349
g1166
sbsS'IwGeomSVec3.h'
p3068
g323
(g1511
g325
Ntp3069
Rp3070
(dp3071
g1515
g1181
sg1516
g1578
sg349
g1184
sbsS'iw2dscenegraphcore.mkf'
p3072
g323
(g1511
g325
Ntp3073
Rp3074
(dp3075
g1515
g1335
sg1516
g2541
sg349
g1333
sbsS's3eExt.h'
p3076
g323
(g1511
g325
Ntp3077
Rp3078
(dp3079
g1515
g1523
sg1516
g1544
sg349
S'c:/marmalade/7.5/s3e/h/s3eExt.h'
p3080
sbsS'IwGeomFVec3.h'
p3081
g323
(g1511
g325
Ntp3082
Rp3083
(dp3084
g1515
g1181
sg1516
g1578
sg349
g1243
sbsS'streambuf'
p3085
g323
(g1511
g325
Ntp3086
Rp3087
(dp3088
g1515
g1523
sg1516
g1524
sg349
S'c:/marmalade/7.5/s3e/h/std/c++/streambuf'
p3089
sbsS's3eMetrics.h'
p3090
g323
(g1511
g325
Ntp3091
Rp3092
(dp3093
g1515
g1523
sg1516
g1737
sg349
S'c:/marmalade/7.5/s3e/h/ext/s3eMetrics.h'
p3094
sbsS'IwGxFont.h'
p3095
g323
(g1511
g325
Ntp3096
Rp3097
(dp3098
g1515
g1159
sg1516
g1517
sg349
g1173
sbsS's3eSecureStorage.h'
p3099
g323
(g1511
g325
Ntp3100
Rp3101
(dp3102
g1515
g1523
sg1516
g1544
sg349
S'c:/marmalade/7.5/s3e/h/s3eSecureStorage.h'
p3103
sbsS'string.h'
p3104
g323
(g1511
g325
Ntp3105
Rp3106
(dp3107
g1515
g1523
sg1516
g1550
sg349
S'c:/marmalade/7.5/s3e/h/std/string.h'
p3108
sbsS'IwResource.h'
p3109
g323
(g1511
g325
Ntp3110
Rp3111
(dp3112
g1515
g1345
sg1516
g1557
sg349
g1441
sbsS'IwGeomSVec2.h'
p3113
g323
(g1511
g325
Ntp3114
Rp3115
(dp3116
g1515
g1181
sg1516
g1578
sg349
g1179
sbsS'libjpeg.mkf'
p3117
g323
(g1511
g325
Ntp3118
Rp3119
(dp3120
g1515
g1477
sg1516
(lp3121
g1473
asg349
g1475
sbsS'IwGxDebug.h'
p3122
g323
(g1511
g325
Ntp3123
Rp3124
(dp3125
g1515
g1281
sg1516
g1650
sg349
g1306
sbsS'pthread_types.h'
p3126
g323
(g1511
g325
Ntp3127
Rp3128
(dp3129
g1515
g1523
sg1516
g1550
sg349
S'c:/marmalade/7.5/s3e/h/std/pthread_types.h'
p3130
sbsS'iomanip.h'
p3131
g323
(g1511
g325
Ntp3132
Rp3133
(dp3134
g1515
g1523
sg1516
g1524
sg349
S'c:/marmalade/7.5/s3e/h/std/c++/iomanip.h'
p3135
sbsS'IwKeymap.h'
p3136
g323
(g1511
g325
Ntp3137
Rp3138
(dp3139
g1515
g1345
sg1516
g1557
sg349
g1386
sbsS'IwDebug.h'
p3140
g323
(g1511
g325
Ntp3141
Rp3142
(dp3143
g1515
g1345
sg1516
g1557
sg349
g1374
sbsS'IwVariableBitField.h'
p3144
g323
(g1511
g325
Ntp3145
Rp3146
(dp3147
g1515
g1345
sg1516
g1557
sg349
g1408
sbsS'IwGeomMenu.h'
p3148
g323
(g1511
g325
Ntp3149
Rp3150
(dp3151
g1515
g1181
sg1516
g1578
sg349
g1237
sbsS'IwDivTable.h'
p3152
g323
(g1511
g325
Ntp3153
Rp3154
(dp3155
g1515
g1345
sg1516
g1557
sg349
g1364
sbsS'ctype.h'
p3156
g323
(g1511
g325
Ntp3157
Rp3158
(dp3159
g1515
g1523
sg1516
g1550
sg349
S'c:/marmalade/7.5/s3e/h/std/ctype.h'
p3160
sbsS'IwGeomMat.h'
p3161
g323
(g1511
g325
Ntp3162
Rp3163
(dp3164
g1515
g1181
sg1516
g1578
sg349
g1197
sbsS'IwResGroup.h'
p3165
g323
(g1511
g325
Ntp3166
Rp3167
(dp3168
g1515
g1257
sg1516
g2070
sg349
g1271
sbsS'signal_1.h'
p3169
g323
(g1511
g325
Ntp3170
Rp3171
(dp3172
g1515
g1523
sg1516
g1664
sg349
S'c:/marmalade/7.5/s3e/h/std/sys/signal.h'
p3173
sbsS'functional'
p3174
g323
(g1511
g325
Ntp3175
Rp3176
(dp3177
g1515
g1523
sg1516
g1524
sg349
S'c:/marmalade/7.5/s3e/h/std/c++/functional'
p3178
sbsS'shm.h'
p3179
g323
(g1511
g325
Ntp3180
Rp3181
(dp3182
g1515
g1523
sg1516
g1664
sg349
S'c:/marmalade/7.5/s3e/h/std/sys/shm.h'
p3183
sbsS'IwManagedList.h'
p3184
g323
(g1511
g325
Ntp3185
Rp3186
(dp3187
g1515
g1345
sg1516
g1557
sg349
g1358
sbsS'prctl.h'
p3188
g323
(g1511
g325
Ntp3189
Rp3190
(dp3191
g1515
g1523
sg1516
g1664
sg349
S'c:/marmalade/7.5/s3e/h/std/sys/prctl.h'
p3192
sbsS'un.h'
p3193
g323
(g1511
g325
Ntp3194
Rp3195
(dp3196
g1515
g1523
sg1516
g1664
sg349
S'c:/marmalade/7.5/s3e/h/std/sys/un.h'
p3197
sbsS'temp_defines_debug.h'
p3198
g323
(g1511
g325
Ntp3199
Rp3200
(dp3201
g1515
(lp3202
sg1516
(lp3203
g2747
asg349
S'd:/School/cs115/AmazingMaze/build_amazingmaze_vc12/temp_defines_debug.h'
p3204
sbsS'utility'
p3205
g323
(g1511
g325
Ntp3206
Rp3207
(dp3208
g1515
g1523
sg1516
g1524
sg349
S'c:/marmalade/7.5/s3e/h/std/c++/utility'
p3209
sbsS'IwGeomLegacy.h'
p3210
g323
(g1511
g325
Ntp3211
Rp3212
(dp3213
g1515
g1181
sg1516
g1578
sg349
g1201
sbsS'IwTPage.h'
p3214
g323
(g1511
g325
Ntp3215
Rp3216
(dp3217
g1515
g1281
sg1516
g1650
sg349
g1329
sbsS'IwResSerialise.h'
p3218
g323
(g1511
g325
Ntp3219
Rp3220
(dp3221
g1515
g1257
sg1516
g2070
sg349
g1258
sbsS's3eCrypto.h'
p3222
g323
(g1511
g325
Ntp3223
Rp3224
(dp3225
g1515
g1523
sg1516
g1544
sg349
S'c:/marmalade/7.5/s3e/h/s3eCrypto.h'
p3226
sbsS's3eKeyboard.h'
p3227
g323
(g1511
g325
Ntp3228
Rp3229
(dp3230
g1515
g1523
sg1516
g1544
sg349
S'c:/marmalade/7.5/s3e/h/s3eKeyboard.h'
p3231
sbsS'fcntl.h'
p3232
g323
(g1511
g325
Ntp3233
Rp3234
(dp3235
g1515
g1523
sg1516
g1550
sg349
S'c:/marmalade/7.5/s3e/h/std/fcntl.h'
p3236
sbsS'Iw2DSceneGraphCore.h'
p3237
g323
(g1511
g325
Ntp3238
Rp3239
(dp3240
g1515
g1338
sg1516
g2541
sg349
g1336
sbsS'memory.h'
p3241
g323
(g1511
g325
Ntp3242
Rp3243
(dp3244
g1515
g1523
sg1516
g1550
sg349
S'c:/marmalade/7.5/s3e/h/std/memory.h'
p3245
sbsS'pthread.h'
p3246
g323
(g1511
g325
Ntp3247
Rp3248
(dp3249
g1515
g1523
sg1516
g1550
sg349
S'c:/marmalade/7.5/s3e/h/std/pthread.h'
p3250
sbsS'IwGeomIntersect.h'
p3251
g323
(g1511
g325
Ntp3252
Rp3253
(dp3254
g1515
g1181
sg1516
g1578
sg349
g1227
sbsS'IwTextParserITX.h'
p3255
g323
(g1511
g325
Ntp3256
Rp3257
(dp3258
g1515
g1345
sg1516
g1557
sg349
g1384
sbsS'egl_1.h'
p3259
g323
(g1511
g325
Ntp3260
Rp3261
(dp3262
g1515
g1523
sg1516
g2085
sg349
S'c:/marmalade/7.5/s3e/h/GLES/egl.h'
p3263
sbsS'Iw2DSceneGraph.cpp'
p3264
g323
(g1511
g325
Ntp3265
Rp3266
(dp3267
g1515
g1123
sg1516
g1777
sg349
g1121
sbsS'ostream.h'
p3268
g323
(g1511
g325
Ntp3269
Rp3270
(dp3271
g1515
g1523
sg1516
g1524
sg349
S'c:/marmalade/7.5/s3e/h/std/c++/ostream.h'
p3272
sbsS'stl_user_config.h'
p3273
g323
(g1511
g325
Ntp3274
Rp3275
(dp3276
g1515
g1523
sg1516
g1524
sg349
S'c:/marmalade/7.5/s3e/h/std/c++/stl_user_config.h'
p3277
sbsS'IwProfileMenu.h'
p3278
g323
(g1511
g325
Ntp3279
Rp3280
(dp3281
g1515
g1345
sg1516
g1557
sg349
g1360
sbsS'MarmaladeVersion.h'
p3282
g323
(g1511
g325
Ntp3283
Rp3284
(dp3285
g1515
g1523
sg1516
g1544
sg349
S'c:/marmalade/7.5/s3e/h/MarmaladeVersion.h'
p3286
sbsS'gl3platform.h'
p3287
g323
(g1511
g325
Ntp3288
Rp3289
(dp3290
g1515
g1523
sg1516
g1838
sg349
S'c:/marmalade/7.5/s3e/h/GLES3/gl3platform.h'
p3291
sbsS'ios.h'
p3292
g323
(g1511
g325
Ntp3293
Rp3294
(dp3295
g1515
g1523
sg1516
g1524
sg349
S'c:/marmalade/7.5/s3e/h/std/c++/ios.h'
p3296
sbsS'IwImageHelper.h'
p3297
g323
(g1511
g325
Ntp3298
Rp3299
(dp3300
g1515
g1345
sg1516
g1557
sg349
g1356
sbsS'hash_set'
p3301
g323
(g1511
g325
Ntp3302
Rp3303
(dp3304
g1515
g1523
sg1516
g1524
sg349
S'c:/marmalade/7.5/s3e/h/std/c++/hash_set'
p3305
sbsS'IwGeomFQuat.h'
p3306
g323
(g1511
g325
Ntp3307
Rp3308
(dp3309
g1515
g1181
sg1516
g1578
sg349
g1191
sbsS'jmorecfg.h'
p3310
g323
(g1511
g325
Ntp3311
Rp3312
(dp3313
g1515
g1481
sg1516
g1608
sg349
g1490
sbsS'eglplatform.h'
p3314
g323
(g1511
g325
Ntp3315
Rp3316
(dp3317
g1515
g1523
sg1516
g1869
sg349
S'c:/marmalade/7.5/s3e/h/EGL/eglplatform.h'
p3318
sbsS'cmath'
p3319
g323
(g1511
g325
Ntp3320
Rp3321
(dp3322
g1515
g1523
sg1516
g1524
sg349
S'c:/marmalade/7.5/s3e/h/std/c++/cmath'
p3323
sbsS'math_gcc.h'
p3324
g323
(g1511
g325
Ntp3325
Rp3326
(dp3327
g1515
g1523
sg1516
g1550
sg349
S'c:/marmalade/7.5/s3e/h/std/math_gcc.h'
p3328
sbsS's3eMemory.h'
p3329
g323
(g1511
g325
Ntp3330
Rp3331
(dp3332
g1515
g1523
sg1516
g1544
sg349
S'c:/marmalade/7.5/s3e/h/s3eMemory.h'
p3333
sbsS'strings.h'
p3334
g323
(g1511
g325
Ntp3335
Rp3336
(dp3337
g1515
g1523
sg1516
g1550
sg349
S'c:/marmalade/7.5/s3e/h/std/strings.h'
p3338
sbsS's3eFile.h'
p3339
g323
(g1511
g325
Ntp3340
Rp3341
(dp3342
g1515
g1523
sg1516
g1544
sg349
S'c:/marmalade/7.5/s3e/h/s3eFile.h'
p3343
sbsS'IwGxTypes.h'
p3344
g323
(g1511
g325
Ntp3345
Rp3346
(dp3347
g1515
g1281
sg1516
g1650
sg349
g1318
sbsS'cerrno'
p3348
g323
(g1511
g325
Ntp3349
Rp3350
(dp3351
g1515
g1523
sg1516
g1524
sg349
S'c:/marmalade/7.5/s3e/h/std/c++/cerrno'
p3352
sbsS'resource.h'
p3353
g323
(g1511
g325
Ntp3354
Rp3355
(dp3356
g1515
g1523
sg1516
g1664
sg349
S'c:/marmalade/7.5/s3e/h/std/sys/resource.h'
p3357
sbsS'clocale'
p3358
g323
(g1511
g325
Ntp3359
Rp3360
(dp3361
g1515
g1523
sg1516
g1524
sg349
S'c:/marmalade/7.5/s3e/h/std/c++/clocale'
p3362
sbsS'pvrtextool.mkf'
p3363
g323
(g1511
g325
Ntp3364
Rp3365
(dp3366
g1515
g1114
sg1516
g2117
sg349
g1112
sbsS'csetjmp'
p3367
g323
(g1511
g325
Ntp3368
Rp3369
(dp3370
g1515
g1523
sg1516
g1524
sg349
S'c:/marmalade/7.5/s3e/h/std/c++/csetjmp'
p3371
sbsS'netdb.h'
p3372
g323
(g1511
g325
Ntp3373
Rp3374
(dp3375
g1515
g1523
sg1516
g1550
sg349
S'c:/marmalade/7.5/s3e/h/std/netdb.h'
p3376
sbsS's3eAndroidJNI.h'
p3377
g323
(g1511
g325
Ntp3378
Rp3379
(dp3380
g1515
g1523
sg1516
g1737
sg349
S'c:/marmalade/7.5/s3e/h/ext/s3eAndroidJNI.h'
p3381
sbsS'stdexcept'
p3382
g323
(g1511
g325
Ntp3383
Rp3384
(dp3385
g1515
g1523
sg1516
g1524
sg349
S'c:/marmalade/7.5/s3e/h/std/c++/stdexcept'
p3386
sbsS'math.h'
p3387
g323
(g1511
g325
Ntp3388
Rp3389
(dp3390
g1515
g1523
sg1516
g1550
sg349
S'c:/marmalade/7.5/s3e/h/std/math.h'
p3391
sbsS'stdbool.h'
p3392
g323
(g1511
g325
Ntp3393
Rp3394
(dp3395
g1515
g1523
sg1516
g1550
sg349
S'c:/marmalade/7.5/s3e/h/std/stdbool.h'
p3396
sbsS'uio.h'
p3397
g323
(g1511
g325
Ntp3398
Rp3399
(dp3400
g1515
g1523
sg1516
g1664
sg349
S'c:/marmalade/7.5/s3e/h/std/sys/uio.h'
p3401
sbsS'IwUncopyable.h'
p3402
g323
(g1511
g325
Ntp3403
Rp3404
(dp3405
g1515
g1345
sg1516
g1557
sg349
g1423
sbssS'juice_build_type'
p3406
g4
sS'tests'
p3407
(lp3408
sS'project_name'
p3409
g331
sS'root_file'
p3410
g131
sS'current_root'
p3411
S'd:/School/cs115/AmazingMaze'
p3412
sS'dependencies'
p3413
(lp3414
sS'include_paths'
p3415
(lp3416
S'c:/marmalade/7.5/modules/iwutil/h'
p3417
aS'c:/marmalade/7.5/modules/third_party/libjpeg/h'
p3418
aS'c:/marmalade/7.5/modules/third_party/zlib/h'
p3419
aS'c:/marmalade/7.5/modules/third_party/libpng/h'
p3420
aS'c:/marmalade/7.5/modules/iw2dscenegraphcore/h'
p3421
aS'c:/marmalade/7.5/modules/iw2dscenegraph/h'
p3422
aS'c:/marmalade/7.5/modules/iw2d/h'
p3423
aS'c:/marmalade/7.5/modules/iwgx/h'
p3424
aS'c:/marmalade/7.5/modules/iwgl/h'
p3425
aS'c:/marmalade/7.5/modules/iwgeom/h'
p3426
aS'c:/marmalade/7.5/modules/iwresmanager/h'
p3427
aS'c:/marmalade/7.5/extensions/pvrtextool/h'
p3428
aS'c:/marmalade/7.5/modules/iwgxfont/h'
p3429
aS'c:/marmalade/7.5/modules/third_party/tiniconv/source'
p3430
aS'c:/marmalade/7.5/modules/iwtween/h'
p3431
aS'c:/marmalade/7.5/s3e/h'
p3432
aS'c:/marmalade/7.5/s3e/h/ext'
p3433
aS'c:/marmalade/7.5/s3e/h/std'
p3434
aS'c:/marmalade/7.5/s3e/h/std/c++'
p3435
aS'c:/marmalade/7.5/s3e/h/ext_legacy'
p3436
aS'c:/marmalade/7.5/s3e/h/legacy'
p3437
asS'weak_frameworks'
p3438
(lp3439
sS'extprojects'
p3440
(dp3441
sg589
(dp3442
g583
(lp3443
(g87
S'.'
p3444
I0
tp3445
assS'macro_types'
p3446
(dp3447
g522
I1
sg523
I0
sg524
I0
sg525
I0
sg526
I0
sg527
I0
sg528
I0
sg529
I0
sg530
I0
sg532
I0
sg533
I0
sg534
I0
sg535
I0
sg536
I0
sg538
I0
sg540
I0
sg541
I0
sg542
I0
sg543
I0
sg544
I0
sg545
I0
sg546
I1
sg547
I0
sg548
I0
sg549
I0
sg550
I0
sg551
I01
sg552
I1
sg553
I0
sg554
I0
sg555
I0
sg556
I0
sg557
I0
sg559
I0
sg560
I0
ssS'commands'
p3448
(lp3449
sg591
(g1059
S'VC12'
p3450
S'X86ARMAARCH64'
p3451
tp3452
sS'build_libs'
p3453
(dp3454
sg593
g0
sS'frameworks'
p3455
(lp3456
sS'environ'
p3457
(dp3458
sS'target_name_debug'
p3459
g331
sS'builders'
p3460
(dp3461
g583
(dp3462
S'.S'
p3463
(dp3464
S'gcc_aarch64'
p3465
(lp3466
S'.obj'
p3467
aS'echo AARCH64 Assembling(GCC) ${SOURCE}...'
p3468
aS'c:/marmalade/7.5/s3e\\gcc\\win32\\aarch64\\bin\\aarch64-none-elf-gcc -c -o ${TARGET} ${SOURCE}'
p3469
asS'rvct'
p3470
(lp3471
g3467
aS'echo ARM Assembling(RVCT) ${SOURCE}...'
p3472
aS'c:/marmalade/7.5/s3e\\rvct\\bin\\armasm -o ${TARGET} ${SOURCE}'
p3473
asg445
(lp3474
g3467
aS'echo ARM Assembling(GCC) ${SOURCE}...'
p3475
aS'c:/marmalade/7.5/s3e\\gcc\\win32\\arm\\bin\\arm-none-eabi-gcc -c -o ${TARGET} ${SOURCE}'
p3476
asS'ppu'
p3477
(lp3478
S'.a'
p3479
aS'echo PPU Assembling(SNC) ${SOURCE}...'
p3480
aS'c:/marmalade/7.5/s3e\\rvct\\bin\\armasm -o ${TARGET} ${SOURCE}'
p3481
assS'.s'
p3482
g3464
sS'.vp'
p3483
(lp3484
NaS'"C:/Marmalade/7.5/s3e/python/python.exe" "c:/marmalade/7.5/modules/iwgx/tools/compile_shaders.py" ${SOURCE}'
p3485
asssS'extproject_names'
p3486
(lp3487
sbtp3488
.