((dp0
S'arm_dbg_args'
p1
S'-via:"d:\\School\\cs115\\AmazingMaze\\build_amazingmaze_vc12\\AmazingMaze_vc12_arm_debug.via" -qemu'
p2
sS'game-icf'
p3
S''
p4
sS'dist'
p5
NsS'csproj'
p6
g4
sS'module_path_append'
p7
NsS'global_path'
p8
S'd:\\school\\cs115'
p9
sS'system_path'
p10
S'c:\\marmalade\\7.5\\s3e\\makefile_builder'
p11
sS'android_x86_dbg_args'
p12
S'../../tools/DeployTool/DeployTool.exe --dir "d:\\School\\cs115\\AmazingMaze\\build_amazingmaze_vc12"'
p13
sS'aarch64-arch-mod'
p14
g4
sS'no-emit'
p15
NsS'arm-float-abi'
p16
g4
sS'arm_rel_rtsm_args'
p17
S'-via:"d:\\School\\cs115\\AmazingMaze\\build_amazingmaze_vc12\\AmazingMaze_vc12_arm_release.via" -qemu'
p18
sS'amd64'
p19
NsS'line-width'
p20
I80
sS'gcc_dbg_args'
p21
S'-via:"d:\\School\\cs115\\AmazingMaze\\build_amazingmaze_vc12\\AmazingMaze_vc12_gcc_debug.via" -qemu'
p22
sS'android-x86'
p23
NsS'x86_dbg_exe'
p24
S'c:/marmalade/7.5/s3e\\win32\\s3e_simulator_debug.exe'
p25
sS'disable-runtime-checks'
p26
NsS'release'
p27
NsS'no-make'
p28
NsS'xcode-x86-build-settings'
p29
g4
sS'optimise-size'
p30
NsS'fat'
p31
NsS'output-name-debug'
p32
g4
sS'arm-fpu'
p33
g4
sS'proj_name'
p34
S'AmazingMaze_vc12'
p35
sS'rvct-version'
p36
S'none'
p37
sS'compiler'
p38
g4
sS'execute'
p39
I01
sS'compile-static'
p40
NsS'msvc-project'
p41
NsS'buildenv'
p42
S'VC12'
p43
sS'quick'
p44
NsS'module_path'
p45
NsS'mkf_default'
p46
S's3e-default.mkf'
p47
sS'use-release-std-libs'
p48
NsS'using_perforce'
p49
I00
sS'tizen-x86'
p50
NsS'mips-s3e'
p51
NsS's3e-api-lib-name'
p52
S's3e_api_iwgl'
p53
sS'ios-no-pic'
p54
NsS'shared-arm-lib'
p55
NsS'arm-cpu'
p56
g4
sS'compile-thumb'
p57
NsS'no-ide'
p58
I01
sS'msvc-version'
p59
S'6.0'
p60
sS'arm'
p61
NsS'builddir'
p62
g4
sS'compile-debug-as-release'
p63
I0
sS'arm-arch'
p64
g4
sS'brief'
p65
NsS'dll'
p66
NsS'buildenv-toolset'
p67
g4
sS'version'
p68
NsS'aarch64-arch'
p69
g4
sS'ccache'
p70
I0
sS'offline'
p71
NsS'ios-version'
p72
g4
sS'hub_data'
p73
g4
sS'fake_vc_call'
p74
NsS'jobs'
p75
I0
sS'linkflags'
p76
NsS'gcc_aarch64_dbg_args'
p77
g13
sS'debug'
p78
I01
sS'xcode-build-order'
p79
g4
sS'gcc_aarch64_rel_rtsm_args'
p80
S'-via:"d:\\School\\cs115\\AmazingMaze\\build_amazingmaze_vc12\\AmazingMaze_vc12_gcc_aarch64_release.via" -qemu'
p81
sS'gcc_rel_rtsm_args'
p82
S'-via:"d:\\School\\cs115\\AmazingMaze\\build_amazingmaze_vc12\\AmazingMaze_vc12_gcc_release.via" -qemu'
p83
sS'done_defaults'
p84
I1
sS'path'
p85
NsS's3e-data-dir'
p86
S'd:/School/cs115/AmazingMaze\\data'
p87
sS'enable-exceptions'
p88
NsS'osx-dll'
p89
NsS'extension'
p90
g4
sS'no-vc6'
p91
NsS'aarch64'
p92
NsS'win32-console'
p93
NsS'dist-format'
p94
g4
sS's3e-force-arch'
p95
NsS'dump_defines'
p96
NsS'use-shared-std-libs'
p97
NsS'gcc-version'
p98
g4
sS'x86_dbg_args'
p99
S'-via:"d:\\School\\cs115\\AmazingMaze\\build_amazingmaze_vc12\\AmazingMaze_vc12_debug.via"'
p100
sS'tizen_x86_dbg_args'
p101
g13
sS'arm-debugger'
p102
g4
sS'use_temp_extension'
p103
NsS'verbose'
p104
I0
sS'log'
p105
NsS'no-strip'
p106
NsS'rebuild'
p107
NsS'mips_dbg_args'
p108
g13
sS'win32-simulator-dll'
p109
NsS'strict'
p110
NsS'xcode-aarch64-build-settings'
p111
g4
sS'enable-global-path'
p112
NsS'gcc_aarch64_rel_args'
p113
g13
sS'cflags'
p114
NsS'dist-dir'
p115
g4
sS'xcode-arm-build-settings'
p116
g4
sS'jflags'
p117
NsS'csprojSDKRefs'
p118
g4
sS'tizen_x86_rel_exe'
p119
S'c:\\marmalade\\7.5\\s3e\\makefile_builder\\tool_launcher.exe'
p120
sS'test-assets'
p121
g4
sS'distcc'
p122
NsS'external-compiler'
p123
NsS'no-distcc'
p124
NsS'preinclude'
p125
NsS'using_sdk'
p126
I01
sS'nologo'
p127
NsS'warn-level'
p128
I2
sS'mips_dbg_exe'
p129
g120
sS'mkb_in'
p130
S'd:/School/cs115/AmazingMaze/AmazingMaze.mkb'
p131
sS'tizen_x86_dbg_exe'
p132
g120
sS'arm_dbg_exe'
p133
S'c:/marmalade/7.5/s3e\\bin\\armdebug.exe'
p134
sS'csprojDLLRef'
p135
NsS'tizen_x86_rel_args'
p136
g13
sS'android_x86_dbg_exe'
p137
g120
sS'test-config'
p138
g4
sS'list-targets'
p139
NsS'arm_rel_exe'
p140
g120
sS'arm_rel_args'
p141
g13
sS'makedeps'
p142
NsS'android_x86_rel_exe'
p143
g120
sS'default-buildenv'
p144
S'VC12'
p145
sS'x86_rel_exe'
p146
g25
sS'preprocess-java'
p147
NsS'mips_rel_args'
p148
g13
sS'defines'
p149
NsS'lib'
p150
NsS'non-interactive'
p151
NsS'global_argv'
p152
(lp153
S'C:\\Marmalade\\7.5\\s3e\\makefile_builder\\mkb.py'
p154
aS'D:/School/cs115/AmazingMaze/AmazingMaze.mkb'
p155
aS'--buildenv=VC12'
p156
aS'--debug'
p157
aS'--x86'
p158
aS'--no-ide'
p159
aS'--execute'
p160
asS'make'
p161
NsS'optimise-speed'
p162
NsS'internal'
p163
NsS'enable-stdinc'
p164
NsS'deploy-only'
p165
NsS'x86'
p166
I01
sS'deploy'
p167
g4
sS'x86_run_exe'
p168
S'c:/marmalade/7.5/s3e\\win32\\s3e_console.exe'
p169
sS'cxxflags'
p170
NsS'x86_rel_args'
p171
S'-via:"d:\\School\\cs115\\AmazingMaze\\build_amazingmaze_vc12\\AmazingMaze_vc12_release.via"'
p172
sS'gcc_rel_args'
p173
g13
sS'mips'
p174
NsS'xcode-build-settings'
p175
g4
sS'incredibuild'
p176
NsS'strict-compile'
p177
NsS'use-auto-subdirs'
p178
NsS'mips_rel_exe'
p179
g120
sS'android_x86_rel_args'
p180
g13
sS'app-icf'
p181
g4
sS'deployargs'
p182
NsS'iosnativedebug'
p183
NsS'use_prebuilt'
p184
NsS'mkf_in'
p185
(lp186
S'c:\\marmalade\\7.5\\s3e\\s3e-default.mkf'
p187
aS'c:\\marmalade\\7.5\\modules\\iwutil\\iwutil.mkf'
p188
aS'c:\\marmalade\\7.5\\modules\\third_party\\libjpeg\\libjpeg.mkf'
p189
aS'c:\\marmalade\\7.5\\modules\\third_party\\libpng\\libpng.mkf'
p190
aS'c:\\marmalade\\7.5\\modules\\third_party\\zlib\\zlib.mkf'
p191
aS'c:\\marmalade\\7.5\\modules\\iw2dscenegraphcore\\iw2dscenegraphcore.mkf'
p192
aS'c:\\marmalade\\7.5\\modules\\iw2dscenegraph\\iw2dscenegraph.mkf'
p193
aS'c:\\marmalade\\7.5\\modules\\iw2d\\iw2d.mkf'
p194
aS'c:\\marmalade\\7.5\\modules\\iwgx\\iwgx.mkf'
p195
aS'c:\\marmalade\\7.5\\modules\\iwgl\\iwgl.mkf'
p196
aS'c:\\marmalade\\7.5\\modules\\iwgeom\\iwgeom.mkf'
p197
aS'c:\\marmalade\\7.5\\modules\\iwresmanager\\iwresmanager.mkf'
p198
aS'c:\\marmalade\\7.5\\extensions\\pvrtextool\\pvrtextool.mkf'
p199
aS'c:\\marmalade\\7.5\\modules\\iwgxfont\\iwgxfont.mkf'
p200
aS'c:\\marmalade\\7.5\\modules\\third_party\\tiniconv\\tiniconv.mkf'
p201
aS'c:\\marmalade\\7.5\\modules\\iwtween\\iwtween.mkf'
p202
asS'strict-mkb'
p203
NsS'executeargs'
p204
NsS'clean'
p205
NsS'no-asm'
p206
NsS'output-name'
p207
g4
sS'no-modules'
p208
NsS'find_define'
p209
g4
s(dp210
S'c:\\marmalade\\7.5\\s3e\\makefile_builder\\templates\\vc7_suo.pyc'
p211
F1422012890.0
sS'c:\\marmalade\\7.5\\s3e\\makefile_builder\\templates\\ws81_vcxproj.pyc'
p212
F1422012892.0
sS'c:\\marmalade\\7.5\\s3e\\makefile_builder\\plugins\\s3e_ws8.pyc'
p213
F1422012890.0
sS'c:\\marmalade\\7.5\\s3e\\makefile_builder\\templates'
p214
F1422054614.950279
sS'c:\\marmalade\\7.5\\s3e\\makefile_builder\\templates\\qmake.py'
p215
F1422011718.0
sS'c:\\marmalade\\7.5\\s3e\\makefile_builder\\templates\\vc10_user.pyc'
p216
F1422012890.0
sS'c:\\marmalade\\7.5\\s3e\\makefile_builder\\plugins'
p217
F1422055040.2056024
sS'c:\\marmalade\\7.5\\s3e\\makefile_builder\\mkb_main.pyc'
p218
F1422012890.0
sS'c:\\marmalade\\7.5\\s3e\\makefile_builder\\templates\\mips_linker_script'
p219
F1422011718.0
sS'c:\\marmalade\\7.5\\s3e\\makefile_builder\\plugins\\XcodeEmitter.py'
p220
F1422011718.0
sS'c:\\marmalade\\7.5\\s3e\\makefile_builder\\mkb.py'
p221
F1422011718.0
sS'c:\\marmalade\\7.5\\s3e\\makefile_builder\\templates\\ws81_ext_sln.pyc'
p222
F1422012892.0
sS'c:\\marmalade\\7.5\\s3e\\makefile_builder\\templates\\win32_dsp.pyc'
p223
F1422012890.0
sS'c:\\marmalade\\7.5\\s3e\\makefile_builder\\templates\\ws8_csproj.pyc'
p224
F1422012892.0
sS'c:\\marmalade\\7.5\\s3e\\makefile_builder\\deployment.pyc'
p225
F1422012890.0
sS'c:\\marmalade\\7.5\\s3e\\makefile_builder\\plugins\\win32_vc6.pyc'
p226
F1422012890.0
sS'c:\\marmalade\\7.5\\s3e\\makefile_builder\\plugins\\osx_xcode.pyc'
p227
F1422012890.0
sS'c:\\marmalade\\7.5\\s3e\\makefile_builder\\plugins\\null.pyc'
p228
F1422012890.0
sS'c:\\marmalade\\7.5\\s3e\\makefile_builder\\templates\\wp81_csproj.pyc'
p229
F1422012892.0
sS'c:\\marmalade\\7.5\\s3e\\makefile_builder\\templates\\qmake_user.py'
p230
F1422011718.0
sS'c:\\marmalade\\7.5\\s3e\\makefile_builder\\templates\\vc6_opt.pyc'
p231
F1422012890.0
sS'c:\\marmalade\\7.5\\s3e\\makefile_builder\\plugins\\vc7_utils.pyc'
p232
F1422012890.0
sS'c:\\marmalade\\7.5\\s3e\\makefile_builder\\templates\\wp81_vcxproj.pyc'
p233
F1422012892.0
sS'c:\\marmalade\\7.5\\s3e\\makefile_builder\\templates\\win32_vcxproj.pyc'
p234
F1422012890.0
sS'c:\\marmalade\\7.5\\s3e\\makefile_builder\\templates\\ws8_ext_sln.pyc'
p235
F1422012892.0
sS'c:\\marmalade\\7.5\\s3e\\makefile_builder\\templates\\ws8_ext_csproj.pyc'
p236
F1422012892.0
sS'c:\\marmalade\\7.5\\s3e\\makefile_builder\\templates\\wp8_ext_csproj.pyc'
p237
F1422012892.0
sS'c:\\marmalade\\7.5\\s3e\\makefile_builder\\plugins\\s3e_wp8.pyc'
p238
F1422012890.0
sS'c:\\marmalade\\7.5\\s3e\\makefile_builder\\templates\\ws81_csproj.pyc'
p239
F1422012892.0
sS'c:\\marmalade\\7.5\\s3e\\makefile_builder\\docs\\deprecated.options.txt'
p240
F1422011718.0
sS'c:\\marmalade\\7.5\\s3e\\makefile_builder\\plugins\\s3e_make.pyc'
p241
F1422012890.0
sS'c:\\marmalade\\7.5\\s3e\\makefile_builder\\templates\\win8_ext_csproj.pyc'
p242
F1422012892.0
sS'c:\\marmalade\\7.5\\s3e\\makefile_builder\\mkb_parser.pyc'
p243
F1422012890.0
sS'c:\\marmalade\\7.5\\s3e\\makefile_builder\\plugins\\s3e_web.pyc'
p244
F1422012890.0
sS'c:\\marmalade\\7.5\\s3e\\makefile_builder\\docs\\mkb.defines.txt'
p245
F1422011718.0
sS'c:\\marmalade\\7.5\\s3e\\makefile_builder\\plugins\\osx_scons.pyc'
p246
F1422012890.0
sS'c:\\marmalade\\7.5\\s3e\\makefile_builder\\plugins\\ws81_ws81.pyc'
p247
F1422012890.0
sS'c:\\marmalade\\7.5\\s3e\\makefile_builder\\plugins\\s3e_qmake.py'
p248
F1422011718.0
sS'c:\\marmalade\\7.5\\s3e\\makefile_builder\\templates\\win8_csproj.pyc'
p249
F1422012892.0
sS'c:\\marmalade\\7.5\\s3e\\makefile_builder\\plugins\\s3e_vc6.pyc'
p250
F1422012890.0
sS'c:\\marmalade\\7.5\\s3e\\makefile_builder\\plugins\\wp81_wp81.pyc'
p251
F1422012890.0
sS'c:\\marmalade\\7.5\\s3e\\makefile_builder\\templates\\wp81_csproj_user.pyc'
p252
F1422012892.0
sS'c:\\marmalade\\7.5\\s3e\\makefile_builder\\templates\\win32_dsw.pyc'
p253
F1422012890.0
sS'c:\\marmalade\\7.5\\s3e\\makefile_builder\\templates\\xcode4.xcscheme'
p254
F1422011718.0
sS'c:\\marmalade\\7.5\\s3e\\makefile_builder\\templates\\template.opt'
p255
F1422011718.0
sS'c:\\marmalade\\7.5\\s3e\\makefile_builder\\templates\\template.suo'
p256
F1422011718.0
sS'c:\\marmalade\\7.5\\s3e\\makefile_builder\\templates\\linker_script'
p257
F1422011718.0
sS'c:\\marmalade\\7.5\\s3e\\makefile_builder\\templates\\gdb_start.txt'
p258
F1422011718.0
sS'c:\\marmalade\\7.5\\s3e\\makefile_builder\\mkb_launcher.exe'
p259
F1422012030.0
sS'c:\\marmalade\\7.5\\s3e\\makefile_builder\\templates\\scons.pyc'
p260
F1422012890.0
sS'c:\\marmalade\\7.5\\s3e\\makefile_builder\\docs\\parse_options.pyc'
p261
F1422012892.0
sS'c:\\marmalade\\7.5\\s3e\\makefile_builder\\templates\\xcode4_arm.xcscheme'
p262
F1422011718.0
sS'c:\\marmalade\\7.5\\s3e\\makefile_builder\\plugins\\VisualStudioEmitter.pyc'
p263
F1422012890.0
sS'c:\\marmalade\\7.5\\s3e\\makefile_builder\\plugins\\s3e_xcode.pyc'
p264
F1422055040.2056024
sS'c:\\marmalade\\7.5\\s3e\\makefile_builder\\plugins\\Emitter.pyc'
p265
F1422012890.0
sS'c:\\marmalade\\7.5\\s3e\\makefile_builder\\templates\\ws8_sln.pyc'
p266
F1422012892.0
sS'c:\\marmalade\\7.5\\s3e\\makefile_builder\\tool_launcher.exe'
p267
F1422012030.0
sS'c:\\marmalade\\7.5\\s3e\\makefile_builder\\templates\\wp8_sln.pyc'
p268
F1422012892.0
sS'c:\\marmalade\\7.5\\s3e\\makefile_builder\\mkb_upstream.pyc'
p269
F1422012890.0
sS'c:\\marmalade\\7.5\\s3e\\makefile_builder\\templates\\ws81_csproj_user.pyc'
p270
F1422012892.0
sS'c:\\marmalade\\7.5\\s3e\\makefile_builder\\templates\\win32_sln.pyc'
p271
F1422012890.0
sS'c:\\marmalade\\7.5\\s3e\\makefile_builder\\templates\\xcode4_DeployTool.xcscheme'
p272
F1422011718.0
sS'c:\\marmalade\\7.5\\s3e\\makefile_builder\\plugins\\deploy.pyc'
p273
F1422012890.0
sS'c:\\marmalade\\7.5\\s3e\\makefile_builder\\plugins\\s3e_win8.pyc'
p274
F1422012890.0
sS'c:\\marmalade\\7.5\\s3e\\makefile_builder\\plugins\\iphone.pyc'
p275
F1422012890.0
sS'c:\\marmalade\\7.5\\s3e\\makefile_builder\\plugins\\Win8Emitter.pyc'
p276
F1422012890.0
sS'c:\\marmalade\\7.5\\s3e\\makefile_builder\\plugins\\s3e_qmake.pyc'
p277
F1422055040.1706004
sS'c:\\marmalade\\7.5\\s3e\\makefile_builder\\docs'
p278
F1422054614.9632797
sS'c:\\marmalade\\7.5\\s3e\\makefile_builder\\mkb_globals.pyc'
p279
F1422012890.0
sS'c:\\marmalade\\7.5\\s3e\\makefile_builder\\plugins\\win8_utils.pyc'
p280
F1422012890.0
sS'c:\\marmalade\\7.5\\s3e\\makefile_builder\\plugins\\xcode4_schememanagement.py'
p281
F1422011718.0
sS'c:\\marmalade\\7.5\\s3e\\makefile_builder\\templates\\wp81_ext_sln.pyc'
p282
F1422012892.0
sS'c:\\marmalade\\7.5\\s3e\\makefile_builder\\templates\\make.py'
p283
F1422011718.0
sS'c:\\marmalade\\7.5\\s3e\\makefile_builder\\templates\\ws81_ext_csproj.pyc'
p284
F1422012892.0
sS'c:\\marmalade\\7.5\\s3e\\makefile_builder\\plugins\\s3e_xcode.py'
p285
F1422011718.0
sS'c:\\marmalade\\7.5\\s3e\\makefile_builder\\plugins\\XcodeEmitter.pyc'
p286
F1422055040.1075966
sS'c:\\marmalade\\7.5\\s3e\\makefile_builder\\docs\\deployment_options.txt'
p287
F1422011718.0
sS'c:\\marmalade\\7.5\\s3e\\makefile_builder\\templates\\win8_sln.pyc'
p288
F1422012892.0
sS'c:\\marmalade\\7.5\\s3e\\makefile_builder\\plugins\\java.pyc'
p289
F1422012890.0
sS'c:\\marmalade\\7.5\\s3e\\makefile_builder\\plugins\\xcode4_schememanagement.pyc'
p290
F1422055040.1115968
sS'c:\\marmalade\\7.5\\s3e\\makefile_builder\\plugins\\SConsEmitter.pyc'
p291
F1422012890.0
sS'c:\\marmalade\\7.5\\s3e\\makefile_builder\\templates\\win32_vcproj.pyc'
p292
F1422012890.0
sS'c:\\marmalade\\7.5\\s3e\\makefile_builder\\plugins\\wp8_wp8.pyc'
p293
F1422012890.0
sS'c:\\marmalade\\7.5\\s3e\\makefile_builder\\templates\\MainWindow.xib'
p294
F1422011718.0
sS'c:\\marmalade\\7.5\\s3e\\makefile_builder\\mkb_util.pyc'
p295
F1422012890.0
sS'c:\\marmalade\\7.5\\s3e\\makefile_builder\\templates\\vc8_user.pyc'
p296
F1422012890.0
sS'c:\\marmalade\\7.5\\s3e\\makefile_builder\\templates\\Info.plist'
p297
F1422011718.0
sS'c:\\marmalade\\7.5\\s3e\\makefile_builder\\templates\\wp8_csproj_user.pyc'
p298
F1422012892.0
sS'c:\\marmalade\\7.5\\s3e\\makefile_builder\\docs\\deprecated.defines.txt'
p299
F1422011718.0
sS'c:\\marmalade\\7.5\\s3e\\makefile_builder\\templates\\ws8_csproj_user.pyc'
p300
F1422012892.0
sS'c:\\marmalade\\7.5\\s3e\\makefile_builder\\plugins\\S3EEmitter.pyc'
p301
F1422012890.0
sS'c:\\marmalade\\7.5\\s3e\\makefile_builder\\templates\\rvct_linker_script'
p302
F1422011718.0
sS'c:\\marmalade\\7.5\\s3e\\makefile_builder\\templates\\xcode_pbxuser.py'
p303
F1422011718.0
sS'c:\\marmalade\\7.5\\s3e\\makefile_builder\\docs\\options.txt'
p304
F1422011718.0
sS'c:\\marmalade\\7.5\\s3e\\makefile_builder\\templates\\wp81_sln.pyc'
p305
F1422012892.0
sS'c:\\marmalade\\7.5\\s3e\\makefile_builder\\templates\\ws81_sln.pyc'
p306
F1422012892.0
sS'c:\\marmalade\\7.5\\s3e\\makefile_builder\\plugins\\vc6_utils.pyc'
p307
F1422012890.0
sS'c:\\marmalade\\7.5\\s3e\\makefile_builder\\templates\\wp81_ext_csproj.pyc'
p308
F1422012892.0
sS'c:\\marmalade\\7.5\\s3e\\makefile_builder\\plugins\\s3e_wp81.pyc'
p309
F1422012890.0
sS'c:\\marmalade\\7.5\\s3e\\makefile_builder\\templates\\aarch64_linker_script'
p310
F1422011718.0
sS'c:\\marmalade\\7.5\\s3e\\makefile_builder\\templates\\ws8_vcxproj.pyc'
p311
F1422012892.0
sS'c:\\marmalade\\7.5\\s3e\\makefile_builder\\plugins\\MakeEmitter.pyc'
p312
F1422012890.0
sS'c:\\marmalade\\7.5\\s3e\\makefile_builder\\templates\\win32_vcxproj_filters.pyc'
p313
F1422012890.0
sS'c:\\marmalade\\7.5\\s3e\\makefile_builder\\templates\\xcode.py'
p314
F1422011718.0
sS'c:\\marmalade\\7.5\\s3e\\makefile_builder\\plugins\\s3e_ws81.pyc'
p315
F1422012890.0
sS'c:\\marmalade\\7.5\\s3e\\makefile_builder\\plugins\\linux_scons.pyc'
p316
F1422012890.0
sS'c:\\marmalade\\7.5\\s3e\\makefile_builder\\templates\\win8_vcxproj.pyc'
p317
F1422012892.0
sS'c:\\marmalade\\7.5\\s3e\\makefile_builder\\plugins\\s3e_scons.pyc'
p318
F1422012890.0
sS'c:\\marmalade\\7.5\\s3e\\makefile_builder\\templates\\wp8_csproj.pyc'
p319
F1422012892.0
sS'c:\\marmalade\\7.5\\s3e\\makefile_builder\\templates\\win8_csproj_user.pyc'
p320
F1422012892.0
sS'c:\\marmalade\\7.5\\s3e\\makefile_builder\\plugins\\ws8_ws8.pyc'
p321
F1422012890.0
sS'c:\\marmalade\\7.5\\s3e\\makefile_builder\\templates\\wp8_vcxproj.pyc'
p322
F1422012892.0
sS'c:\\marmalade\\7.5\\s3e\\makefile_builder\\mkb_option.pyc'
p323
F1422012890.0
sccopy_reg
_reconstructor
p324
(cmkb_main
MkbFile
p325
c__builtin__
object
p326
Ntp327
Rp328
(dp329
g5
(lp330
sS'target_name'
p331
S'AmazingMaze'
p332
sS'current_file'
p333
g131
sS'package_path'
p334
(lp335
sS'post_build'
p336
(lp337
(lp338
S'c:/marmalade/7.5/s3e/tools'
p339
aS'C:\\Marmalade\\7.5\\s3e\\python\\python.exe .\\process_map.py "$(TargetPath)"'
p340
aa(S'c:\\marmalade\\7.5\\s3e\\bin'
p341
S'"s3e_plink" -l "$(TargetPath)" '
p342
g166
tp343
asS'librarys'
p344
(lp345
g324
(cmkb_main
Library
p346
g326
Ntp347
Rp348
(dp349
S'name'
p350
S'vc6_compat.lib'
p351
sS'expand_name'
p352
I00
sS'include_spec_rvct_objs'
p353
(lp354
sS'include_all_objs'
p355
I00
sS'share_arm'
p356
I00
sS'arch'
p357
S'x86'
p358
sS'nodebug'
p359
I00
sg38
Nsbag324
(g346
g326
Ntp360
Rp361
(dp362
g350
S'iwutil'
p363
sg352
I01
sg353
(lp364
sg355
Nsg356
Nsg357
Nsg359
I00
sg38
Nsbag324
(g346
g326
Ntp365
Rp366
(dp367
g350
S'jpeg'
p368
sg352
I01
sg353
g364
sg355
Nsg356
Nsg357
Nsg359
I00
sg38
Nsbag324
(g346
g326
Ntp369
Rp370
(dp371
g350
S'z'
p372
sg352
I01
sg353
g364
sg355
Nsg356
Nsg357
Nsg359
I00
sg38
Nsbag324
(g346
g326
Ntp373
Rp374
(dp375
g350
S'png'
p376
sg352
I01
sg353
g364
sg355
Nsg356
Nsg357
Nsg359
I00
sg38
Nsbag324
(g346
g326
Ntp377
Rp378
(dp379
g350
S'iw2d'
p380
sg352
I01
sg353
g364
sg355
Nsg356
Nsg357
Nsg359
I00
sg38
Nsbag324
(g346
g326
Ntp381
Rp382
(dp383
g350
S'ATI_Compress_MT_VC7.lib'
p384
sg352
I00
sg353
g364
sg355
Nsg356
Nsg357
S'x86'
p385
sg359
I00
sg38
Nsbag324
(g346
g326
Ntp386
Rp387
(dp388
g350
S'iwgx'
p389
sg352
I01
sg353
g364
sg355
Nsg356
Nsg357
Nsg359
I00
sg38
Nsbag324
(g346
g326
Ntp390
Rp391
(dp392
g350
S'iwgl'
p393
sg352
I01
sg353
g364
sg355
Nsg356
Nsg357
Nsg359
I00
sg38
Nsbag324
(g346
g326
Ntp394
Rp395
(dp396
g350
S'iwgeom'
p397
sg352
I01
sg353
g364
sg355
Nsg356
Nsg357
Nsg359
I00
sg38
Nsbag324
(g346
g326
Ntp398
Rp399
(dp400
g350
S'iwresmanager'
p401
sg352
I01
sg353
g364
sg355
Nsg356
Nsg357
Nsg359
I00
sg38
Nsbag324
(g346
g326
Ntp402
Rp403
(dp404
g350
S'iwgxfont'
p405
sg352
I01
sg353
g364
sg355
Nsg356
Nsg357
Nsg359
I00
sg38
Nsbag324
(g346
g326
Ntp406
Rp407
(dp408
g350
S'tiniconv'
p409
sg352
I01
sg353
g364
sg355
Nsg356
Nsg357
Nsg359
I00
sg38
Nsbag324
(g346
g326
Ntp410
Rp411
(dp412
g350
S's3e_cpp'
p413
sg352
I01
sg353
g354
sg355
I00
sg356
I00
sg357
Nsg359
I00
sg38
Nsbag324
(g346
g326
Ntp414
Rp415
(dp416
g350
S's3e'
p417
sg352
I01
sg353
(lp418
S'iwcrt.o'
p419
asg355
I00
sg356
I00
sg357
Nsg359
I00
sg38
Nsbag324
(g346
g326
Ntp420
Rp421
(dp422
g350
g53
sg352
I01
sg353
g354
sg355
I00
sg356
I00
sg357
S'x86'
p423
sg359
I01
sg38
Nsbag324
(g346
g326
Ntp424
Rp425
(dp426
g350
g53
sg352
I01
sg353
g354
sg355
I00
sg356
I00
sg357
S'!x86'
p427
sg359
I01
sg38
Nsbag324
(g346
g326
Ntp428
Rp429
(dp430
g350
S'stdc++'
p431
sg352
I00
sg353
g354
sg355
I00
sg356
I00
sg357
S'mips'
p432
sg359
I00
sg38
Nsbag324
(g346
g326
Ntp433
Rp434
(dp435
g350
S'c'
p436
sg352
I00
sg353
g354
sg355
I00
sg356
I00
sg357
S'mips'
p437
sg359
I00
sg38
Nsbag324
(g346
g326
Ntp438
Rp439
(dp440
g350
S'm'
p441
sg352
I00
sg353
g354
sg355
I00
sg356
I00
sg357
S'mips'
p442
sg359
I00
sg38
Nsbag324
(g346
g326
Ntp443
Rp444
(dp445
g350
S'gcc'
p446
sg352
I00
sg353
g354
sg355
I00
sg356
I00
sg357
S'mips'
p447
sg359
I00
sg38
Nsbag324
(g346
g326
Ntp448
Rp449
(dp450
g350
S'stdc++'
p451
sg352
I00
sg353
g354
sg355
I00
sg356
I00
sg357
S'gcc_x86_android'
p452
sg359
I00
sg38
Nsbag324
(g346
g326
Ntp453
Rp454
(dp455
g350
g436
sg352
I00
sg353
g354
sg355
I00
sg356
I00
sg357
S'gcc_x86_android'
p456
sg359
I00
sg38
Nsbag324
(g346
g326
Ntp457
Rp458
(dp459
g350
g441
sg352
I00
sg353
g354
sg355
I00
sg356
I00
sg357
S'gcc_x86_android'
p460
sg359
I00
sg38
Nsbag324
(g346
g326
Ntp461
Rp462
(dp463
g350
g446
sg352
I00
sg353
g354
sg355
I00
sg356
I00
sg357
S'gcc_x86_android'
p464
sg359
I00
sg38
NsbasS'library_paths'
p465
(lp466
g324
(cmkb_main
LibraryPath
p467
g326
Ntp468
Rp469
(dp470
S'expand_path'
p471
I01
sg350
S'c:/marmalade/7.5/modules/iwutil'
p472
sbag324
(g467
g326
Ntp473
Rp474
(dp475
g471
I01
sg350
S'c:/marmalade/7.5/modules/third_party/libjpeg'
p476
sbag324
(g467
g326
Ntp477
Rp478
(dp479
g471
I01
sg350
S'c:/marmalade/7.5/modules/third_party/zlib'
p480
sbag324
(g467
g326
Ntp481
Rp482
(dp483
g471
I01
sg350
S'c:/marmalade/7.5/modules/third_party/libpng'
p484
sbag324
(g467
g326
Ntp485
Rp486
(dp487
g471
I01
sg350
S'c:/marmalade/7.5/modules/iw2d'
p488
sbag324
(g467
g326
Ntp489
Rp490
(dp491
g471
I00
sg350
S'c:/marmalade/7.5/modules/iwgx/atitools'
p492
sbag324
(g467
g326
Ntp493
Rp494
(dp495
g471
I01
sg350
S'c:/marmalade/7.5/modules/iwgx'
p496
sbag324
(g467
g326
Ntp497
Rp498
(dp499
g471
I01
sg350
S'c:/marmalade/7.5/modules/iwgl'
p500
sbag324
(g467
g326
Ntp501
Rp502
(dp503
g471
I01
sg350
S'c:/marmalade/7.5/modules/iwgeom'
p504
sbag324
(g467
g326
Ntp505
Rp506
(dp507
g471
I01
sg350
S'c:/marmalade/7.5/modules/iwresmanager'
p508
sbag324
(g467
g326
Ntp509
Rp510
(dp511
g471
I01
sg350
S'c:/marmalade/7.5/modules/iwgxfont'
p512
sbag324
(g467
g326
Ntp513
Rp514
(dp515
g471
I01
sg350
S'c:/marmalade/7.5/modules/third_party/tiniconv'
p516
sbag324
(g467
g326
Ntp517
Rp518
(dp519
g471
I01
sg350
S'c:/marmalade/7.5/s3e'
p520
sbasS'macros'
p521
(dp522
S'IW_USE_CALLSTACK'
p523
NsS'IW_MKF_IWGEOM'
p524
NsS'I3D_PLATFORM_S3E'
p525
NsS'IW_MKF_IW2DSCENEGRAPHCORE'
p526
NsS'IW_MKF_LIBJPEG'
p527
NsS'I3D_OS_S3E'
p528
NsS'IW_MKF_PVRTEXTOOL'
p529
NsS'IW_MKF_TINICONV'
p530
NsS'IW_APP_VERSION'
p531
S'"1.0"'
p532
sS'__S3E__'
p533
NsS'IW_MKF_IWRESMANAGER'
p534
NsS'IW_MKF_IWUTIL'
p535
NsS'IW_PLATFORM_S3E'
p536
NsS'IW_ASSERTION_CHANNEL_2D'
p537
S'1'
p538
sS'IW_APP_NAME'
p539
S'"AmazingMaze"'
p540
sS'IW_MKF_S3E_DEFAULT'
p541
NsS'IW_MKF_IWGXFONT'
p542
NsS'IW_MKF_IWTWEEN'
p543
NsS'IW_MKF_ZLIB'
p544
NsS'IW_MKF_IWGX'
p545
NsS'IW_MKF_IW2DSCENEGRAPH'
p546
NsS'IW_USE_ASSERTIONS'
p547
NsS'_CRT_SECURE_NO_DEPRECATE'
p548
NsS'IW_MKF_IWGL'
p549
NsS'IW_MKF_LIBPNG'
p550
NsS'IW_TRACE_CHANNEL_IW_2DSCENEGRAPH'
p551
g538
sS'IW_DEBUG'
p552
NsS'IW_USE_TRACING'
p553
NsS'IW_ASSERTION_CHANNEL_IW_2DSCENEGRAPH'
p554
g538
sS'IW_TRACE_CHANNEL_PVRTEXTOOL'
p555
g538
sS'IW_SDK'
p556
NsS'S3E_INCLUDE_LEGACY'
p557
NsS'IW_TRACE_CHANNEL_PVRTEXTOOL_VERBOSE'
p558
S'2'
p559
sS'IW_MKF_IW2D'
p560
NsS'IW_ASSERTION_CHANNEL_PVRTEXTOOL'
p561
g538
ssS'done_warnings'
p562
(dp563
sS'subprojects'
p564
(dp565
g200
S'iwgxfont'
p566
sg187
S's3e-default.mkf'
p567
sg192
S'iw2dscenegraphcore'
p568
sg191
S'zlib'
p569
sg198
S'iwresmanager'
p570
sg201
S'tiniconv'
p571
sg189
S'libjpeg'
p572
sg193
S'iw2dscenegraph'
p573
sg190
S'libpng'
p574
sg188
S'iwutil'
p575
sg202
S'iwtween'
p576
sg195
S'iwgx'
p577
sg194
S'iw2d'
p578
sg196
S'iwgl'
p579
sg197
S'iwgeom'
p580
sg199
S'PVRTexTool'
p581
ssS'deployments'
p582
(dp583
S'Default'
p584
g324
(cdeployment
Deployment
p585
g326
Ntp586
Rp587
(dp588
S'got_version'
p589
I0
sS'assets'
p590
g584
sS'mkb'
p591
g328
sS'target'
p592
Nsg357
(lp593
sS'options'
p594
(dp595
S'iphone-link-lib'
p596
(lp597
sS'game-icf'
p598
NsS'android-tm'
p599
NsS'winmobile-icon32'
p600
NsS'ws8-logo-image150x150'
p601
NsS'wp81-logo-image150x150'
p602
NsS'ws81-product-version'
p603
NsS'osx-ext-dll'
p604
(lp605
S'c:/marmalade/7.5/extensions/pvrtextool/lib/osx/libPVRTexTool.dylib'
p606
asS'iphone-provisioning-profile'
p607
NsS'win32-icon'
p608
NsS'ws8-splash-screen-image620x300'
p609
NsS'wp81-extra-pri'
p610
(lp611
sS'ws8-ext-capabilities'
p612
(lp613
sS'android-icon-hdpi'
p614
NsS'iphone-ipad-only'
p615
NsS'iphone-splash-full-orient'
p616
NsS'wp8-tile-fliptemplate-supports-large'
p617
NsS'iphone-show-status-bar'
p618
NsS'roku-requires-mkv'
p619
NsS'long-caption'
p620
NsS'android-pkgname'
p621
NsS'wp81-publisher-display-name'
p622
NsS'blackberry-permissions-read-device-identifying-information'
p623
NsS'ws81-certificate-end-date'
p624
NsS'psp-dlgcontentid'
p625
NsS'iphone-minimum-ios-version'
p626
NsS'target-folder'
p627
NsS'tizen-dist1-CA-path'
p628
NsS'symbian-icon2-format'
p629
NsS'tizen-author-key'
p630
NsS'firefoxos-icon-128X128'
p631
NsS'iphone-region'
p632
NsS'uiq3-icon3-mask'
p633
NsS'brew-encoding'
p634
NsS'android-x86'
p635
NsS'nds-initialcode'
p636
NsS'iphone-persistent-wifi'
p637
NsS'psp-snd0'
p638
NsS'roku-icon-focus-hd'
p639
NsS'osx-appid'
p640
NsS'winmobile-install-folder'
p641
NsS'android-external-res'
p642
(lp643
sS'ws8-product-version'
p644
NsS'brew-priviledges'
p645
NsS'iphone-info-plist-override'
p646
NsS'iphone-icon-ipad'
p647
NsS'iphone-skip-icon-generation'
p648
NsS'roku-hidden'
p649
NsS'psp-titlename'
p650
NsS'wp81-product-version'
p651
NsS'symbian-icon1-mask'
p652
NsS'psp-parentallevel'
p653
NsS'iphone-launch-storyboard'
p654
NsS'splashscreen-use-all'
p655
NsS'wp8-author'
p656
NsS'symbian-disable-ecompxl'
p657
NsS'splashscreen-auto-onblack'
p658
NsS'iphone-icon-dir'
p659
NsS'iphone-icon-extra'
p660
NsS'win32-ext-dll'
p661
(lp662
S'c:/marmalade/7.5/extensions/pvrtextool/lib/win32/PVRTexTool.dll'
p663
asS'iphone-development-key'
p664
NsS'winmobile-icon48'
p665
NsS'android-unsigned'
p666
NsS'osx-appstore-category'
p667
NsS'version-revision'
p668
NsS'roku-icon-focus-sd'
p669
NsS'android-keystore'
p670
NsS'winmobile-png90'
p671
NsS'iphone-icon-ipad-high-res'
p672
NsS'iphone-disable-ipad'
p673
NsS'ws81-splash-screen-background'
p674
NsS'wp8-ext-capabilities'
p675
(lp676
sS'brew-icon-large'
p677
NsS'symbian-icon1-mask-black'
p678
NsS'ws8-extra-res'
p679
(lp680
sS'iphone-bundle-localisations'
p681
NsS'winmobile-png60'
p682
NsS'blackberry-permissions-access-shared'
p683
NsS'blackberry-author'
p684
NsS'android-icon-xxxhdpi'
p685
NsS'olddeploytoolstyle'
p686
NsS'android_icon_gallery'
p687
NsS'wp81-splash-screen-background'
p688
NsS'winmobile-cab-compress'
p689
NsS'iphone-info-plist'
p690
NsS'ws81-ext-managed-dll'
p691
(lp692
sS'playbook-cskpass'
p693
NsS'ws8-distribution-pfx-password'
p694
NsS'symbian-key'
p695
NsS'app-icf'
p696
NsS'blackberry-storepass'
p697
NsS'wp8-tile-fliptemplate-back-title'
p698
NsS'brew-compress-loader'
p699
NsS'win32-pref-windowposy'
p700
NsS'win32-pref-windowposx'
p701
NsS'roku-requires-audiometadata'
p702
NsS'wp8-exclude-low-mem'
p703
NsS'iphone-icon-ipad-search-high-res'
p704
NsS'iphone-link-libdir'
p705
(lp706
sS'wp81-ext-capabilities'
p707
(lp708
sS'blackberry-permissions-read-geolocation'
p709
NsS'ws81-ext-device-capabilities'
p710
(lp711
sS'tizen-signed'
p712
NsS'android-extra-application-manifest'
p713
(lp714
sS'ws8-ext-native-dll'
p715
(lp716
sS'symbian-icon2-mask'
p717
NsS'iphone-launch-extra'
p718
NsS'webos-memory'
p719
NsS'android-keypass'
p720
NsS'name'
p721
NsS'uiq3-icon2-format'
p722
NsS'roku-splash-screen-sd'
p723
NsS'auto-derbh'
p724
NsS'roku-icon-side-sd'
p725
NsS'android-external-assets'
p726
(lp727
sS'nds-publicsavedatasize'
p728
NsS'splashscreen'
p729
NsS'brew-mif'
p730
NsS'iphone-icon-settings-high-res'
p731
NsS'android-manifest'
p732
NsS'ws81-splash-screen-image620x300'
p733
NsS'wp81-product-name'
p734
NsS's3e-compression'
p735
NsS'tizen-author-password'
p736
NsS'wp8-tile-fliptemplate-back-content'
p737
NsS'blackberry-extra-descriptor'
p738
(lp739
sS'symbian-icon1'
p740
NsS'symbian-icon2'
p741
NsS'nds-makercode'
p742
NsS'android-extra-styles-file'
p743
NsS'wp81-publisher-id'
p744
NsS'nds-bannertitle-jp'
p745
NsS'wp81-logo-image44x44'
p746
NsS'osx-sign-for-store'
p747
NsS'symbian7-uid'
p748
NsS'wp8-tile-fliptemplate-large-back-content'
p749
NsS'wp81-phone-publisher-id'
p750
NsS'nds-bannertitle-cn'
p751
NsS'iphone-distribution-key'
p752
NsS'android-icon-gallery'
p753
NsS'blackberry-keystore'
p754
NsS'iphone-nosign'
p755
NsS'caption'
p756
NsS'android-extra-manifest'
p757
(lp758
sS'wp81-ext-sdk-ref'
p759
(lp760
sS'android-icon-xxhdpi'
p761
NsS'version-minor'
p762
NsS'iphone-skip-launch-generation'
p763
NsS'iphone-link-libdirs'
p764
(lp765
sS'iphone-icon-large'
p766
NsS'symbian-keypwd'
p767
NsS'symbian8-uid'
p768
NsS'symbian-cert-key'
p769
NsS'winmobile-ampd-part-number'
p770
NsS'arch'
p771
NsS'nds-romheadertemplate'
p772
NsS'webos-icon'
p773
NsS'wp81-ext-device-capabilities'
p774
(lp775
sS'psp-dlgprotectdocument'
p776
NsS'ws8-splash-screen-background'
p777
NsS'android-icon-mdpi'
p778
NsS'nds-icon'
p779
NsS'ws8-custom-manifest-fill'
p780
NsS'iphone-development-cert'
p781
NsS'and'
p782
NsS'symbian-icon2-mask-black'
p783
NsS'blackberry-phone-icon'
p784
NsS'iphone-enable-4inch-retina'
p785
NsS'ws8-custom-manifest'
p786
NsS'version-major'
p787
NsS'wp8-genre-isgame'
p788
NsS'uiq3-uid'
p789
NsS'iphone-splash-retina-generate'
p790
NsS'tizen-hw-acceleration'
p791
NsS'iphone_bundle_localisations'
p792
NsS'tizen-dist1-key'
p793
NsS'wp81-custom-manifest-fill'
p794
NsS'wp8-custom-manifest'
p795
NsS'nds-bannertitle-ge'
p796
NsS'iphone-sign-for-distribution'
p797
NsS'wp8-tile-fliptemplate-medium-back-image'
p798
NsS'wp8-publisher-id'
p799
NsS'icon'
p800
NsS'wp8-exclude-wxga'
p801
NsS'wp81-identity-name'
p802
NsS'uiq3-icon2-mask'
p803
NsS'iphone-splashscreen-portrait'
p804
NsS'iphone-icon-high-res'
p805
NsS'ws81-distribution-pfx-password'
p806
NsS'playbook-author'
p807
NsS'android-icon-xhdpi'
p808
NsS'linux-ext-lib'
p809
(lp810
sS'blackberry-permissions-access-internet'
p811
NsS'wp8-exclude-720p'
p812
NsS'lgtv-use-drm'
p813
NsS'symbian-platsecflags'
p814
NsS'ws8-description'
p815
NsS'blackberry-playbook-icon'
p816
NsS'copyright'
p817
NsS'win32-gles-directory'
p818
NsS'version'
p819
NsS'iphone-uiviewcontroller-based-status-bar'
p820
NsS'ws81-logo-image150x150'
p821
NsS'osx-signing-identity-app'
p822
NsS'tizen-project-url'
p823
NsS'symbian-icon-svg'
p824
NsS'android-aliasname'
p825
NsS'psp-dlgmanual'
p826
NsS'brew-uid'
p827
NsS'symbian-locationsupport'
p828
NsS'wp81-logo-image50x50'
p829
NsS'ws8-ext-managed-dll'
p830
(lp831
sS'nds-bannertitle-it'
p832
NsS'ws81-custom-manifest-fill'
p833
NsS'ws8-ext-sdk-manifest-part'
p834
(lp835
sS'uiq3-icon1-mask'
p836
NsS'winmobile-icon16'
p837
NsS'ws8-product-name'
p838
NsS'blackberry-cskpass'
p839
NsS'winmobile-start-menu-folder'
p840
NsS'brew-clsid'
p841
NsS'roku-requires-bluetooth'
p842
NsS'ws8-ext-device-capabilities'
p843
(lp844
sS'blackberry-permissions-use-camera'
p845
NsS'ws81-extra-pri'
p846
(lp847
sS'iphone-prerendered-icon'
p848
NsS'iphone-appid'
p849
NsS'ws8-identity-name'
p850
NsS'tizen-dist2-CA-path'
p851
NsS'android-external-jars'
p852
(lp853
sS'winmobile-icon64'
p854
NsS'blackberry-permissions-post-notification'
p855
NsS'winmobile-setup-dll'
p856
NsS'firefoxos-manifest'
p857
NsS'win8-winrt-extra-res'
p858
(lp859
sS'wp81-ext-sdk-manifest-part'
p860
(lp861
sS'symbian9-uid'
p862
NsS'iphone-icon-ipad-ios7'
p863
NsS'winmobile-trace-file'
p864
NsS'roku-splash-color'
p865
NsS'psp-appversion'
p866
NsS'ws8-publisher-id'
p867
NsS'android-supports-gl-texture'
p868
(lp869
sS'winmobile-png45'
p870
NsS'wp81-extra-res'
p871
(lp872
sS'android-storepass'
p873
NsS'osx-signing-identity-inst'
p874
NsS'android-custom-activity'
p875
NsS'psp-discversion'
p876
NsS'wp81-ext-managed-dll'
p877
(lp878
sS'psp-copyright'
p879
NsS'embed-icf'
p880
NsS'tizen-manifest'
p881
NsS'osx-icon'
p882
NsS'webos-appinfo'
p883
NsS'psp-dlghealthwarning'
p884
NsS'webos-appid'
p885
NsS'roku-icon-side-hd'
p886
NsS'iphone-icon-ipad-search-high-res-ios7'
p887
NsS'iphone-extra-plist'
p888
(lp889
sS'ws81-ext-sdk-manifest-part'
p890
(lp891
sS'loader_name_prefix'
p892
NsS'iphone-launch-dir'
p893
NsS'nds-titlename'
p894
NsS'ws81-logo-image50x50'
p895
NsS'wp81-custom-manifest'
p896
NsS'osx-entitlements-plist'
p897
NsS'psp-dlgicon0'
p898
NsS'winmobile-nouninstall'
p899
NsS'psp-discid'
p900
NsS'tizen-dist2-password'
p901
NsS'ws8-ext-sdk-ref'
p902
(lp903
sS'iphone-extra-string'
p904
(lp905
sS'version-string'
p906
NsS'iphone-icon-high-res-ios7'
p907
NsS'blackberry-permissions-record-audio'
p908
NsS'ws8-certificate-end-date'
p909
NsS'tizen-so'
p910
(lp911
sS'wp8-tile-fliptemplate-small-image'
p912
NsS'playbook-authorid'
p913
NsS'iphone-signing-identity'
p914
NsS'roku-persist-quota'
p915
NsS'nds-bannertitle-fr'
p916
NsS'ws8-distribution-pfx'
p917
NsS'ws8-publisher-display-name'
p918
NsS'brew-icon-small'
p919
NsS'psp-dlgpic2'
p920
NsS'psp-dlgpic0'
p921
NsS'psp-pic0'
p922
NsS'psp-pic1'
p923
NsS'win32-pref-windowtitle'
p924
NsS'psp-icon0'
p925
NsS'psp-icon1'
p926
NsS'ws81-identity-name'
p927
NsS'winmobile-icon'
p928
NsS'iphone-no-splash'
p929
NsS'iphone-splash'
p930
NsS'iphone-app-fonts'
p931
NsS'wp8-ext-native-dll'
p932
(lp933
sS'wp81-splash-screen-image480x800'
p934
NsS'ws81-distribution-cer'
p935
NsS'iphone-backgroundmode-audio'
p936
NsS'uiq3-icon2'
p937
NsS'uiq3-icon3'
p938
NsS'uiq3-icon1'
p939
NsS'uiq3-icon1-format'
p940
NsS'ws8-logo-image50x50'
p941
NsS'iphone-icon-ipad-search'
p942
NsS'symbian-run-on-install'
p943
NsS'wp81-description'
p944
NsS'ws81-publisher-display-name'
p945
NsS'firefoxos-xulrunner'
p946
NsS'symbian-soundrecordsupport'
p947
NsS'nds-bannertitle-sp'
p948
NsS'psp-producer'
p949
NsS'iphone-apple-wwdr-cert'
p950
NsS'android-icon-nonstandard'
p951
NsS'win32-pref-processtitle'
p952
NsS'nds-bannertitle-hn'
p953
NsS'tizen-dist2-key'
p954
NsS'brew-depends'
p955
NsS'ws81-custom-manifest'
p956
NsS'iphone-allow-launch-rotation'
p957
NsS'iphone-icon-ipad-search-ios7'
p958
NsS'brew-icon-medium'
p959
NsS'iphone-bundle-url-name'
p960
NsS'wp8-tile-fliptemplate-large-front-image'
p961
NsS'tizen-dist2-CA-root-path'
p962
NsS'ws81-description'
p963
NsS'uiq3-icon3-format'
p964
NsS'ws81-logo-image30x30'
p965
NsS'win8-phone-extra-res'
p966
(lp967
sS'iphone-signing-host'
p968
NsS'tizen-icon'
p969
NsS'osx-info-plist'
p970
NsS'symbian-icon1-format'
p971
NsS'ws81-distribution-pfx'
p972
NsS'blackberry-authorid'
p973
NsS'ws81-publisher-id'
p974
NsS'win8-store-extra-res'
p975
(lp976
sS'wp8-description'
p977
NsS'iphone-link-opts'
p978
(lp979
sS'ws81-ext-sdk-ref'
p980
(lp981
sS'roku-splash-min-time'
p982
NsS'wp8-tile-fliptemplate-medium-front-image'
p983
NsS'iphone-disable-launch-images'
p984
NsS'provider'
p985
NsS'playbook-keystore'
p986
NsS'tizen-appid'
p987
NsS'wp8-extra-res'
p988
(lp989
sS'symbian-osexecsupport'
p990
NsS'android-install-location'
p991
NsS'nds-privatesavedatasize'
p992
NsS'iphone-disable-testflight'
p993
NsS'playbook-storepass'
p994
NsS'android-icon-ldpi'
p995
NsS'manufacturer'
p996
NsS'itunes-artwork'
p997
NsS'iphone-extra-sections'
p998
NsS'ws81-product-name'
p999
NsS'ws81-ext-native-dll'
p1000
(lp1001
sS'ws8-extra-pri'
p1002
(lp1003
sS'wp8-product-id'
p1004
NsS'ws8-logo-image30x30'
p1005
NsS'wp8-ext-managed-dll'
p1006
(lp1007
sS'iphone-splashscreen-landscape'
p1008
NsS'symbian-maxheapsize'
p1009
NsS'android-extra-packages'
p1010
(lp1011
sS'priv-sign-key'
p1012
NsS'networking'
p1013
NsS'android-icon'
p1014
NsS'iphone-icon-settings'
p1015
NsS'wp81-phone-product-id'
p1016
NsS'firefoxos-icon-60X60'
p1017
NsS'iphone-distribution-cert'
p1018
NsS'android_extra_strings'
p1019
NsS'nds-bannertitle-en'
p1020
NsS'wp8-tile-fliptemplate-title'
p1021
NsS'android-so'
p1022
(lp1023
sS'wp8-higher-mem'
p1024
NsS'wp8-ext-sdk-ref'
p1025
(lp1026
sS'wp8-fast-resume-mode'
p1027
NsS'roku-splash-screen-hd'
p1028
NsS'iphone-bundle-url-schemes'
p1029
NsS'roku-screensaver-private'
p1030
NsS'osx-extra-res'
p1031
(lp1032
sS'ws81-extra-res'
p1033
(lp1034
sS'playbook-icon'
p1035
NsS'uid'
p1036
NsS'pkguid-as-uid'
p1037
NsS'wp81-ext-native-dll'
p1038
(lp1039
sS'tizen-dist1-password'
p1040
NsS'roku-screensaver-title'
p1041
NsS'osx-minimum-osx-version'
p1042
NsS'symbian-cert'
p1043
NsS'iphone-icon'
p1044
NsS'ws81-ext-capabilities'
p1045
(lp1046
sS'ws8-distribution-cer'
p1047
NsS'playbook-access-shared'
p1048
NsS'iphone-icon-ipad-high-res-ios7'
p1049
NsS'iphone-link-libs'
p1050
(lp1051
sS'wp8-exclude-wvga'
p1052
NsS'assets'
p1053
NsS'wp8-tile-fliptemplate-large-back-image'
p1054
NsS'wp8-custom-manifest-fill'
p1055
NsS'pub-sign-key'
p1056
NsS'android-extra-strings'
p1057
NsS'tizen-author-CA-path'
p1058
Nssg350
g584
sbssS'platform'
p1059
S'S3E'
p1060
sg68
S'1.0'
p1061
sS'arcade_platform'
p1062
g4
sS'extensions'
p1063
(dp1064
sS'source_groups_tree'
p1065
(dp1066
S'(libpng)'
p1067
(dp1068
S'h'
p1069
(dp1070
S'c:/marmalade/7.5/modules/third_party/libpng/h/png.h'
p1071
(lp1072
I1
a(dp1073
asS'c:/marmalade/7.5/modules/third_party/libpng/h/pngconf.h'
p1074
(lp1075
I1
ag1073
assS'c:/marmalade/7.5/modules/third_party/libpng/libpng.mkf'
p1076
(lp1077
I1
a(dp1078
assS'd:/School/cs115/AmazingMaze/MazeGenerator.cpp'
p1079
(lp1080
I1
a(dp1081
asS'(tiniconv)'
p1082
(dp1083
S'c:/marmalade/7.5/modules/third_party/tiniconv/tiniconv.mkf'
p1084
(lp1085
I1
a(dp1086
asS'c:/marmalade/7.5/modules/third_party/tiniconv/source/tiniconv_int.h'
p1087
(lp1088
I1
a(dp1089
asS'c:/marmalade/7.5/modules/third_party/tiniconv/source/tiniconv.h'
p1090
(lp1091
I1
ag1089
assS'd:/School/cs115/AmazingMaze/MazeGenerator.h'
p1092
(lp1093
I1
ag1081
asS'd:/School/cs115/AmazingMaze/menu.cpp'
p1094
(lp1095
I1
ag1081
asS'd:/School/cs115/AmazingMaze/PlayerMovement.h'
p1096
(lp1097
I1
ag1081
asS'd:/School/cs115/AmazingMaze/MazeDrawer.cpp'
p1098
(lp1099
I1
ag1081
asS'd:/School/cs115/AmazingMaze/MazeDrawer.h'
p1100
(lp1101
I1
ag1081
asS'Extensions'
p1102
(dp1103
S'PVRTexTool'
p1104
(dp1105
S'interface'
p1106
(dp1107
S'c:/marmalade/7.5/extensions/pvrtextool/interface/PVRTexTool.defines.txt'
p1108
(lp1109
I1
a(dp1110
asS'c:/marmalade/7.5/extensions/pvrtextool/interface/PVRTexTool_interface.cpp'
p1111
(lp1112
I1
ag1110
assS'c:/marmalade/7.5/extensions/pvrtextool/h/PVRTexTool.h'
p1113
(lp1114
I1
ag1110
asS'c:/marmalade/7.5/extensions/pvrtextool/pvrtextool.mkf'
p1115
(lp1116
I1
a(dp1117
asssS'(s3e-default)'
p1118
(dp1119
S'c:/marmalade/7.5/s3e/s3e-default.mkf'
p1120
(lp1121
I1
a(dp1122
assS'd:/School/cs115/AmazingMaze/AmazingMaze.cpp'
p1123
(lp1124
I1
ag1081
asS"'Marmalade Studio'"
p1125
(dp1126
S'iw2dscenegraph'
p1127
(dp1128
S'c:/marmalade/7.5/modules/iw2dscenegraph/source/Iw2DSceneGraph.cpp'
p1129
(lp1130
I1
a(dp1131
asS'c:/marmalade/7.5/modules/iw2dscenegraph/docs/iw2dscenegraph.defines.txt'
p1132
(lp1133
I1
ag1131
asS'c:/marmalade/7.5/modules/iw2dscenegraph/h/Iw2DSceneGraph.h'
p1134
(lp1135
I1
ag1131
asS'c:/marmalade/7.5/modules/iw2dscenegraph/iw2dscenegraph.mkf'
p1136
(lp1137
I1
a(dp1138
assS'iwgl'
p1139
(dp1140
S'c:/marmalade/7.5/modules/iwgl/iwgl.mkf'
p1141
(lp1142
I1
a(dp1143
asS'c:/marmalade/7.5/modules/iwgl/h/IwGL.h'
p1144
(lp1145
I1
a(dp1146
asS'c:/marmalade/7.5/modules/iwgl/docs/iwgl.config.txt'
p1147
(lp1148
I1
ag1146
asS'c:/marmalade/7.5/modules/iwgl/h/IwGLExt.h'
p1149
(lp1150
I1
ag1146
assS'iw2d'
p1151
(dp1152
S'c:/marmalade/7.5/modules/iw2d/iw2d.mkf'
p1153
(lp1154
I1
a(dp1155
asS'c:/marmalade/7.5/modules/iw2d/docs/iw2d.config.txt'
p1156
(lp1157
I1
a(dp1158
asS'c:/marmalade/7.5/modules/iw2d/h/Iw2D.h'
p1159
(lp1160
I1
ag1158
asS'c:/marmalade/7.5/modules/iw2d/docs/iw2d_public.defines.txt'
p1161
(lp1162
I1
ag1158
assS'iwgxfont'
p1163
(dp1164
S'c:/marmalade/7.5/modules/iwgxfont/h/IwGxFontGlyph.h'
p1165
(lp1166
I1
a(dp1167
asS'c:/marmalade/7.5/modules/iwgxfont/h/IwGxFontTypes.h'
p1168
(lp1169
I1
ag1167
asS'c:/marmalade/7.5/modules/iwgxfont/docs/iwgxfont.config.txt'
p1170
(lp1171
I1
ag1167
asS'c:/marmalade/7.5/modules/iwgxfont/h/IwGxFontState.h'
p1172
(lp1173
I1
ag1167
asS'c:/marmalade/7.5/modules/iwgxfont/h/IwGxFontContainer.h'
p1174
(lp1175
I1
ag1167
asS'c:/marmalade/7.5/modules/iwgxfont/iwgxfont.mkf'
p1176
(lp1177
I1
a(dp1178
asS'c:/marmalade/7.5/modules/iwgxfont/h/IwGxFontPreparedData.h'
p1179
(lp1180
I1
ag1167
asS'c:/marmalade/7.5/modules/iwgxfont/h/IwGxFont.h'
p1181
(lp1182
I1
ag1167
asS'c:/marmalade/7.5/modules/iwgxfont/docs/iwgxfont_public.defines.txt'
p1183
(lp1184
I1
ag1167
assS'iwgeom'
p1185
(dp1186
S'c:/marmalade/7.5/modules/iwgeom/h/IwGeomSVec2.h'
p1187
(lp1188
I1
a(dp1189
asS'c:/marmalade/7.5/modules/iwgeom/h/IwGeomSphere.h'
p1190
(lp1191
I1
ag1189
asS'c:/marmalade/7.5/modules/iwgeom/h/IwGeomSVec3.h'
p1192
(lp1193
I1
ag1189
asS'c:/marmalade/7.5/modules/iwgeom/iwgeom.mkf'
p1194
(lp1195
I1
a(dp1196
asS'c:/marmalade/7.5/modules/iwgeom/h/IwGeomSqrt.h'
p1197
(lp1198
I1
ag1189
asS'c:/marmalade/7.5/modules/iwgeom/h/IwGeomFQuat.h'
p1199
(lp1200
I1
ag1189
asS'c:/marmalade/7.5/modules/iwgeom/h/IwGeomQuat.h.tpl'
p1201
(lp1202
I1
ag1189
asS'c:/marmalade/7.5/modules/iwgeom/h/IwGeomVec2.h'
p1203
(lp1204
I1
ag1189
asS'c:/marmalade/7.5/modules/iwgeom/h/IwGeomMat.h'
p1205
(lp1206
I1
ag1189
asS'c:/marmalade/7.5/modules/iwgeom/h/IwGeomVec3.h'
p1207
(lp1208
I1
ag1189
asS'c:/marmalade/7.5/modules/iwgeom/h/IwGeomLegacy.h'
p1209
(lp1210
I1
ag1189
asS'c:/marmalade/7.5/modules/iwgeom/h/IwGeom.h'
p1211
(lp1212
I1
ag1189
asS'c:/marmalade/7.5/modules/iwgeom/h/IwGeomSQuat.h'
p1213
(lp1214
I1
ag1189
asS'c:/marmalade/7.5/modules/iwgeom/h/IwGeomFBBox.h'
p1215
(lp1216
I1
ag1189
asS'c:/marmalade/7.5/modules/iwgeom/h/IwGeomFMat.h'
p1217
(lp1218
I1
ag1189
asS'c:/marmalade/7.5/modules/iwgeom/h/IwGeomPlane.h'
p1219
(lp1220
I1
ag1189
asS'c:/marmalade/7.5/modules/iwgeom/h/IwGeomMat2D.h'
p1221
(lp1222
I1
ag1189
asS'c:/marmalade/7.5/modules/iwgeom/h/IwGeomFVec2.h'
p1223
(lp1224
I1
ag1189
asS'c:/marmalade/7.5/modules/iwgeom/h/IwGeomSVec4.h'
p1225
(lp1226
I1
ag1189
asS'c:/marmalade/7.5/modules/iwgeom/h/IwGeomVec4.h'
p1227
(lp1228
I1
ag1189
asS'c:/marmalade/7.5/modules/iwgeom/h/IwGeomCore.h'
p1229
(lp1230
I1
ag1189
asS'c:/marmalade/7.5/modules/iwgeom/h/IwGeomVec.h.tpl'
p1231
(lp1232
I1
ag1189
asS'c:/marmalade/7.5/modules/iwgeom/h/IwGeomVec.h'
p1233
(lp1234
I1
ag1189
asS'c:/marmalade/7.5/modules/iwgeom/h/IwGeomIntersect.h'
p1235
(lp1236
I1
ag1189
asS'c:/marmalade/7.5/modules/iwgeom/h/IwGeomFVec4.h'
p1237
(lp1238
I1
ag1189
asS'c:/marmalade/7.5/modules/iwgeom/h/IwGeomMat.h.tpl'
p1239
(lp1240
I1
ag1189
asS'c:/marmalade/7.5/modules/iwgeom/h/IwGeomMat2D.h.tpl'
p1241
(lp1242
I1
ag1189
asS'c:/marmalade/7.5/modules/iwgeom/h/IwGeomFMat2D.h'
p1243
(lp1244
I1
ag1189
asS'c:/marmalade/7.5/modules/iwgeom/h/IwGeomMenu.h'
p1245
(lp1246
I1
ag1189
asS'c:/marmalade/7.5/modules/iwgeom/h/IwGeomBBox.h'
p1247
(lp1248
I1
ag1189
asS'c:/marmalade/7.5/modules/iwgeom/h/IwGeomFSphere.h'
p1249
(lp1250
I1
ag1189
asS'c:/marmalade/7.5/modules/iwgeom/h/IwGeomFVec3.h'
p1251
(lp1252
I1
ag1189
asS'c:/marmalade/7.5/modules/iwgeom/h/IwGeomFPlane.h'
p1253
(lp1254
I1
ag1189
asS'c:/marmalade/7.5/modules/iwgeom/docs/iwgeom.config.txt'
p1255
(lp1256
I1
ag1189
asS'c:/marmalade/7.5/modules/iwgeom/h/IwGeomQuat.h'
p1257
(lp1258
I1
ag1189
asS'c:/marmalade/7.5/modules/iwgeom/h/IwGeomFIntersect.h'
p1259
(lp1260
I1
ag1189
assS'iwresmanager'
p1261
(dp1262
S'c:/marmalade/7.5/modules/iwresmanager/h/IwResHandlerITX.h'
p1263
(lp1264
I1
a(dp1265
asS'c:/marmalade/7.5/modules/iwresmanager/h/IwResSerialise.h'
p1266
(lp1267
I1
ag1265
asS'c:/marmalade/7.5/modules/iwresmanager/h/IwResManagerClass.h'
p1268
(lp1269
I1
ag1265
asS'c:/marmalade/7.5/modules/iwresmanager/h/IwResHandlerGROUP.h'
p1270
(lp1271
I1
ag1265
asS'c:/marmalade/7.5/modules/iwresmanager/h/IwResManager.h'
p1272
(lp1273
I1
ag1265
asS'c:/marmalade/7.5/modules/iwresmanager/iwresmanager.mkf'
p1274
(lp1275
I1
a(dp1276
asS'c:/marmalade/7.5/modules/iwresmanager/docs/iwresmanager.config.txt'
p1277
(lp1278
I1
ag1265
asS'c:/marmalade/7.5/modules/iwresmanager/h/IwResGroup.h'
p1279
(lp1280
I1
ag1265
asS'c:/marmalade/7.5/modules/iwresmanager/h/IwResHandler.h'
p1281
(lp1282
I1
ag1265
asS'c:/marmalade/7.5/modules/iwresmanager/h/IwResHandlerImage.h'
p1283
(lp1284
I1
ag1265
assS'iwgx'
p1285
(dp1286
S'c:/marmalade/7.5/modules/iwgx/h/IwDebugPrim.h'
p1287
(lp1288
I1
a(dp1289
asS'c:/marmalade/7.5/modules/iwgx/h/IwGxTransformSW.h'
p1290
(lp1291
I1
ag1289
asS'c:/marmalade/7.5/modules/iwgx/h/IwTexture.h'
p1292
(lp1293
I1
ag1289
asS'c:/marmalade/7.5/modules/iwgx/h/IwGxFuncTable.h'
p1294
(lp1295
I1
ag1289
asS'c:/marmalade/7.5/modules/iwgx/h/IwResHandlerMTL.h'
p1296
(lp1297
I1
ag1289
asS'c:/marmalade/7.5/modules/iwgx/h/IwGxPrint.h'
p1298
(lp1299
I1
ag1289
asS'c:/marmalade/7.5/modules/iwgx/h/IwGxStream.h'
p1300
(lp1301
I1
ag1289
asS'c:/marmalade/7.5/modules/iwgx/h/IwMatAnim.h'
p1302
(lp1303
I1
ag1289
asS'c:/marmalade/7.5/modules/iwgx/h/IwClip.h'
p1304
(lp1305
I1
ag1289
asS'c:/marmalade/7.5/modules/iwgx/h/IwGxSurface.h'
p1306
(lp1307
I1
ag1289
asS'c:/marmalade/7.5/modules/iwgx/h/IwGxError.h'
p1308
(lp1309
I1
ag1289
asS'c:/marmalade/7.5/modules/iwgx/h/IwGx.h'
p1310
(lp1311
I1
ag1289
asS'c:/marmalade/7.5/modules/iwgx/docs/iwgx_public.defines.txt'
p1312
(lp1313
I1
ag1289
asS'c:/marmalade/7.5/modules/iwgx/h/IwGxDebug.h'
p1314
(lp1315
I1
ag1289
asS'c:/marmalade/7.5/modules/iwgx/h/IwGxShaderTechnique.h'
p1316
(lp1317
I1
ag1289
asS'c:/marmalade/7.5/modules/iwgx/h/IwMaterial.h'
p1318
(lp1319
I1
ag1289
asS'c:/marmalade/7.5/modules/iwgx/h/IwGxMetrics.h'
p1320
(lp1321
I1
ag1289
asS'c:/marmalade/7.5/modules/iwgx/h/IwClip.inl'
p1322
(lp1323
I1
ag1289
asS'c:/marmalade/7.5/modules/iwgx/h/IwFColour.h'
p1324
(lp1325
I1
ag1289
asS'c:/marmalade/7.5/modules/iwgx/h/IwGxTypes.h'
p1326
(lp1327
I1
ag1289
asS'c:/marmalade/7.5/modules/iwgx/iwgx.mkf'
p1328
(lp1329
I1
a(dp1330
asS'c:/marmalade/7.5/modules/iwgx/docs/iwgx.config.txt'
p1331
(lp1332
I1
ag1289
asS'c:/marmalade/7.5/modules/iwgx/h/IwColour.h'
p1333
(lp1334
I1
ag1289
asS'c:/marmalade/7.5/modules/iwgx/h/IwGxState.h'
p1335
(lp1336
I1
ag1289
asS'c:/marmalade/7.5/modules/iwgx/h/IwTPage.h'
p1337
(lp1338
I1
ag1289
assS'iw2dscenegraphcore'
p1339
(dp1340
S'c:/marmalade/7.5/modules/iw2dscenegraphcore/iw2dscenegraphcore.mkf'
p1341
(lp1342
I1
a(dp1343
asS'c:/marmalade/7.5/modules/iw2dscenegraphcore/h/Iw2DSceneGraphCore.h'
p1344
(lp1345
I1
a(dp1346
asS'c:/marmalade/7.5/modules/iw2dscenegraphcore/source/Iw2DSceneGraphCore.cpp'
p1347
(lp1348
I1
ag1346
assS'iwutil'
p1349
(dp1350
S'c:/marmalade/7.5/modules/iwutil/h/IwSingleton.h'
p1351
(lp1352
I1
a(dp1353
asS'c:/marmalade/7.5/modules/iwutil/h/IwMath.h'
p1354
(lp1355
I1
ag1353
asS'c:/marmalade/7.5/modules/iwutil/h/IwBuffer.h'
p1356
(lp1357
I1
ag1353
asS'c:/marmalade/7.5/modules/iwutil/h/IwCore.h'
p1358
(lp1359
I1
ag1353
asS'c:/marmalade/7.5/modules/iwutil/h/IwDivide.h'
p1360
(lp1361
I1
ag1353
asS'c:/marmalade/7.5/modules/iwutil/h/IwMemory.h'
p1362
(lp1363
I1
ag1353
asS'c:/marmalade/7.5/modules/iwutil/h/IwImageHelper.h'
p1364
(lp1365
I1
ag1353
asS'c:/marmalade/7.5/modules/iwutil/h/IwManagedList.h'
p1366
(lp1367
I1
ag1353
asS'c:/marmalade/7.5/modules/iwutil/h/IwProfileMenu.h'
p1368
(lp1369
I1
ag1353
asS'c:/marmalade/7.5/modules/iwutil/h/IwClassFactory.h'
p1370
(lp1371
I1
ag1353
asS'c:/marmalade/7.5/modules/iwutil/h/IwDivTable.h'
p1372
(lp1373
I1
ag1353
asS'c:/marmalade/7.5/modules/iwutil/h/IwManaged.h'
p1374
(lp1375
I1
ag1353
asS'c:/marmalade/7.5/modules/iwutil/h/IwTextParseable.h'
p1376
(lp1377
I1
ag1353
asS'c:/marmalade/7.5/modules/iwutil/h/IwChar.h'
p1378
(lp1379
I1
ag1353
asS'c:/marmalade/7.5/modules/iwutil/h/IwRandom.h'
p1380
(lp1381
I1
ag1353
asS'c:/marmalade/7.5/modules/iwutil/h/IwDebug.h'
p1382
(lp1383
I1
ag1353
asS'c:/marmalade/7.5/modules/iwutil/h/IwUTF8.h'
p1384
(lp1385
I1
ag1353
asS'c:/marmalade/7.5/modules/iwutil/docs/iwutil.config.txt'
p1386
(lp1387
I1
ag1353
asS'c:/marmalade/7.5/modules/iwutil/h/IwAllocator.h'
p1388
(lp1389
I1
ag1353
asS'c:/marmalade/7.5/modules/iwutil/h/IwMemBucketHelpers.h'
p1390
(lp1391
I1
ag1353
asS'c:/marmalade/7.5/modules/iwutil/h/IwTextParserITX.h'
p1392
(lp1393
I1
ag1353
asS'c:/marmalade/7.5/modules/iwutil/h/IwKeymap.h'
p1394
(lp1395
I1
ag1353
asS'c:/marmalade/7.5/modules/iwutil/h/IwImage.h'
p1396
(lp1397
I1
ag1353
asS'c:/marmalade/7.5/modules/iwutil/h/IwOptimiseARM.h'
p1398
(lp1399
I1
ag1353
asS'c:/marmalade/7.5/modules/iwutil/h/IwMemBucket.h'
p1400
(lp1401
I1
ag1353
asS'c:/marmalade/7.5/modules/iwutil/h/IwOptimiseSize.h'
p1402
(lp1403
I1
ag1353
asS'c:/marmalade/7.5/modules/iwutil/h/IwRuntime.h'
p1404
(lp1405
I1
ag1353
asS'c:/marmalade/7.5/modules/iwutil/h/IwMemManagerDL.h'
p1406
(lp1407
I1
ag1353
asS'c:/marmalade/7.5/modules/iwutil/h/IwPath.h'
p1408
(lp1409
I1
ag1353
asS'c:/marmalade/7.5/modules/iwutil/h/IwOptimiseSpeed.h'
p1410
(lp1411
I1
ag1353
asS'c:/marmalade/7.5/modules/iwutil/h/IwList.h'
p1412
(lp1413
I1
ag1353
asS'c:/marmalade/7.5/modules/iwutil/h/IwAutoFile.h'
p1414
(lp1415
I1
ag1353
asS'c:/marmalade/7.5/modules/iwutil/h/IwVariableBitField.h'
p1416
(lp1417
I1
ag1353
asS'c:/marmalade/7.5/modules/iwutil/h/IwHashString.h'
p1418
(lp1419
I1
ag1353
asS'c:/marmalade/7.5/modules/iwutil/h/IwOptimiseThumb.h'
p1420
(lp1421
I1
ag1353
asS'c:/marmalade/7.5/modules/iwutil/iwutil.mkf'
p1422
(lp1423
I1
a(dp1424
asS'c:/marmalade/7.5/modules/iwutil/h/IwUtil.h'
p1425
(lp1426
I1
ag1353
asS'c:/marmalade/7.5/modules/iwutil/h/IwString.h'
p1427
(lp1428
I1
ag1353
asS'c:/marmalade/7.5/modules/iwutil/h/IwFile.h'
p1429
(lp1430
I1
ag1353
asS'c:/marmalade/7.5/modules/iwutil/h/IwUncopyable.h'
p1431
(lp1432
I1
ag1353
asS'c:/marmalade/7.5/modules/iwutil/h/IwTextParser.h'
p1433
(lp1434
I1
ag1353
asS'c:/marmalade/7.5/modules/iwutil/h/IwCopyingPtr.h'
p1435
(lp1436
I1
ag1353
asS'c:/marmalade/7.5/modules/iwutil/h/IwEvent.h'
p1437
(lp1438
I1
ag1353
asS'c:/marmalade/7.5/modules/iwutil/h/IwFibre.h'
p1439
(lp1440
I1
ag1353
asS'c:/marmalade/7.5/modules/iwutil/h/IwArray.h'
p1441
(lp1442
I1
ag1353
asS'c:/marmalade/7.5/modules/iwutil/h/IwMenu.h'
p1443
(lp1444
I1
ag1353
asS'c:/marmalade/7.5/modules/iwutil/h/IwTypes.h'
p1445
(lp1446
I1
ag1353
asS'c:/marmalade/7.5/modules/iwutil/h/IwUtilInitTerm.h'
p1447
(lp1448
I1
ag1353
asS'c:/marmalade/7.5/modules/iwutil/h/IwResource.h'
p1449
(lp1450
I1
ag1353
asS'c:/marmalade/7.5/modules/iwutil/h/IwSerialise.h'
p1451
(lp1452
I1
ag1353
asssS'd:/School/cs115/AmazingMaze/PlayerMovement.cpp'
p1453
(lp1454
I1
ag1081
asS'(zlib)'
p1455
(dp1456
g1069
(dp1457
S'c:/marmalade/7.5/modules/third_party/zlib/h/zconf.h'
p1458
(lp1459
I1
a(dp1460
asS'c:/marmalade/7.5/modules/third_party/zlib/h/zlib.h'
p1461
(lp1462
I1
ag1460
assS'c:/marmalade/7.5/modules/third_party/zlib/zlib.mkf'
p1463
(lp1464
I1
a(dp1465
assS'(iwtween)'
p1466
(dp1467
S'c:/marmalade/7.5/modules/iwtween/h/IwTween.h'
p1468
(lp1469
I1
a(dp1470
asS'c:/marmalade/7.5/modules/iwtween/source/IwTween.cpp'
p1471
(lp1472
I1
ag1470
asS'c:/marmalade/7.5/modules/iwtween/iwtween.mkf'
p1473
(lp1474
I1
a(dp1475
assS'd:/School/cs115/AmazingMaze/menu.h'
p1476
(lp1477
I1
ag1081
asS'(libjpeg)'
p1478
(dp1479
S'c:/marmalade/7.5/modules/third_party/libjpeg/libjpeg.mkf'
p1480
(lp1481
I1
a(dp1482
asg1069
(dp1483
S'c:/marmalade/7.5/modules/third_party/libjpeg/h/jerror.h'
p1484
(lp1485
I1
a(dp1486
asS'c:/marmalade/7.5/modules/third_party/libjpeg/h/jdhuff.h'
p1487
(lp1488
I1
ag1486
asS'c:/marmalade/7.5/modules/third_party/libjpeg/h/cderror.h'
p1489
(lp1490
I1
ag1486
asS'c:/marmalade/7.5/modules/third_party/libjpeg/h/transupp.h'
p1491
(lp1492
I1
ag1486
asS'c:/marmalade/7.5/modules/third_party/libjpeg/h/jinclude.h'
p1493
(lp1494
I1
ag1486
asS'c:/marmalade/7.5/modules/third_party/libjpeg/h/jmorecfg.h'
p1495
(lp1496
I1
ag1486
asS'c:/marmalade/7.5/modules/third_party/libjpeg/h/jdct.h'
p1497
(lp1498
I1
ag1486
asS'c:/marmalade/7.5/modules/third_party/libjpeg/h/jmemsys.h'
p1499
(lp1500
I1
ag1486
asS'c:/marmalade/7.5/modules/third_party/libjpeg/h/jpegint.h'
p1501
(lp1502
I1
ag1486
asS'c:/marmalade/7.5/modules/third_party/libjpeg/h/jchuff.h'
p1503
(lp1504
I1
ag1486
asS'c:/marmalade/7.5/modules/third_party/libjpeg/h/cdjpeg.h'
p1505
(lp1506
I1
ag1486
asS'c:/marmalade/7.5/modules/third_party/libjpeg/h/jversion.h'
p1507
(lp1508
I1
ag1486
asS'c:/marmalade/7.5/modules/third_party/libjpeg/h/jconfig.h'
p1509
(lp1510
I1
ag1486
asS'c:/marmalade/7.5/modules/third_party/libjpeg/h/jpeglib.h'
p1511
(lp1512
I1
ag1486
assssS'files'
p1513
(dp1514
S'IwGxFontPreparedData.h'
p1515
g324
(cmkb_main
File
p1516
g326
Ntp1517
Rp1518
(dp1519
S'flags'
p1520
g1167
sS'group'
p1521
(lp1522
S"'Marmalade Studio'"
p1523
ag1163
asg350
g1179
sbsS'iterator'
p1524
g324
(g1516
g326
Ntp1525
Rp1526
(dp1527
g1520
(dp1528
sg1521
(lp1529
S"'Marmalade System (S3E)'"
p1530
aS'stdc headers'
p1531
aS'c++'
p1532
asg350
S'c:/marmalade/7.5/s3e/h/std/c++/iterator'
p1533
sbsS'PlayerMovement.h'
p1534
g324
(g1516
g326
Ntp1535
Rp1536
(dp1537
g1520
g1081
sg1521
(lp1538
sg350
g1096
sbsS'IwGL.h'
p1539
g324
(g1516
g326
Ntp1540
Rp1541
(dp1542
g1520
g1146
sg1521
(lp1543
S"'Marmalade Studio'"
p1544
ag1139
asg350
g1144
sbsS's3e.h'
p1545
g324
(g1516
g326
Ntp1546
Rp1547
(dp1548
g1520
g1528
sg1521
(lp1549
g1530
asg350
S'c:/marmalade/7.5/s3e/h/s3e.h'
p1550
sbsS'errno.h'
p1551
g324
(g1516
g326
Ntp1552
Rp1553
(dp1554
g1520
g1528
sg1521
(lp1555
g1530
aS'stdc headers'
p1556
asg350
S'c:/marmalade/7.5/s3e/h/std/errno.h'
p1557
sbsS'IwSingleton.h'
p1558
g324
(g1516
g326
Ntp1559
Rp1560
(dp1561
g1520
g1353
sg1521
(lp1562
S"'Marmalade Studio'"
p1563
ag1349
asg350
g1351
sbsS'dlfcn.h'
p1564
g324
(g1516
g326
Ntp1565
Rp1566
(dp1567
g1520
g1528
sg1521
g1555
sg350
S'c:/marmalade/7.5/s3e/h/std/dlfcn.h'
p1568
sbsS'stdio_streambuf'
p1569
g324
(g1516
g326
Ntp1570
Rp1571
(dp1572
g1520
g1528
sg1521
g1529
sg350
S'c:/marmalade/7.5/s3e/h/std/c++/stdio_streambuf'
p1573
sbsS'sched.h'
p1574
g324
(g1516
g326
Ntp1575
Rp1576
(dp1577
g1520
g1528
sg1521
g1555
sg350
S'c:/marmalade/7.5/s3e/h/std/sched.h'
p1578
sbsS'IwGeomFMat2D.h'
p1579
g324
(g1516
g326
Ntp1580
Rp1581
(dp1582
g1520
g1189
sg1521
(lp1583
S"'Marmalade Studio'"
p1584
ag1185
asg350
g1243
sbsS'cassert'
p1585
g324
(g1516
g326
Ntp1586
Rp1587
(dp1588
g1520
g1528
sg1521
g1529
sg350
S'c:/marmalade/7.5/s3e/h/std/c++/cassert'
p1589
sbsS'grp.h'
p1590
g324
(g1516
g326
Ntp1591
Rp1592
(dp1593
g1520
g1528
sg1521
g1555
sg350
S'c:/marmalade/7.5/s3e/h/std/grp.h'
p1594
sbsS'list'
p1595
g324
(g1516
g326
Ntp1596
Rp1597
(dp1598
g1520
g1528
sg1521
g1529
sg350
S'c:/marmalade/7.5/s3e/h/std/c++/list'
p1599
sbsS'IwGeomMat.h.tpl'
p1600
g324
(g1516
g326
Ntp1601
Rp1602
(dp1603
g1520
g1189
sg1521
g1583
sg350
g1239
sbsS'istream'
p1604
g324
(g1516
g326
Ntp1605
Rp1606
(dp1607
g1520
g1528
sg1521
g1529
sg350
S'c:/marmalade/7.5/s3e/h/std/c++/istream'
p1608
sbsS'jpeglib.h'
p1609
g324
(g1516
g326
Ntp1610
Rp1611
(dp1612
g1520
g1486
sg1521
(lp1613
g1478
ag1069
asg350
g1511
sbsS'iw2d_public.defines.txt'
p1614
g324
(g1516
g326
Ntp1615
Rp1616
(dp1617
g1520
g1158
sg1521
(lp1618
S"'Marmalade Studio'"
p1619
ag1151
asg350
g1161
sbsS'iostream.h'
p1620
g324
(g1516
g326
Ntp1621
Rp1622
(dp1623
g1520
g1528
sg1521
g1529
sg350
S'c:/marmalade/7.5/s3e/h/std/c++/iostream.h'
p1624
sbsS'string'
p1625
g324
(g1516
g326
Ntp1626
Rp1627
(dp1628
g1520
g1528
sg1521
g1529
sg350
S'c:/marmalade/7.5/s3e/h/std/c++/string'
p1629
sbsS'IwMemory.h'
p1630
g324
(g1516
g326
Ntp1631
Rp1632
(dp1633
g1520
g1353
sg1521
g1562
sg350
g1362
sbsS'IwGeomPlane.h'
p1634
g324
(g1516
g326
Ntp1635
Rp1636
(dp1637
g1520
g1189
sg1521
g1583
sg350
g1219
sbsS'iw2d.config.txt'
p1638
g324
(g1516
g326
Ntp1639
Rp1640
(dp1641
g1520
g1158
sg1521
g1618
sg350
g1156
sbsS'iomanip'
p1642
g324
(g1516
g326
Ntp1643
Rp1644
(dp1645
g1520
g1528
sg1521
g1529
sg350
S'c:/marmalade/7.5/s3e/h/std/c++/iomanip'
p1646
sbsS'iwgeom.mkf'
p1647
g324
(g1516
g326
Ntp1648
Rp1649
(dp1650
g1520
g1196
sg1521
g1583
sg350
g1194
sbsS'IwGxError.h'
p1651
g324
(g1516
g326
Ntp1652
Rp1653
(dp1654
g1520
g1289
sg1521
(lp1655
S"'Marmalade Studio'"
p1656
ag1285
asg350
g1308
sbsS'IwGeom.h'
p1657
g324
(g1516
g326
Ntp1658
Rp1659
(dp1660
g1520
g1189
sg1521
g1583
sg350
g1211
sbsS'IwGeomVec4.h'
p1661
g324
(g1516
g326
Ntp1662
Rp1663
(dp1664
g1520
g1189
sg1521
g1583
sg350
g1227
sbsS'dir.h'
p1665
g324
(g1516
g326
Ntp1666
Rp1667
(dp1668
g1520
g1528
sg1521
(lp1669
g1530
aS'stdc headers'
p1670
aS'sys'
p1671
asg350
S'c:/marmalade/7.5/s3e/h/std/sys/dir.h'
p1672
sbsS'locale.h'
p1673
g324
(g1516
g326
Ntp1674
Rp1675
(dp1676
g1520
g1528
sg1521
g1555
sg350
S'c:/marmalade/7.5/s3e/h/std/locale.h'
p1677
sbsS'vector'
p1678
g324
(g1516
g326
Ntp1679
Rp1680
(dp1681
g1520
g1528
sg1521
g1529
sg350
S'c:/marmalade/7.5/s3e/h/std/c++/vector'
p1682
sbsS'IwManaged.h'
p1683
g324
(g1516
g326
Ntp1684
Rp1685
(dp1686
g1520
g1353
sg1521
g1562
sg350
g1374
sbsS's3eCompass.h'
p1687
g324
(g1516
g326
Ntp1688
Rp1689
(dp1690
g1520
g1528
sg1521
g1549
sg350
S'c:/marmalade/7.5/s3e/h/s3eCompass.h'
p1691
sbsS'cderror.h'
p1692
g324
(g1516
g326
Ntp1693
Rp1694
(dp1695
g1520
g1486
sg1521
g1613
sg350
g1489
sbsS'climits'
p1696
g324
(g1516
g326
Ntp1697
Rp1698
(dp1699
g1520
g1528
sg1521
g1529
sg350
S'c:/marmalade/7.5/s3e/h/std/c++/climits'
p1700
sbsS's3eVibra.h'
p1701
g324
(g1516
g326
Ntp1702
Rp1703
(dp1704
g1520
g1528
sg1521
g1549
sg350
S'c:/marmalade/7.5/s3e/h/s3eVibra.h'
p1705
sbsS'jversion.h'
p1706
g324
(g1516
g326
Ntp1707
Rp1708
(dp1709
g1520
g1486
sg1521
g1613
sg350
g1507
sbsS'fnmatch.h'
p1710
g324
(g1516
g326
Ntp1711
Rp1712
(dp1713
g1520
g1528
sg1521
g1555
sg350
S'c:/marmalade/7.5/s3e/h/std/fnmatch.h'
p1714
sbsS'IwGxState.h'
p1715
g324
(g1516
g326
Ntp1716
Rp1717
(dp1718
g1520
g1289
sg1521
g1655
sg350
g1335
sbsS's3eAudio.h'
p1719
g324
(g1516
g326
Ntp1720
Rp1721
(dp1722
g1520
g1528
sg1521
g1549
sg350
S'c:/marmalade/7.5/s3e/h/s3eAudio.h'
p1723
sbsS'PlayerMovement.cpp'
p1724
g324
(g1516
g326
Ntp1725
Rp1726
(dp1727
g1520
g1081
sg1521
g1538
sg350
g1453
sbsS's3eSurface.h'
p1728
g324
(g1516
g326
Ntp1729
Rp1730
(dp1731
g1520
g1528
sg1521
g1549
sg350
S'c:/marmalade/7.5/s3e/h/s3eSurface.h'
p1732
sbsS'new'
p1733
g324
(g1516
g326
Ntp1734
Rp1735
(dp1736
g1520
g1528
sg1521
g1529
sg350
S'c:/marmalade/7.5/s3e/h/std/c++/new'
p1737
sbsS's3eWindow.h'
p1738
g324
(g1516
g326
Ntp1739
Rp1740
(dp1741
g1520
g1528
sg1521
(lp1742
g1530
aS'Extensions'
p1743
asg350
S'c:/marmalade/7.5/s3e/h/ext/s3eWindow.h'
p1744
sbsS'IwBuffer.h'
p1745
g324
(g1516
g326
Ntp1746
Rp1747
(dp1748
g1520
g1353
sg1521
g1562
sg350
g1356
sbsS'IwGeomQuat.h.tpl'
p1749
g324
(g1516
g326
Ntp1750
Rp1751
(dp1752
g1520
g1189
sg1521
g1583
sg350
g1201
sbsS's3eOSExec.h'
p1753
g324
(g1516
g326
Ntp1754
Rp1755
(dp1756
g1520
g1528
sg1521
g1742
sg350
S'c:/marmalade/7.5/s3e/h/ext/s3eOSExec.h'
p1757
sbsS'IwGxTransformSW.h'
p1758
g324
(g1516
g326
Ntp1759
Rp1760
(dp1761
g1520
g1289
sg1521
g1655
sg350
g1290
sbsS'IwGxMetrics.h'
p1762
g324
(g1516
g326
Ntp1763
Rp1764
(dp1765
g1520
g1289
sg1521
g1655
sg350
g1320
sbsS'iwgxfont.config.txt'
p1766
g324
(g1516
g326
Ntp1767
Rp1768
(dp1769
g1520
g1167
sg1521
g1522
sg350
g1170
sbsS'gl2platform.h'
p1770
g324
(g1516
g326
Ntp1771
Rp1772
(dp1773
g1520
g1528
sg1521
(lp1774
g1530
aS'GL'
p1775
aS'GLES 2.0'
p1776
asg350
S'c:/marmalade/7.5/s3e/h/GLES2/gl2platform.h'
p1777
sbsS'iw2dscenegraph.defines.txt'
p1778
g324
(g1516
g326
Ntp1779
Rp1780
(dp1781
g1520
g1131
sg1521
(lp1782
S"'Marmalade Studio'"
p1783
ag1127
asg350
g1132
sbsS'queue'
p1784
g324
(g1516
g326
Ntp1785
Rp1786
(dp1787
g1520
g1528
sg1521
g1529
sg350
S'c:/marmalade/7.5/s3e/h/std/c++/queue'
p1788
sbsS'time_1.h'
p1789
g324
(g1516
g326
Ntp1790
Rp1791
(dp1792
g1520
g1528
sg1521
g1669
sg350
S'c:/marmalade/7.5/s3e/h/std/sys/time.h'
p1793
sbsS'Iw2D.h'
p1794
g324
(g1516
g326
Ntp1795
Rp1796
(dp1797
g1520
g1158
sg1521
g1618
sg350
g1159
sbsS'IwGeomVec2.h'
p1798
g324
(g1516
g326
Ntp1799
Rp1800
(dp1801
g1520
g1189
sg1521
g1583
sg350
g1203
sbsS's3eDevice.h'
p1802
g324
(g1516
g326
Ntp1803
Rp1804
(dp1805
g1520
g1528
sg1521
g1549
sg350
S'c:/marmalade/7.5/s3e/h/s3eDevice.h'
p1806
sbsS'malloc.h'
p1807
g324
(g1516
g326
Ntp1808
Rp1809
(dp1810
g1520
g1528
sg1521
g1555
sg350
S'c:/marmalade/7.5/s3e/h/std/malloc.h'
p1811
sbsS'stdarg.h'
p1812
g324
(g1516
g326
Ntp1813
Rp1814
(dp1815
g1520
g1528
sg1521
g1555
sg350
S'c:/marmalade/7.5/s3e/h/std/stdarg.h'
p1816
sbsS'IwGeomCore.h'
p1817
g324
(g1516
g326
Ntp1818
Rp1819
(dp1820
g1520
g1189
sg1521
g1583
sg350
g1229
sbsS'Iw2DSceneGraph.h'
p1821
g324
(g1516
g326
Ntp1822
Rp1823
(dp1824
g1520
g1131
sg1521
g1782
sg350
g1134
sbsS'AmazingMaze.cpp'
p1825
g324
(g1516
g326
Ntp1826
Rp1827
(dp1828
g1520
g1081
sg1521
g1538
sg350
g1123
sbsS'endian.h'
p1829
g324
(g1516
g326
Ntp1830
Rp1831
(dp1832
g1520
g1528
sg1521
g1555
sg350
S'c:/marmalade/7.5/s3e/h/std/endian.h'
p1833
sbsS'tiniconv.mkf'
p1834
g324
(g1516
g326
Ntp1835
Rp1836
(dp1837
g1520
g1086
sg1521
(lp1838
g1082
asg350
g1084
sbsS'gl3ext.h'
p1839
g324
(g1516
g326
Ntp1840
Rp1841
(dp1842
g1520
g1528
sg1521
(lp1843
g1530
aS'GL'
p1844
aS'GLES 3.0'
p1845
asg350
S'c:/marmalade/7.5/s3e/h/GLES3/gl3ext.h'
p1846
sbsS'glob.h'
p1847
g324
(g1516
g326
Ntp1848
Rp1849
(dp1850
g1520
g1528
sg1521
g1555
sg350
S'c:/marmalade/7.5/s3e/h/std/glob.h'
p1851
sbsS'MazeGenerator.h'
p1852
g324
(g1516
g326
Ntp1853
Rp1854
(dp1855
g1520
g1081
sg1521
g1538
sg350
g1092
sbsS's3eCamera.h'
p1856
g324
(g1516
g326
Ntp1857
Rp1858
(dp1859
g1520
g1528
sg1521
g1549
sg350
S'c:/marmalade/7.5/s3e/h/s3eCamera.h'
p1860
sbsS'jconfig.h'
p1861
g324
(g1516
g326
Ntp1862
Rp1863
(dp1864
g1520
g1486
sg1521
g1613
sg350
g1509
sbsS'memory'
p1865
g324
(g1516
g326
Ntp1866
Rp1867
(dp1868
g1520
g1528
sg1521
g1529
sg350
S'c:/marmalade/7.5/s3e/h/std/c++/memory'
p1869
sbsS'egl.h'
p1870
g324
(g1516
g326
Ntp1871
Rp1872
(dp1873
g1520
g1528
sg1521
(lp1874
g1530
aS'GL'
p1875
aS'EGL'
p1876
asg350
S'c:/marmalade/7.5/s3e/h/EGL/egl.h'
p1877
sbsS'IwClip.inl'
p1878
g324
(g1516
g326
Ntp1879
Rp1880
(dp1881
g1520
g1289
sg1521
g1655
sg350
g1322
sbsS'IwMemManagerDL.h'
p1882
g324
(g1516
g326
Ntp1883
Rp1884
(dp1885
g1520
g1353
sg1521
g1562
sg350
g1406
sbsS'deque'
p1886
g324
(g1516
g326
Ntp1887
Rp1888
(dp1889
g1520
g1528
sg1521
g1529
sg350
S'c:/marmalade/7.5/s3e/h/std/c++/deque'
p1890
sbsS'IwString.h'
p1891
g324
(g1516
g326
Ntp1892
Rp1893
(dp1894
g1520
g1353
sg1521
g1562
sg350
g1427
sbsS'cwchar'
p1895
g324
(g1516
g326
Ntp1896
Rp1897
(dp1898
g1520
g1528
sg1521
g1529
sg350
S'c:/marmalade/7.5/s3e/h/std/c++/cwchar'
p1899
sbsS'iwutil.mkf'
p1900
g324
(g1516
g326
Ntp1901
Rp1902
(dp1903
g1520
g1424
sg1521
g1562
sg350
g1422
sbsS'csignal'
p1904
g324
(g1516
g326
Ntp1905
Rp1906
(dp1907
g1520
g1528
sg1521
g1529
sg350
S'c:/marmalade/7.5/s3e/h/std/c++/csignal'
p1908
sbsS'float.h'
p1909
g324
(g1516
g326
Ntp1910
Rp1911
(dp1912
g1520
g1528
sg1521
g1555
sg350
S'c:/marmalade/7.5/s3e/h/std/float.h'
p1913
sbsS'pthread_alloc'
p1914
g324
(g1516
g326
Ntp1915
Rp1916
(dp1917
g1520
g1528
sg1521
g1529
sg350
S'c:/marmalade/7.5/s3e/h/std/c++/pthread_alloc'
p1918
sbsS'getopt.h'
p1919
g324
(g1516
g326
Ntp1920
Rp1921
(dp1922
g1520
g1528
sg1521
g1555
sg350
S'c:/marmalade/7.5/s3e/h/std/getopt.h'
p1923
sbsS'IwOptimiseARM.h'
p1924
g324
(g1516
g326
Ntp1925
Rp1926
(dp1927
g1520
g1353
sg1521
g1562
sg350
g1398
sbsS'times.h'
p1928
g324
(g1516
g326
Ntp1929
Rp1930
(dp1931
g1520
g1528
sg1521
g1669
sg350
S'c:/marmalade/7.5/s3e/h/std/sys/times.h'
p1932
sbsS'IwGeomFSphere.h'
p1933
g324
(g1516
g326
Ntp1934
Rp1935
(dp1936
g1520
g1189
sg1521
g1583
sg350
g1249
sbsS'IwTypes.h'
p1937
g324
(g1516
g326
Ntp1938
Rp1939
(dp1940
g1520
g1353
sg1521
g1562
sg350
g1445
sbsS'unistd.h'
p1941
g324
(g1516
g326
Ntp1942
Rp1943
(dp1944
g1520
g1528
sg1521
g1555
sg350
S'c:/marmalade/7.5/s3e/h/std/unistd.h'
p1945
sbsS's3eCompression.h'
p1946
g324
(g1516
g326
Ntp1947
Rp1948
(dp1949
g1520
g1528
sg1521
g1549
sg350
S'c:/marmalade/7.5/s3e/h/s3eCompression.h'
p1950
sbsS'langinfo.h'
p1951
g324
(g1516
g326
Ntp1952
Rp1953
(dp1954
g1520
g1528
sg1521
g1555
sg350
S'c:/marmalade/7.5/s3e/h/std/langinfo.h'
p1955
sbsS's3edebugHeap.h'
p1956
g324
(g1516
g326
Ntp1957
Rp1958
(dp1959
g1520
g1528
sg1521
g1742
sg350
S'c:/marmalade/7.5/s3e/h/ext/s3edebugHeap.h'
p1960
sbsS'AirplayVersion.h'
p1961
g324
(g1516
g326
Ntp1962
Rp1963
(dp1964
g1520
g1528
sg1521
g1549
sg350
S'c:/marmalade/7.5/s3e/h/AirplayVersion.h'
p1965
sbsS'gl2extimg.h'
p1966
g324
(g1516
g326
Ntp1967
Rp1968
(dp1969
g1520
g1528
sg1521
g1774
sg350
S'c:/marmalade/7.5/s3e/h/GLES2/gl2extimg.h'
p1970
sbsS'menu.h'
p1971
g324
(g1516
g326
Ntp1972
Rp1973
(dp1974
g1520
g1081
sg1521
g1538
sg350
g1476
sbsS'app.config.txt'
p1975
g324
(g1516
g326
Ntp1976
Rp1977
(dp1978
g1520
(dp1979
sg1521
g4
sg350
S'd:/School/cs115/AmazingMaze/data/app.config.txt'
p1980
sbsS'IwGeomSqrt.h'
p1981
g324
(g1516
g326
Ntp1982
Rp1983
(dp1984
g1520
g1189
sg1521
g1583
sg350
g1197
sbsS'tiniconv_int.h'
p1985
g324
(g1516
g326
Ntp1986
Rp1987
(dp1988
g1520
g1089
sg1521
g1838
sg350
g1087
sbsS'syslog.h'
p1989
g324
(g1516
g326
Ntp1990
Rp1991
(dp1992
g1520
g1528
sg1521
g1555
sg350
S'c:/marmalade/7.5/s3e/h/std/syslog.h'
p1993
sbsS'IwGxFontTypes.h'
p1994
g324
(g1516
g326
Ntp1995
Rp1996
(dp1997
g1520
g1167
sg1521
g1522
sg350
g1168
sbsS'IwGeomFIntersect.h'
p1998
g324
(g1516
g326
Ntp1999
Rp2000
(dp2001
g1520
g1189
sg1521
g1583
sg350
g1259
sbsS'hash_map'
p2002
g324
(g1516
g326
Ntp2003
Rp2004
(dp2005
g1520
g1528
sg1521
g1529
sg350
S'c:/marmalade/7.5/s3e/h/std/c++/hash_map'
p2006
sbsS's3e.mkf'
p2007
g324
(g1516
g326
Ntp2008
Rp2009
(dp2010
g1520
(dp2011
sg1521
g1549
sg350
S'c:/marmalade/7.5/s3e/s3e.mkf'
p2012
sbsS'IwGeomMat2D.h.tpl'
p2013
g324
(g1516
g326
Ntp2014
Rp2015
(dp2016
g1520
g1189
sg1521
g1583
sg350
g1241
sbsS's3eOSReadString.h'
p2017
g324
(g1516
g326
Ntp2018
Rp2019
(dp2020
g1520
g1528
sg1521
g1742
sg350
S'c:/marmalade/7.5/s3e/h/ext/s3eOSReadString.h'
p2021
sbsS'map'
p2022
g324
(g1516
g326
Ntp2023
Rp2024
(dp2025
g1520
g1528
sg1521
g1529
sg350
S'c:/marmalade/7.5/s3e/h/std/c++/map'
p2026
sbsS'iwtween.mkf'
p2027
g324
(g1516
g326
Ntp2028
Rp2029
(dp2030
g1520
g1475
sg1521
(lp2031
g1466
asg350
g1473
sbsS'IwOptimiseSpeed.h'
p2032
g324
(g1516
g326
Ntp2033
Rp2034
(dp2035
g1520
g1353
sg1521
g1562
sg350
g1410
sbsS'msl_string.h'
p2036
g324
(g1516
g326
Ntp2037
Rp2038
(dp2039
g1520
g1528
sg1521
g1529
sg350
S'c:/marmalade/7.5/s3e/h/std/c++/msl_string.h'
p2040
sbsS'select.h'
p2041
g324
(g1516
g326
Ntp2042
Rp2043
(dp2044
g1520
g1528
sg1521
g1669
sg350
S'c:/marmalade/7.5/s3e/h/std/sys/select.h'
p2045
sbsS'zlib.mkf'
p2046
g324
(g1516
g326
Ntp2047
Rp2048
(dp2049
g1520
g1465
sg1521
(lp2050
g1455
asg350
g1463
sbsS'signal.h'
p2051
g324
(g1516
g326
Ntp2052
Rp2053
(dp2054
g1520
g1528
sg1521
g1555
sg350
S'c:/marmalade/7.5/s3e/h/std/signal.h'
p2055
sbsS'sigcontext.h'
p2056
g324
(g1516
g326
Ntp2057
Rp2058
(dp2059
g1520
g1528
sg1521
g1555
sg350
S'c:/marmalade/7.5/s3e/h/std/sigcontext.h'
p2060
sbsS'libpng.mkf'
p2061
g324
(g1516
g326
Ntp2062
Rp2063
(dp2064
g1520
g1078
sg1521
(lp2065
g1067
asg350
g1076
sbsS's3eClipboard.h'
p2066
g324
(g1516
g326
Ntp2067
Rp2068
(dp2069
g1520
g1528
sg1521
g1549
sg350
S'c:/marmalade/7.5/s3e/h/s3eClipboard.h'
p2070
sbsS'IwGxFuncTable.h'
p2071
g324
(g1516
g326
Ntp2072
Rp2073
(dp2074
g1520
g1289
sg1521
g1655
sg350
g1294
sbsS'IwResHandlerGROUP.h'
p2075
g324
(g1516
g326
Ntp2076
Rp2077
(dp2078
g1520
g1265
sg1521
(lp2079
g1125
ag1261
asg350
g1270
sbsS's3eDebug.h'
p2080
g324
(g1516
g326
Ntp2081
Rp2082
(dp2083
g1520
g1528
sg1521
g1549
sg350
S'c:/marmalade/7.5/s3e/h/s3eDebug.h'
p2084
sbsS'socket.h'
p2085
g324
(g1516
g326
Ntp2086
Rp2087
(dp2088
g1520
g1528
sg1521
g1669
sg350
S'c:/marmalade/7.5/s3e/h/std/sys/socket.h'
p2089
sbsS'glext.h'
p2090
g324
(g1516
g326
Ntp2091
Rp2092
(dp2093
g1520
g1528
sg1521
(lp2094
g1530
aS'GL'
p2095
aS'GLES 1.x'
p2096
asg350
S'c:/marmalade/7.5/s3e/h/GLES/glext.h'
p2097
sbsS'typeinfo.h'
p2098
g324
(g1516
g326
Ntp2099
Rp2100
(dp2101
g1520
g1528
sg1521
g1529
sg350
S'c:/marmalade/7.5/s3e/h/std/c++/typeinfo.h'
p2102
sbsS'typeinfo'
p2103
g324
(g1516
g326
Ntp2104
Rp2105
(dp2106
g1520
g1528
sg1521
g1529
sg350
S'c:/marmalade/7.5/s3e/h/std/c++/typeinfo'
p2107
sbsS'fstream.h'
p2108
g324
(g1516
g326
Ntp2109
Rp2110
(dp2111
g1520
g1528
sg1521
g1529
sg350
S'c:/marmalade/7.5/s3e/h/std/c++/fstream.h'
p2112
sbsS's3ePointer.h'
p2113
g324
(g1516
g326
Ntp2114
Rp2115
(dp2116
g1520
g1528
sg1521
g1549
sg350
S'c:/marmalade/7.5/s3e/h/s3ePointer.h'
p2117
sbsS'iw2d.mkf'
p2118
g324
(g1516
g326
Ntp2119
Rp2120
(dp2121
g1520
g1155
sg1521
g1618
sg350
g1153
sbsS'PVRTexTool.h'
p2122
g324
(g1516
g326
Ntp2123
Rp2124
(dp2125
g1520
g1110
sg1521
(lp2126
g1102
ag1104
asg350
g1113
sbsS's3eGL.h'
p2127
g324
(g1516
g326
Ntp2128
Rp2129
(dp2130
g1520
g1528
sg1521
g1549
sg350
S'c:/marmalade/7.5/s3e/h/s3eGL.h'
p2131
sbsS'IwGeomFVec2.h'
p2132
g324
(g1516
g326
Ntp2133
Rp2134
(dp2135
g1520
g1189
sg1521
g1583
sg350
g1223
sbsS'IwGeomSVec4.h'
p2136
g324
(g1516
g326
Ntp2137
Rp2138
(dp2139
g1520
g1189
sg1521
g1583
sg350
g1225
sbsS'poll.h'
p2140
g324
(g1516
g326
Ntp2141
Rp2142
(dp2143
g1520
g1528
sg1521
g1555
sg350
S'c:/marmalade/7.5/s3e/h/std/poll.h'
p2144
sbsS'IwMatAnim.h'
p2145
g324
(g1516
g326
Ntp2146
Rp2147
(dp2148
g1520
g1289
sg1521
g1655
sg350
g1302
sbsS'PVRTexTool.defines.txt'
p2149
g324
(g1516
g326
Ntp2150
Rp2151
(dp2152
g1520
g1110
sg1521
(lp2153
g1102
ag1104
ag1106
asg350
g1108
sbsS'IwGx.h'
p2154
g324
(g1516
g326
Ntp2155
Rp2156
(dp2157
g1520
g1289
sg1521
g1655
sg350
g1310
sbsS'valarray'
p2158
g324
(g1516
g326
Ntp2159
Rp2160
(dp2161
g1520
g1528
sg1521
g1529
sg350
S'c:/marmalade/7.5/s3e/h/std/c++/valarray'
p2162
sbsS'iosfwd'
p2163
g324
(g1516
g326
Ntp2164
Rp2165
(dp2166
g1520
g1528
sg1521
g1529
sg350
S'c:/marmalade/7.5/s3e/h/std/c++/iosfwd'
p2167
sbsS'gl2.h'
p2168
g324
(g1516
g326
Ntp2169
Rp2170
(dp2171
g1520
g1528
sg1521
g1774
sg350
S'c:/marmalade/7.5/s3e/h/GLES2/gl2.h'
p2172
sbsS'jpegint.h'
p2173
g324
(g1516
g326
Ntp2174
Rp2175
(dp2176
g1520
g1486
sg1521
g1613
sg350
g1501
sbsS'stdiostream.h'
p2177
g324
(g1516
g326
Ntp2178
Rp2179
(dp2180
g1520
g1528
sg1521
g1529
sg350
S'c:/marmalade/7.5/s3e/h/std/c++/stdiostream.h'
p2181
sbsS'mem.h'
p2182
g324
(g1516
g326
Ntp2183
Rp2184
(dp2185
g1520
g1528
sg1521
g1529
sg350
S'c:/marmalade/7.5/s3e/h/std/c++/mem.h'
p2186
sbsS'jerror.h'
p2187
g324
(g1516
g326
Ntp2188
Rp2189
(dp2190
g1520
g1486
sg1521
g1613
sg350
g1484
sbsS'zconf.h'
p2191
g324
(g1516
g326
Ntp2192
Rp2193
(dp2194
g1520
g1460
sg1521
(lp2195
g1455
ag1069
asg350
g1458
sbsS's3e.config.txt'
p2196
g324
(g1516
g326
Ntp2197
Rp2198
(dp2199
g1520
g1528
sg1521
g1549
sg350
S'c:/marmalade/7.5/s3e/s3e.config.txt'
p2200
sbsS'numeric'
p2201
g324
(g1516
g326
Ntp2202
Rp2203
(dp2204
g1520
g1528
sg1521
g1529
sg350
S'c:/marmalade/7.5/s3e/h/std/c++/numeric'
p2205
sbsS'utime.h'
p2206
g324
(g1516
g326
Ntp2207
Rp2208
(dp2209
g1520
g1528
sg1521
g1555
sg350
S'c:/marmalade/7.5/s3e/h/std/utime.h'
p2210
sbsS'jdhuff.h'
p2211
g324
(g1516
g326
Ntp2212
Rp2213
(dp2214
g1520
g1486
sg1521
g1613
sg350
g1487
sbsS'IwGxStream.h'
p2215
g324
(g1516
g326
Ntp2216
Rp2217
(dp2218
g1520
g1289
sg1521
g1655
sg350
g1300
sbsS'IwImage.h'
p2219
g324
(g1516
g326
Ntp2220
Rp2221
(dp2222
g1520
g1353
sg1521
g1562
sg350
g1396
sbsS's3eImagePicker.h'
p2223
g324
(g1516
g326
Ntp2224
Rp2225
(dp2226
g1520
g1528
sg1521
g1742
sg350
S'c:/marmalade/7.5/s3e/h/ext/s3eImagePicker.h'
p2227
sbsS'stdlib.h'
p2228
g324
(g1516
g326
Ntp2229
Rp2230
(dp2231
g1520
g1528
sg1521
g1555
sg350
S'c:/marmalade/7.5/s3e/h/std/stdlib.h'
p2232
sbsS'IwCopyingPtr.h'
p2233
g324
(g1516
g326
Ntp2234
Rp2235
(dp2236
g1520
g1353
sg1521
g1562
sg350
g1435
sbsS'iostream'
p2237
g324
(g1516
g326
Ntp2238
Rp2239
(dp2240
g1520
g1528
sg1521
g1529
sg350
S'c:/marmalade/7.5/s3e/h/std/c++/iostream'
p2241
sbsS'png.h'
p2242
g324
(g1516
g326
Ntp2243
Rp2244
(dp2245
g1520
g1073
sg1521
(lp2246
g1067
ag1069
asg350
g1071
sbsS'stddef.h'
p2247
g324
(g1516
g326
Ntp2248
Rp2249
(dp2250
g1520
g1528
sg1521
g1555
sg350
S'c:/marmalade/7.5/s3e/h/std/stddef.h'
p2251
sbsS'setjmp_win32.h'
p2252
g324
(g1516
g326
Ntp2253
Rp2254
(dp2255
g1520
g1528
sg1521
g1555
sg350
S'c:/marmalade/7.5/s3e/h/std/setjmp_win32.h'
p2256
sbsS'IwGxPrint.h'
p2257
g324
(g1516
g326
Ntp2258
Rp2259
(dp2260
g1520
g1289
sg1521
g1655
sg350
g1298
sbsS'iwgx_public.defines.txt'
p2261
g324
(g1516
g326
Ntp2262
Rp2263
(dp2264
g1520
g1289
sg1521
g1655
sg350
g1312
sbsS'streambuf.h'
p2265
g324
(g1516
g326
Ntp2266
Rp2267
(dp2268
g1520
g1528
sg1521
g1529
sg350
S'c:/marmalade/7.5/s3e/h/std/c++/streambuf.h'
p2269
sbsS'IwGeomFPlane.h'
p2270
g324
(g1516
g326
Ntp2271
Rp2272
(dp2273
g1520
g1189
sg1521
g1583
sg350
g1253
sbsS'wchar.h'
p2274
g324
(g1516
g326
Ntp2275
Rp2276
(dp2277
g1520
g1528
sg1521
g1555
sg350
S'c:/marmalade/7.5/s3e/h/std/wchar.h'
p2278
sbsS's3eCameraCapture.h'
p2279
g324
(g1516
g326
Ntp2280
Rp2281
(dp2282
g1520
g1528
sg1521
g1742
sg350
S'c:/marmalade/7.5/s3e/h/ext/s3eCameraCapture.h'
p2283
sbsS'eglext.h'
p2284
g324
(g1516
g326
Ntp2285
Rp2286
(dp2287
g1520
g1528
sg1521
g1874
sg350
S'c:/marmalade/7.5/s3e/h/EGL/eglext.h'
p2288
sbsS'IwResHandlerImage.h'
p2289
g324
(g1516
g326
Ntp2290
Rp2291
(dp2292
g1520
g1265
sg1521
g2079
sg350
g1283
sbsS'strstream.h'
p2293
g324
(g1516
g326
Ntp2294
Rp2295
(dp2296
g1520
g1528
sg1521
g1529
sg350
S'c:/marmalade/7.5/s3e/h/std/c++/strstream.h'
p2297
sbsS'tiniconv.h'
p2298
g324
(g1516
g326
Ntp2299
Rp2300
(dp2301
g1520
g1089
sg1521
g1838
sg350
g1090
sbsS'IwGLExt.h'
p2302
g324
(g1516
g326
Ntp2303
Rp2304
(dp2305
g1520
g1146
sg1521
g1543
sg350
g1149
sbsS'app.icf'
p2306
g324
(g1516
g326
Ntp2307
Rp2308
(dp2309
g1520
(dp2310
sg1521
g4
sg350
S'd:/School/cs115/AmazingMaze/data/app.icf'
p2311
sbsS'IwClassFactory.h'
p2312
g324
(g1516
g326
Ntp2313
Rp2314
(dp2315
g1520
g1353
sg1521
g1562
sg350
g1370
sbsS'file.h'
p2316
g324
(g1516
g326
Ntp2317
Rp2318
(dp2319
g1520
g1528
sg1521
g1669
sg350
S'c:/marmalade/7.5/s3e/h/std/sys/file.h'
p2320
sbsS'cstring'
p2321
g324
(g1516
g326
Ntp2322
Rp2323
(dp2324
g1520
g1528
sg1521
g1529
sg350
S'c:/marmalade/7.5/s3e/h/std/c++/cstring'
p2325
sbsS'iwutil.config.txt'
p2326
g324
(g1516
g326
Ntp2327
Rp2328
(dp2329
g1520
g1353
sg1521
g1562
sg350
g1386
sbsS's3eSMS.h'
p2330
g324
(g1516
g326
Ntp2331
Rp2332
(dp2333
g1520
g1528
sg1521
g1742
sg350
S'c:/marmalade/7.5/s3e/h/ext/s3eSMS.h'
p2334
sbsS'limits.h'
p2335
g324
(g1516
g326
Ntp2336
Rp2337
(dp2338
g1520
g1528
sg1521
g1555
sg350
S'c:/marmalade/7.5/s3e/h/std/limits.h'
p2339
sbsS'iwgl.config.txt'
p2340
g324
(g1516
g326
Ntp2341
Rp2342
(dp2343
g1520
g1146
sg1521
g1543
sg350
g1147
sbsS'IwMaterial.h'
p2344
g324
(g1516
g326
Ntp2345
Rp2346
(dp2347
g1520
g1289
sg1521
g1655
sg350
g1318
sbsS'PVRTexTool_interface.cpp'
p2348
g324
(g1516
g326
Ntp2349
Rp2350
(dp2351
g1520
g1110
sg1521
g2153
sg350
g1111
sbsS'IwGxSurface.h'
p2352
g324
(g1516
g326
Ntp2353
Rp2354
(dp2355
g1520
g1289
sg1521
g1655
sg350
g1306
sbsS's3eSocket.h'
p2356
g324
(g1516
g326
Ntp2357
Rp2358
(dp2359
g1520
g1528
sg1521
g1549
sg350
S'c:/marmalade/7.5/s3e/h/s3eSocket.h'
p2360
sbsS'IwAutoFile.h'
p2361
g324
(g1516
g326
Ntp2362
Rp2363
(dp2364
g1520
g1353
sg1521
g1562
sg350
g1414
sbsS'ipc.h'
p2365
g324
(g1516
g326
Ntp2366
Rp2367
(dp2368
g1520
g1528
sg1521
g1669
sg350
S'c:/marmalade/7.5/s3e/h/std/sys/ipc.h'
p2369
sbsS'poll_1.h'
p2370
g324
(g1516
g326
Ntp2371
Rp2372
(dp2373
g1520
g1528
sg1521
g1669
sg350
S'c:/marmalade/7.5/s3e/h/std/sys/poll.h'
p2374
sbsS's3eThread.h'
p2375
g324
(g1516
g326
Ntp2376
Rp2377
(dp2378
g1520
g1528
sg1521
g1549
sg350
S'c:/marmalade/7.5/s3e/h/s3eThread.h'
p2379
sbsS'ucontext.h'
p2380
g324
(g1516
g326
Ntp2381
Rp2382
(dp2383
g1520
g1528
sg1521
g1555
sg350
S'c:/marmalade/7.5/s3e/h/std/ucontext.h'
p2384
sbsS'time.h'
p2385
g324
(g1516
g326
Ntp2386
Rp2387
(dp2388
g1520
g1528
sg1521
g1555
sg350
S'c:/marmalade/7.5/s3e/h/std/time.h'
p2389
sbsS'jchuff.h'
p2390
g324
(g1516
g326
Ntp2391
Rp2392
(dp2393
g1520
g1486
sg1521
g1613
sg350
g1503
sbsS's3eSoundRecord.h'
p2394
g324
(g1516
g326
Ntp2395
Rp2396
(dp2397
g1520
g1528
sg1521
g1549
sg350
S'c:/marmalade/7.5/s3e/h/s3eSoundRecord.h'
p2398
sbsS'IwFibre.h'
p2399
g324
(g1516
g326
Ntp2400
Rp2401
(dp2402
g1520
g1353
sg1521
g1562
sg350
g1439
sbsS's3eVersion.h'
p2403
g324
(g1516
g326
Ntp2404
Rp2405
(dp2406
g1520
g1528
sg1521
g1549
sg350
S'c:/marmalade/7.5/s3e/h/s3eVersion.h'
p2407
sbsS'IwGxFontGlyph.h'
p2408
g324
(g1516
g326
Ntp2409
Rp2410
(dp2411
g1520
g1167
sg1521
g1522
sg350
g1165
sbsS's3eTypes.h'
p2412
g324
(g1516
g326
Ntp2413
Rp2414
(dp2415
g1520
g1528
sg1521
g1549
sg350
S'c:/marmalade/7.5/s3e/h/s3eTypes.h'
p2416
sbsS'signal_2.h'
p2417
g324
(g1516
g326
Ntp2418
Rp2419
(dp2420
g1520
g1528
sg1521
g1529
sg350
S'c:/marmalade/7.5/s3e/h/std/c++/signal.h'
p2421
sbsS'termios.h'
p2422
g324
(g1516
g326
Ntp2423
Rp2424
(dp2425
g1520
g1528
sg1521
g1555
sg350
S'c:/marmalade/7.5/s3e/h/std/termios.h'
p2426
sbsS'iw2dscenegraph.mkf'
p2427
g324
(g1516
g326
Ntp2428
Rp2429
(dp2430
g1520
g1138
sg1521
g1782
sg350
g1136
sbsS'slist'
p2431
g324
(g1516
g326
Ntp2432
Rp2433
(dp2434
g1520
g1528
sg1521
g1529
sg350
S'c:/marmalade/7.5/s3e/h/std/c++/slist'
p2435
sbsS'cstdlib'
p2436
g324
(g1516
g326
Ntp2437
Rp2438
(dp2439
g1520
g1528
sg1521
g1529
sg350
S'c:/marmalade/7.5/s3e/h/std/c++/cstdlib'
p2440
sbsS's3eLocation.h'
p2441
g324
(g1516
g326
Ntp2442
Rp2443
(dp2444
g1520
g1528
sg1521
g1549
sg350
S'c:/marmalade/7.5/s3e/h/s3eLocation.h'
p2445
sbsS'IwMemBucketHelpers.h'
p2446
g324
(g1516
g326
Ntp2447
Rp2448
(dp2449
g1520
g1353
sg1521
g1562
sg350
g1390
sbsS's3eHash.h'
p2450
g324
(g1516
g326
Ntp2451
Rp2452
(dp2453
g1520
g1528
sg1521
g1549
sg350
S'c:/marmalade/7.5/s3e/h/s3eHash.h'
p2454
sbsS'IwGeomFMat.h'
p2455
g324
(g1516
g326
Ntp2456
Rp2457
(dp2458
g1520
g1189
sg1521
g1583
sg350
g1217
sbsS'type_traits.h'
p2459
g324
(g1516
g326
Ntp2460
Rp2461
(dp2462
g1520
g1528
sg1521
g1529
sg350
S'c:/marmalade/7.5/s3e/h/std/c++/type_traits.h'
p2463
sbsS's3eAtomic.h'
p2464
g324
(g1516
g326
Ntp2465
Rp2466
(dp2467
g1520
g1528
sg1521
g1549
sg350
S'c:/marmalade/7.5/s3e/h/s3eAtomic.h'
p2468
sbsS'IwMenu.h'
p2469
g324
(g1516
g326
Ntp2470
Rp2471
(dp2472
g1520
g1353
sg1521
g1562
sg350
g1443
sbsS'IwResHandlerITX.h'
p2473
g324
(g1516
g326
Ntp2474
Rp2475
(dp2476
g1520
g1265
sg1521
g2079
sg350
g1263
sbsS'IwArray.h'
p2477
g324
(g1516
g326
Ntp2478
Rp2479
(dp2480
g1520
g1353
sg1521
g1562
sg350
g1441
sbsS'IwUTF8.h'
p2481
g324
(g1516
g326
Ntp2482
Rp2483
(dp2484
g1520
g1353
sg1521
g1562
sg350
g1384
sbsS'math_rvct.h'
p2485
g324
(g1516
g326
Ntp2486
Rp2487
(dp2488
g1520
g1528
sg1521
g1555
sg350
S'c:/marmalade/7.5/s3e/h/std/math_rvct.h'
p2489
sbsS'IwUtil.h'
p2490
g324
(g1516
g326
Ntp2491
Rp2492
(dp2493
g1520
g1353
sg1521
g1562
sg350
g1425
sbsS'IwFColour.h'
p2494
g324
(g1516
g326
Ntp2495
Rp2496
(dp2497
g1520
g1289
sg1521
g1655
sg350
g1324
sbsS'wctype.h'
p2498
g324
(g1516
g326
Ntp2499
Rp2500
(dp2501
g1520
g1528
sg1521
g1555
sg350
S'c:/marmalade/7.5/s3e/h/std/wctype.h'
p2502
sbsS'cstddef'
p2503
g324
(g1516
g326
Ntp2504
Rp2505
(dp2506
g1520
g1528
sg1521
g1529
sg350
S'c:/marmalade/7.5/s3e/h/std/c++/cstddef'
p2507
sbsS'assert.h'
p2508
g324
(g1516
g326
Ntp2509
Rp2510
(dp2511
g1520
g1528
sg1521
g1555
sg350
S'c:/marmalade/7.5/s3e/h/std/assert.h'
p2512
sbsS'mman.h'
p2513
g324
(g1516
g326
Ntp2514
Rp2515
(dp2516
g1520
g1528
sg1521
g1669
sg350
S'c:/marmalade/7.5/s3e/h/std/sys/mman.h'
p2517
sbsS'IwRandom.h'
p2518
g324
(g1516
g326
Ntp2519
Rp2520
(dp2521
g1520
g1353
sg1521
g1562
sg350
g1380
sbsS'libgen.h'
p2522
g324
(g1516
g326
Ntp2523
Rp2524
(dp2525
g1520
g1528
sg1521
g1555
sg350
S'c:/marmalade/7.5/s3e/h/std/libgen.h'
p2526
sbsS'utsname.h'
p2527
g324
(g1516
g326
Ntp2528
Rp2529
(dp2530
g1520
g1528
sg1521
g1669
sg350
S'c:/marmalade/7.5/s3e/h/std/sys/utsname.h'
p2531
sbsS'wait.h'
p2532
g324
(g1516
g326
Ntp2533
Rp2534
(dp2535
g1520
g1528
sg1521
g1669
sg350
S'c:/marmalade/7.5/s3e/h/std/sys/wait.h'
p2536
sbsS'param.h'
p2537
g324
(g1516
g326
Ntp2538
Rp2539
(dp2540
g1520
g1528
sg1521
g1669
sg350
S'c:/marmalade/7.5/s3e/h/std/sys/param.h'
p2541
sbsS'IwDivide.h'
p2542
g324
(g1516
g326
Ntp2543
Rp2544
(dp2545
g1520
g1353
sg1521
g1562
sg350
g1360
sbsS'Iw2DSceneGraphCore.cpp'
p2546
g324
(g1516
g326
Ntp2547
Rp2548
(dp2549
g1520
g1346
sg1521
(lp2550
S"'Marmalade Studio'"
p2551
ag1339
asg350
g1347
sbsS'IwResManager.h'
p2552
g324
(g1516
g326
Ntp2553
Rp2554
(dp2555
g1520
g1265
sg1521
g2079
sg350
g1272
sbsS'ostream'
p2556
g324
(g1516
g326
Ntp2557
Rp2558
(dp2559
g1520
g1528
sg1521
g1529
sg350
S'c:/marmalade/7.5/s3e/h/std/c++/ostream'
p2560
sbsS'cwctype'
p2561
g324
(g1516
g326
Ntp2562
Rp2563
(dp2564
g1520
g1528
sg1521
g1529
sg350
S'c:/marmalade/7.5/s3e/h/std/c++/cwctype'
p2565
sbsS'set'
p2566
g324
(g1516
g326
Ntp2567
Rp2568
(dp2569
g1520
g1528
sg1521
g1529
sg350
S'c:/marmalade/7.5/s3e/h/std/c++/set'
p2570
sbsS'IwGeomSQuat.h'
p2571
g324
(g1516
g326
Ntp2572
Rp2573
(dp2574
g1520
g1189
sg1521
g1583
sg350
g1213
sbsS'locale'
p2575
g324
(g1516
g326
Ntp2576
Rp2577
(dp2578
g1520
g1528
sg1521
g1529
sg350
S'c:/marmalade/7.5/s3e/h/std/c++/locale'
p2579
sbsS'cstdio'
p2580
g324
(g1516
g326
Ntp2581
Rp2582
(dp2583
g1520
g1528
sg1521
g1529
sg350
S'c:/marmalade/7.5/s3e/h/std/c++/cstdio'
p2584
sbsS'MazeDrawer.cpp'
p2585
g324
(g1516
g326
Ntp2586
Rp2587
(dp2588
g1520
g1081
sg1521
g1538
sg350
g1098
sbsS'cdjpeg.h'
p2589
g324
(g1516
g326
Ntp2590
Rp2591
(dp2592
g1520
g1486
sg1521
g1613
sg350
g1505
sbsS'IwList.h'
p2593
g324
(g1516
g326
Ntp2594
Rp2595
(dp2596
g1520
g1353
sg1521
g1562
sg350
g1412
sbsS'inttypes.h'
p2597
g324
(g1516
g326
Ntp2598
Rp2599
(dp2600
g1520
g1528
sg1521
g1555
sg350
S'c:/marmalade/7.5/s3e/h/std/inttypes.h'
p2601
sbsS'dirent.h'
p2602
g324
(g1516
g326
Ntp2603
Rp2604
(dp2605
g1520
g1528
sg1521
g1555
sg350
S'c:/marmalade/7.5/s3e/h/std/dirent.h'
p2606
sbsS'IwGeomVec3.h'
p2607
g324
(g1516
g326
Ntp2608
Rp2609
(dp2610
g1520
g1189
sg1521
g1583
sg350
g1207
sbsS'transupp.h'
p2611
g324
(g1516
g326
Ntp2612
Rp2613
(dp2614
g1520
g1486
sg1521
g1613
sg350
g1491
sbsS'IwMath.h'
p2615
g324
(g1516
g326
Ntp2616
Rp2617
(dp2618
g1520
g1353
sg1521
g1562
sg350
g1354
sbsS'IwGeomQuat.h'
p2619
g324
(g1516
g326
Ntp2620
Rp2621
(dp2622
g1520
g1189
sg1521
g1583
sg350
g1257
sbsS'glplatform.h'
p2623
g324
(g1516
g326
Ntp2624
Rp2625
(dp2626
g1520
g1528
sg1521
g2094
sg350
S'c:/marmalade/7.5/s3e/h/GLES/glplatform.h'
p2627
sbsS's3e-default.mkf'
p2628
g324
(g1516
g326
Ntp2629
Rp2630
(dp2631
g1520
g1122
sg1521
(lp2632
g1118
asg350
g1120
sbsS'bitset'
p2633
g324
(g1516
g326
Ntp2634
Rp2635
(dp2636
g1520
g1528
sg1521
g1529
sg350
S'c:/marmalade/7.5/s3e/h/std/c++/bitset'
p2637
sbsS'alloca.h'
p2638
g324
(g1516
g326
Ntp2639
Rp2640
(dp2641
g1520
g1528
sg1521
g1555
sg350
S'c:/marmalade/7.5/s3e/h/std/alloca.h'
p2642
sbsS'IwResHandler.h'
p2643
g324
(g1516
g326
Ntp2644
Rp2645
(dp2646
g1520
g1265
sg1521
g2079
sg350
g1281
sbsS'IwResHandlerMTL.h'
p2647
g324
(g1516
g326
Ntp2648
Rp2649
(dp2650
g1520
g1289
sg1521
g1655
sg350
g1296
sbsS'IwRuntime.h'
p2651
g324
(g1516
g326
Ntp2652
Rp2653
(dp2654
g1520
g1353
sg1521
g1562
sg350
g1404
sbsS'limits'
p2655
g324
(g1516
g326
Ntp2656
Rp2657
(dp2658
g1520
g1528
sg1521
g1529
sg350
S'c:/marmalade/7.5/s3e/h/std/c++/limits'
p2659
sbsS'IwGeomBBox.h'
p2660
g324
(g1516
g326
Ntp2661
Rp2662
(dp2663
g1520
g1189
sg1521
g1583
sg350
g1247
sbsS's3eContacts.h'
p2664
g324
(g1516
g326
Ntp2665
Rp2666
(dp2667
g1520
g1528
sg1521
g1549
sg350
S'c:/marmalade/7.5/s3e/h/s3eContacts.h'
p2668
sbsS's3eLicense.h'
p2669
g324
(g1516
g326
Ntp2670
Rp2671
(dp2672
g1520
g1528
sg1521
g1549
sg350
S'c:/marmalade/7.5/s3e/h/s3eLicense.h'
p2673
sbsS'iwgx.config.txt'
p2674
g324
(g1516
g326
Ntp2675
Rp2676
(dp2677
g1520
g1289
sg1521
g1655
sg350
g1331
sbsS'IwTextParser.h'
p2678
g324
(g1516
g326
Ntp2679
Rp2680
(dp2681
g1520
g1353
sg1521
g1562
sg350
g1433
sbsS's3eTimer.h'
p2682
g324
(g1516
g326
Ntp2683
Rp2684
(dp2685
g1520
g1528
sg1521
g1549
sg350
S'c:/marmalade/7.5/s3e/h/s3eTimer.h'
p2686
sbsS'IwGeomVec.h'
p2687
g324
(g1516
g326
Ntp2688
Rp2689
(dp2690
g1520
g1189
sg1521
g1583
sg350
g1233
sbsS'IwSerialise.h'
p2691
g324
(g1516
g326
Ntp2692
Rp2693
(dp2694
g1520
g1353
sg1521
g1562
sg350
g1451
sbsS'MazeDrawer.h'
p2695
g324
(g1516
g326
Ntp2696
Rp2697
(dp2698
g1520
g1081
sg1521
g1538
sg350
g1100
sbsS'cstdarg'
p2699
g324
(g1516
g326
Ntp2700
Rp2701
(dp2702
g1520
g1528
sg1521
g1529
sg350
S'c:/marmalade/7.5/s3e/h/std/c++/cstdarg'
p2703
sbsS'fstream'
p2704
g324
(g1516
g326
Ntp2705
Rp2706
(dp2707
g1520
g1528
sg1521
g1529
sg350
S'c:/marmalade/7.5/s3e/h/std/c++/fstream'
p2708
sbsS'gl2ext.h'
p2709
g324
(g1516
g326
Ntp2710
Rp2711
(dp2712
g1520
g1528
sg1521
g1774
sg350
S'c:/marmalade/7.5/s3e/h/GLES2/gl2ext.h'
p2713
sbsS'IwChar.h'
p2714
g324
(g1516
g326
Ntp2715
Rp2716
(dp2717
g1520
g1353
sg1521
g1562
sg350
g1378
sbsS's3eSound.h'
p2718
g324
(g1516
g326
Ntp2719
Rp2720
(dp2721
g1520
g1528
sg1521
g1549
sg350
S'c:/marmalade/7.5/s3e/h/s3eSound.h'
p2722
sbsS's3eIOSBackgroundAudio.h'
p2723
g324
(g1516
g326
Ntp2724
Rp2725
(dp2726
g1520
g1528
sg1521
g1742
sg350
S'c:/marmalade/7.5/s3e/h/ext/s3eIOSBackgroundAudio.h'
p2727
sbsS'exception.h'
p2728
g324
(g1516
g326
Ntp2729
Rp2730
(dp2731
g1520
g1528
sg1521
g1529
sg350
S'c:/marmalade/7.5/s3e/h/std/c++/exception.h'
p2732
sbsS'iwgeom.config.txt'
p2733
g324
(g1516
g326
Ntp2734
Rp2735
(dp2736
g1520
g1189
sg1521
g1583
sg350
g1255
sbsS'iwgx.mkf'
p2737
g324
(g1516
g326
Ntp2738
Rp2739
(dp2740
g1520
g1330
sg1521
g1655
sg350
g1328
sbsS'gl.h'
p2741
g324
(g1516
g326
Ntp2742
Rp2743
(dp2744
g1520
g1528
sg1521
g2094
sg350
S'c:/marmalade/7.5/s3e/h/GLES/gl.h'
p2745
sbsS'zlib.h'
p2746
g324
(g1516
g326
Ntp2747
Rp2748
(dp2749
g1520
g1460
sg1521
g2195
sg350
g1461
sbsS'temp_defines_release.h'
p2750
g324
(g1516
g326
Ntp2751
Rp2752
(dp2753
g1520
(lp2754
sg1521
(lp2755
S"'generated files'"
p2756
asg350
S'd:/School/cs115/AmazingMaze/build_amazingmaze_vc12/temp_defines_release.h'
p2757
sbsS'iwgl.mkf'
p2758
g324
(g1516
g326
Ntp2759
Rp2760
(dp2761
g1520
g1143
sg1521
g1543
sg350
g1141
sbsS'IwColour.h'
p2762
g324
(g1516
g326
Ntp2763
Rp2764
(dp2765
g1520
g1289
sg1521
g1655
sg350
g1333
sbsS's3eLibrary.h'
p2766
g324
(g1516
g326
Ntp2767
Rp2768
(dp2769
g1520
g1528
sg1521
g1742
sg350
S'c:/marmalade/7.5/s3e/h/ext/s3eLibrary.h'
p2770
sbsS'types.h'
p2771
g324
(g1516
g326
Ntp2772
Rp2773
(dp2774
g1520
g1528
sg1521
g1669
sg350
S'c:/marmalade/7.5/s3e/h/std/sys/types.h'
p2775
sbsS'ifaddrs.h'
p2776
g324
(g1516
g326
Ntp2777
Rp2778
(dp2779
g1520
g1528
sg1521
g1555
sg350
S'c:/marmalade/7.5/s3e/h/std/ifaddrs.h'
p2780
sbsS'strstream'
p2781
g324
(g1516
g326
Ntp2782
Rp2783
(dp2784
g1520
g1528
sg1521
g1529
sg350
S'c:/marmalade/7.5/s3e/h/std/c++/strstream'
p2785
sbsS'IwTween.cpp'
p2786
g324
(g1516
g326
Ntp2787
Rp2788
(dp2789
g1520
g1470
sg1521
g2031
sg350
g1471
sbsS'exception'
p2790
g324
(g1516
g326
Ntp2791
Rp2792
(dp2793
g1520
g1528
sg1521
g1529
sg350
S'c:/marmalade/7.5/s3e/h/std/c++/exception'
p2794
sbsS'rlocks.h'
p2795
g324
(g1516
g326
Ntp2796
Rp2797
(dp2798
g1520
g1528
sg1521
g1529
sg350
S'c:/marmalade/7.5/s3e/h/std/c++/rlocks.h'
p2799
sbsS'ioctl.h'
p2800
g324
(g1516
g326
Ntp2801
Rp2802
(dp2803
g1520
g1528
sg1521
g1669
sg350
S'c:/marmalade/7.5/s3e/h/std/sys/ioctl.h'
p2804
sbsS'rope'
p2805
g324
(g1516
g326
Ntp2806
Rp2807
(dp2808
g1520
g1528
sg1521
g1529
sg350
S'c:/marmalade/7.5/s3e/h/std/c++/rope'
p2809
sbsS'jinclude.h'
p2810
g324
(g1516
g326
Ntp2811
Rp2812
(dp2813
g1520
g1486
sg1521
g1613
sg350
g1493
sbsS'IwEvent.h'
p2814
g324
(g1516
g326
Ntp2815
Rp2816
(dp2817
g1520
g1353
sg1521
g1562
sg350
g1437
sbsS'IwOptimiseSize.h'
p2818
g324
(g1516
g326
Ntp2819
Rp2820
(dp2821
g1520
g1353
sg1521
g1562
sg350
g1402
sbsS'iwgxfont_public.defines.txt'
p2822
g324
(g1516
g326
Ntp2823
Rp2824
(dp2825
g1520
g1167
sg1521
g1522
sg350
g1183
sbsS'iconv.h'
p2826
g324
(g1516
g326
Ntp2827
Rp2828
(dp2829
g1520
g1528
sg1521
g1555
sg350
S'c:/marmalade/7.5/s3e/h/std/iconv.h'
p2830
sbsS'sendfile.h'
p2831
g324
(g1516
g326
Ntp2832
Rp2833
(dp2834
g1520
g1528
sg1521
g1669
sg350
S'c:/marmalade/7.5/s3e/h/std/sys/sendfile.h'
p2835
sbsS'IwGeomSphere.h'
p2836
g324
(g1516
g326
Ntp2837
Rp2838
(dp2839
g1520
g1189
sg1521
g1583
sg350
g1190
sbsS'MazeGenerator.cpp'
p2840
g324
(g1516
g326
Ntp2841
Rp2842
(dp2843
g1520
g1081
sg1521
g1538
sg350
g1079
sbsS'IwResManagerClass.h'
p2844
g324
(g1516
g326
Ntp2845
Rp2846
(dp2847
g1520
g1265
sg1521
g2079
sg350
g1268
sbsS'jdct.h'
p2848
g324
(g1516
g326
Ntp2849
Rp2850
(dp2851
g1520
g1486
sg1521
g1613
sg350
g1497
sbsS'cctype'
p2852
g324
(g1516
g326
Ntp2853
Rp2854
(dp2855
g1520
g1528
sg1521
g1529
sg350
S'c:/marmalade/7.5/s3e/h/std/c++/cctype'
p2856
sbsS's3eConfig.h'
p2857
g324
(g1516
g326
Ntp2858
Rp2859
(dp2860
g1520
g1528
sg1521
g1549
sg350
S'c:/marmalade/7.5/s3e/h/s3eConfig.h'
p2861
sbsS'IwHashString.h'
p2862
g324
(g1516
g326
Ntp2863
Rp2864
(dp2865
g1520
g1353
sg1521
g1562
sg350
g1418
sbsS'stat.h'
p2866
g324
(g1516
g326
Ntp2867
Rp2868
(dp2869
g1520
g1528
sg1521
g1669
sg350
S'c:/marmalade/7.5/s3e/h/std/sys/stat.h'
p2870
sbsS'byteswap.h'
p2871
g324
(g1516
g326
Ntp2872
Rp2873
(dp2874
g1520
g1528
sg1521
g1555
sg350
S'c:/marmalade/7.5/s3e/h/std/byteswap.h'
p2875
sbsS'iwresmanager.mkf'
p2876
g324
(g1516
g326
Ntp2877
Rp2878
(dp2879
g1520
g1276
sg1521
g2079
sg350
g1274
sbsS'IwUtilInitTerm.h'
p2880
g324
(g1516
g326
Ntp2881
Rp2882
(dp2883
g1520
g1353
sg1521
g1562
sg350
g1447
sbsS'pthread_1.h'
p2884
g324
(g1516
g326
Ntp2885
Rp2886
(dp2887
g1520
g1528
sg1521
g1529
sg350
S'c:/marmalade/7.5/s3e/h/std/c++/pthread.h'
p2888
sbsS'IwMemBucket.h'
p2889
g324
(g1516
g326
Ntp2890
Rp2891
(dp2892
g1520
g1353
sg1521
g1562
sg350
g1400
sbsS'complex'
p2893
g324
(g1516
g326
Ntp2894
Rp2895
(dp2896
g1520
g1528
sg1521
g1529
sg350
S'c:/marmalade/7.5/s3e/h/std/c++/complex'
p2897
sbsS'algorithm'
p2898
g324
(g1516
g326
Ntp2899
Rp2900
(dp2901
g1520
g1528
sg1521
g1529
sg350
S'c:/marmalade/7.5/s3e/h/std/c++/algorithm'
p2902
sbsS's3e.icf'
p2903
g324
(g1516
g326
Ntp2904
Rp2905
(dp2906
g1520
g1528
sg1521
g1549
sg350
S'c:/marmalade/7.5/s3e/s3e.icf'
p2907
sbsS'sem.h'
p2908
g324
(g1516
g326
Ntp2909
Rp2910
(dp2911
g1520
g1528
sg1521
g1669
sg350
S'c:/marmalade/7.5/s3e/h/std/sys/sem.h'
p2912
sbsS'IwGxFontState.h'
p2913
g324
(g1516
g326
Ntp2914
Rp2915
(dp2916
g1520
g1167
sg1521
g1522
sg350
g1172
sbsS'stdio.h'
p2917
g324
(g1516
g326
Ntp2918
Rp2919
(dp2920
g1520
g1528
sg1521
g1555
sg350
S'c:/marmalade/7.5/s3e/h/std/stdio.h'
p2921
sbsS'jmemsys.h'
p2922
g324
(g1516
g326
Ntp2923
Rp2924
(dp2925
g1520
g1486
sg1521
g1613
sg350
g1499
sbsS'ios'
p2926
g324
(g1516
g326
Ntp2927
Rp2928
(dp2929
g1520
g1528
sg1521
g1529
sg350
S'c:/marmalade/7.5/s3e/h/std/c++/ios'
p2930
sbsS'IwTween.h'
p2931
g324
(g1516
g326
Ntp2932
Rp2933
(dp2934
g1520
g1470
sg1521
g2031
sg350
g1468
sbsS'IwGeomFVec4.h'
p2935
g324
(g1516
g326
Ntp2936
Rp2937
(dp2938
g1520
g1189
sg1521
g1583
sg350
g1237
sbsS'stack'
p2939
g324
(g1516
g326
Ntp2940
Rp2941
(dp2942
g1520
g1528
sg1521
g1529
sg350
S'c:/marmalade/7.5/s3e/h/std/c++/stack'
p2943
sbsS'new.h'
p2944
g324
(g1516
g326
Ntp2945
Rp2946
(dp2947
g1520
g1528
sg1521
g1529
sg350
S'c:/marmalade/7.5/s3e/h/std/c++/new.h'
p2948
sbsS's3eEMail.h'
p2949
g324
(g1516
g326
Ntp2950
Rp2951
(dp2952
g1520
g1528
sg1521
g1742
sg350
S'c:/marmalade/7.5/s3e/h/ext/s3eEMail.h'
p2953
sbsS's3eVideo.h'
p2954
g324
(g1516
g326
Ntp2955
Rp2956
(dp2957
g1520
g1528
sg1521
g1549
sg350
S'c:/marmalade/7.5/s3e/h/s3eVideo.h'
p2958
sbsS'pngconf.h'
p2959
g324
(g1516
g326
Ntp2960
Rp2961
(dp2962
g1520
g1073
sg1521
g2246
sg350
g1074
sbsS'pwd.h'
p2963
g324
(g1516
g326
Ntp2964
Rp2965
(dp2966
g1520
g1528
sg1521
g1555
sg350
S'c:/marmalade/7.5/s3e/h/std/pwd.h'
p2967
sbsS'IwOptimiseThumb.h'
p2968
g324
(g1516
g326
Ntp2969
Rp2970
(dp2971
g1520
g1353
sg1521
g1562
sg350
g1420
sbsS'gl3.h'
p2972
g324
(g1516
g326
Ntp2973
Rp2974
(dp2975
g1520
g1528
sg1521
g1843
sg350
S'c:/marmalade/7.5/s3e/h/GLES3/gl3.h'
p2976
sbsS'IwClip.h'
p2977
g324
(g1516
g326
Ntp2978
Rp2979
(dp2980
g1520
g1289
sg1521
g1655
sg350
g1304
sbsS'iwresmanager.config.txt'
p2981
g324
(g1516
g326
Ntp2982
Rp2983
(dp2984
g1520
g1265
sg1521
g2079
sg350
g1277
sbsS'IwGxShaderTechnique.h'
p2985
g324
(g1516
g326
Ntp2986
Rp2987
(dp2988
g1520
g1289
sg1521
g1655
sg350
g1316
sbsS'IwCore.h'
p2989
g324
(g1516
g326
Ntp2990
Rp2991
(dp2992
g1520
g1353
sg1521
g1562
sg350
g1358
sbsS'cfloat'
p2993
g324
(g1516
g326
Ntp2994
Rp2995
(dp2996
g1520
g1528
sg1521
g1529
sg350
S'c:/marmalade/7.5/s3e/h/std/c++/cfloat'
p2997
sbsS'IwGeomMat2D.h'
p2998
g324
(g1516
g326
Ntp2999
Rp3000
(dp3001
g1520
g1189
sg1521
g1583
sg350
g1221
sbsS'IwAllocator.h'
p3002
g324
(g1516
g326
Ntp3003
Rp3004
(dp3005
g1520
g1353
sg1521
g1562
sg350
g1388
sbsS'IwPath.h'
p3006
g324
(g1516
g326
Ntp3007
Rp3008
(dp3009
g1520
g1353
sg1521
g1562
sg350
g1408
sbsS'iwgxfont.mkf'
p3010
g324
(g1516
g326
Ntp3011
Rp3012
(dp3013
g1520
g1178
sg1521
g1522
sg350
g1176
sbsS'IwTexture.h'
p3014
g324
(g1516
g326
Ntp3015
Rp3016
(dp3017
g1520
g1289
sg1521
g1655
sg350
g1292
sbsS'IwGeomVec.h.tpl'
p3018
g324
(g1516
g326
Ntp3019
Rp3020
(dp3021
g1520
g1189
sg1521
g1583
sg350
g1231
sbsS's3eAccelerometer.h'
p3022
g324
(g1516
g326
Ntp3023
Rp3024
(dp3025
g1520
g1528
sg1521
g1549
sg350
S'c:/marmalade/7.5/s3e/h/s3eAccelerometer.h'
p3026
sbsS'setjmp.h'
p3027
g324
(g1516
g326
Ntp3028
Rp3029
(dp3030
g1520
g1528
sg1521
g1555
sg350
S'c:/marmalade/7.5/s3e/h/std/setjmp.h'
p3031
sbsS'menu.cpp'
p3032
g324
(g1516
g326
Ntp3033
Rp3034
(dp3035
g1520
g1081
sg1521
g1538
sg350
g1094
sbsS'IwFile.h'
p3036
g324
(g1516
g326
Ntp3037
Rp3038
(dp3039
g1520
g1353
sg1521
g1562
sg350
g1429
sbsS'IwTextParseable.h'
p3040
g324
(g1516
g326
Ntp3041
Rp3042
(dp3043
g1520
g1353
sg1521
g1562
sg350
g1376
sbsS'istream.h'
p3044
g324
(g1516
g326
Ntp3045
Rp3046
(dp3047
g1520
g1528
sg1521
g1529
sg350
S'c:/marmalade/7.5/s3e/h/std/c++/istream.h'
p3048
sbsS'stdint.h'
p3049
g324
(g1516
g326
Ntp3050
Rp3051
(dp3052
g1520
g1528
sg1521
g1555
sg350
S'c:/marmalade/7.5/s3e/h/std/stdint.h'
p3053
sbsS'semaphore.h'
p3054
g324
(g1516
g326
Ntp3055
Rp3056
(dp3057
g1520
g1528
sg1521
g1555
sg350
S'c:/marmalade/7.5/s3e/h/std/semaphore.h'
p3058
sbsS'ctime'
p3059
g324
(g1516
g326
Ntp3060
Rp3061
(dp3062
g1520
g1528
sg1521
g1529
sg350
S'c:/marmalade/7.5/s3e/h/std/c++/ctime'
p3063
sbsS'sstream'
p3064
g324
(g1516
g326
Ntp3065
Rp3066
(dp3067
g1520
g1528
sg1521
g1529
sg350
S'c:/marmalade/7.5/s3e/h/std/c++/sstream'
p3068
sbsS'IwGeomFBBox.h'
p3069
g324
(g1516
g326
Ntp3070
Rp3071
(dp3072
g1520
g1189
sg1521
g1583
sg350
g1215
sbsS'IwDebugPrim.h'
p3073
g324
(g1516
g326
Ntp3074
Rp3075
(dp3076
g1520
g1289
sg1521
g1655
sg350
g1287
sbsS'IwGxFontContainer.h'
p3077
g324
(g1516
g326
Ntp3078
Rp3079
(dp3080
g1520
g1167
sg1521
g1522
sg350
g1174
sbsS'IwGeomSVec3.h'
p3081
g324
(g1516
g326
Ntp3082
Rp3083
(dp3084
g1520
g1189
sg1521
g1583
sg350
g1192
sbsS'iw2dscenegraphcore.mkf'
p3085
g324
(g1516
g326
Ntp3086
Rp3087
(dp3088
g1520
g1343
sg1521
g2550
sg350
g1341
sbsS's3eExt.h'
p3089
g324
(g1516
g326
Ntp3090
Rp3091
(dp3092
g1520
g1528
sg1521
g1549
sg350
S'c:/marmalade/7.5/s3e/h/s3eExt.h'
p3093
sbsS'IwGeomFVec3.h'
p3094
g324
(g1516
g326
Ntp3095
Rp3096
(dp3097
g1520
g1189
sg1521
g1583
sg350
g1251
sbsS'streambuf'
p3098
g324
(g1516
g326
Ntp3099
Rp3100
(dp3101
g1520
g1528
sg1521
g1529
sg350
S'c:/marmalade/7.5/s3e/h/std/c++/streambuf'
p3102
sbsS's3eMetrics.h'
p3103
g324
(g1516
g326
Ntp3104
Rp3105
(dp3106
g1520
g1528
sg1521
g1742
sg350
S'c:/marmalade/7.5/s3e/h/ext/s3eMetrics.h'
p3107
sbsS'IwGxFont.h'
p3108
g324
(g1516
g326
Ntp3109
Rp3110
(dp3111
g1520
g1167
sg1521
g1522
sg350
g1181
sbsS's3eSecureStorage.h'
p3112
g324
(g1516
g326
Ntp3113
Rp3114
(dp3115
g1520
g1528
sg1521
g1549
sg350
S'c:/marmalade/7.5/s3e/h/s3eSecureStorage.h'
p3116
sbsS'string.h'
p3117
g324
(g1516
g326
Ntp3118
Rp3119
(dp3120
g1520
g1528
sg1521
g1555
sg350
S'c:/marmalade/7.5/s3e/h/std/string.h'
p3121
sbsS'IwResource.h'
p3122
g324
(g1516
g326
Ntp3123
Rp3124
(dp3125
g1520
g1353
sg1521
g1562
sg350
g1449
sbsS'IwGeomSVec2.h'
p3126
g324
(g1516
g326
Ntp3127
Rp3128
(dp3129
g1520
g1189
sg1521
g1583
sg350
g1187
sbsS'libjpeg.mkf'
p3130
g324
(g1516
g326
Ntp3131
Rp3132
(dp3133
g1520
g1482
sg1521
(lp3134
g1478
asg350
g1480
sbsS'IwGxDebug.h'
p3135
g324
(g1516
g326
Ntp3136
Rp3137
(dp3138
g1520
g1289
sg1521
g1655
sg350
g1314
sbsS'pthread_types.h'
p3139
g324
(g1516
g326
Ntp3140
Rp3141
(dp3142
g1520
g1528
sg1521
g1555
sg350
S'c:/marmalade/7.5/s3e/h/std/pthread_types.h'
p3143
sbsS'iomanip.h'
p3144
g324
(g1516
g326
Ntp3145
Rp3146
(dp3147
g1520
g1528
sg1521
g1529
sg350
S'c:/marmalade/7.5/s3e/h/std/c++/iomanip.h'
p3148
sbsS'IwKeymap.h'
p3149
g324
(g1516
g326
Ntp3150
Rp3151
(dp3152
g1520
g1353
sg1521
g1562
sg350
g1394
sbsS'IwDebug.h'
p3153
g324
(g1516
g326
Ntp3154
Rp3155
(dp3156
g1520
g1353
sg1521
g1562
sg350
g1382
sbsS'IwVariableBitField.h'
p3157
g324
(g1516
g326
Ntp3158
Rp3159
(dp3160
g1520
g1353
sg1521
g1562
sg350
g1416
sbsS'IwGeomMenu.h'
p3161
g324
(g1516
g326
Ntp3162
Rp3163
(dp3164
g1520
g1189
sg1521
g1583
sg350
g1245
sbsS'IwDivTable.h'
p3165
g324
(g1516
g326
Ntp3166
Rp3167
(dp3168
g1520
g1353
sg1521
g1562
sg350
g1372
sbsS'ctype.h'
p3169
g324
(g1516
g326
Ntp3170
Rp3171
(dp3172
g1520
g1528
sg1521
g1555
sg350
S'c:/marmalade/7.5/s3e/h/std/ctype.h'
p3173
sbsS'IwGeomMat.h'
p3174
g324
(g1516
g326
Ntp3175
Rp3176
(dp3177
g1520
g1189
sg1521
g1583
sg350
g1205
sbsS'IwResGroup.h'
p3178
g324
(g1516
g326
Ntp3179
Rp3180
(dp3181
g1520
g1265
sg1521
g2079
sg350
g1279
sbsS'signal_1.h'
p3182
g324
(g1516
g326
Ntp3183
Rp3184
(dp3185
g1520
g1528
sg1521
g1669
sg350
S'c:/marmalade/7.5/s3e/h/std/sys/signal.h'
p3186
sbsS'functional'
p3187
g324
(g1516
g326
Ntp3188
Rp3189
(dp3190
g1520
g1528
sg1521
g1529
sg350
S'c:/marmalade/7.5/s3e/h/std/c++/functional'
p3191
sbsS'shm.h'
p3192
g324
(g1516
g326
Ntp3193
Rp3194
(dp3195
g1520
g1528
sg1521
g1669
sg350
S'c:/marmalade/7.5/s3e/h/std/sys/shm.h'
p3196
sbsS'IwManagedList.h'
p3197
g324
(g1516
g326
Ntp3198
Rp3199
(dp3200
g1520
g1353
sg1521
g1562
sg350
g1366
sbsS'prctl.h'
p3201
g324
(g1516
g326
Ntp3202
Rp3203
(dp3204
g1520
g1528
sg1521
g1669
sg350
S'c:/marmalade/7.5/s3e/h/std/sys/prctl.h'
p3205
sbsS'un.h'
p3206
g324
(g1516
g326
Ntp3207
Rp3208
(dp3209
g1520
g1528
sg1521
g1669
sg350
S'c:/marmalade/7.5/s3e/h/std/sys/un.h'
p3210
sbsS'temp_defines_debug.h'
p3211
g324
(g1516
g326
Ntp3212
Rp3213
(dp3214
g1520
(lp3215
sg1521
(lp3216
g2756
asg350
S'd:/School/cs115/AmazingMaze/build_amazingmaze_vc12/temp_defines_debug.h'
p3217
sbsS'utility'
p3218
g324
(g1516
g326
Ntp3219
Rp3220
(dp3221
g1520
g1528
sg1521
g1529
sg350
S'c:/marmalade/7.5/s3e/h/std/c++/utility'
p3222
sbsS'IwGeomLegacy.h'
p3223
g324
(g1516
g326
Ntp3224
Rp3225
(dp3226
g1520
g1189
sg1521
g1583
sg350
g1209
sbsS'IwTPage.h'
p3227
g324
(g1516
g326
Ntp3228
Rp3229
(dp3230
g1520
g1289
sg1521
g1655
sg350
g1337
sbsS'IwResSerialise.h'
p3231
g324
(g1516
g326
Ntp3232
Rp3233
(dp3234
g1520
g1265
sg1521
g2079
sg350
g1266
sbsS's3eCrypto.h'
p3235
g324
(g1516
g326
Ntp3236
Rp3237
(dp3238
g1520
g1528
sg1521
g1549
sg350
S'c:/marmalade/7.5/s3e/h/s3eCrypto.h'
p3239
sbsS's3eKeyboard.h'
p3240
g324
(g1516
g326
Ntp3241
Rp3242
(dp3243
g1520
g1528
sg1521
g1549
sg350
S'c:/marmalade/7.5/s3e/h/s3eKeyboard.h'
p3244
sbsS'fcntl.h'
p3245
g324
(g1516
g326
Ntp3246
Rp3247
(dp3248
g1520
g1528
sg1521
g1555
sg350
S'c:/marmalade/7.5/s3e/h/std/fcntl.h'
p3249
sbsS'Iw2DSceneGraphCore.h'
p3250
g324
(g1516
g326
Ntp3251
Rp3252
(dp3253
g1520
g1346
sg1521
g2550
sg350
g1344
sbsS'memory.h'
p3254
g324
(g1516
g326
Ntp3255
Rp3256
(dp3257
g1520
g1528
sg1521
g1555
sg350
S'c:/marmalade/7.5/s3e/h/std/memory.h'
p3258
sbsS'pthread.h'
p3259
g324
(g1516
g326
Ntp3260
Rp3261
(dp3262
g1520
g1528
sg1521
g1555
sg350
S'c:/marmalade/7.5/s3e/h/std/pthread.h'
p3263
sbsS'IwGeomIntersect.h'
p3264
g324
(g1516
g326
Ntp3265
Rp3266
(dp3267
g1520
g1189
sg1521
g1583
sg350
g1235
sbsS'IwTextParserITX.h'
p3268
g324
(g1516
g326
Ntp3269
Rp3270
(dp3271
g1520
g1353
sg1521
g1562
sg350
g1392
sbsS'egl_1.h'
p3272
g324
(g1516
g326
Ntp3273
Rp3274
(dp3275
g1520
g1528
sg1521
g2094
sg350
S'c:/marmalade/7.5/s3e/h/GLES/egl.h'
p3276
sbsS'Iw2DSceneGraph.cpp'
p3277
g324
(g1516
g326
Ntp3278
Rp3279
(dp3280
g1520
g1131
sg1521
g1782
sg350
g1129
sbsS'ostream.h'
p3281
g324
(g1516
g326
Ntp3282
Rp3283
(dp3284
g1520
g1528
sg1521
g1529
sg350
S'c:/marmalade/7.5/s3e/h/std/c++/ostream.h'
p3285
sbsS'stl_user_config.h'
p3286
g324
(g1516
g326
Ntp3287
Rp3288
(dp3289
g1520
g1528
sg1521
g1529
sg350
S'c:/marmalade/7.5/s3e/h/std/c++/stl_user_config.h'
p3290
sbsS'IwProfileMenu.h'
p3291
g324
(g1516
g326
Ntp3292
Rp3293
(dp3294
g1520
g1353
sg1521
g1562
sg350
g1368
sbsS'MarmaladeVersion.h'
p3295
g324
(g1516
g326
Ntp3296
Rp3297
(dp3298
g1520
g1528
sg1521
g1549
sg350
S'c:/marmalade/7.5/s3e/h/MarmaladeVersion.h'
p3299
sbsS'gl3platform.h'
p3300
g324
(g1516
g326
Ntp3301
Rp3302
(dp3303
g1520
g1528
sg1521
g1843
sg350
S'c:/marmalade/7.5/s3e/h/GLES3/gl3platform.h'
p3304
sbsS'ios.h'
p3305
g324
(g1516
g326
Ntp3306
Rp3307
(dp3308
g1520
g1528
sg1521
g1529
sg350
S'c:/marmalade/7.5/s3e/h/std/c++/ios.h'
p3309
sbsS'IwImageHelper.h'
p3310
g324
(g1516
g326
Ntp3311
Rp3312
(dp3313
g1520
g1353
sg1521
g1562
sg350
g1364
sbsS'hash_set'
p3314
g324
(g1516
g326
Ntp3315
Rp3316
(dp3317
g1520
g1528
sg1521
g1529
sg350
S'c:/marmalade/7.5/s3e/h/std/c++/hash_set'
p3318
sbsS'IwGeomFQuat.h'
p3319
g324
(g1516
g326
Ntp3320
Rp3321
(dp3322
g1520
g1189
sg1521
g1583
sg350
g1199
sbsS'jmorecfg.h'
p3323
g324
(g1516
g326
Ntp3324
Rp3325
(dp3326
g1520
g1486
sg1521
g1613
sg350
g1495
sbsS'eglplatform.h'
p3327
g324
(g1516
g326
Ntp3328
Rp3329
(dp3330
g1520
g1528
sg1521
g1874
sg350
S'c:/marmalade/7.5/s3e/h/EGL/eglplatform.h'
p3331
sbsS'cmath'
p3332
g324
(g1516
g326
Ntp3333
Rp3334
(dp3335
g1520
g1528
sg1521
g1529
sg350
S'c:/marmalade/7.5/s3e/h/std/c++/cmath'
p3336
sbsS'math_gcc.h'
p3337
g324
(g1516
g326
Ntp3338
Rp3339
(dp3340
g1520
g1528
sg1521
g1555
sg350
S'c:/marmalade/7.5/s3e/h/std/math_gcc.h'
p3341
sbsS's3eMemory.h'
p3342
g324
(g1516
g326
Ntp3343
Rp3344
(dp3345
g1520
g1528
sg1521
g1549
sg350
S'c:/marmalade/7.5/s3e/h/s3eMemory.h'
p3346
sbsS'strings.h'
p3347
g324
(g1516
g326
Ntp3348
Rp3349
(dp3350
g1520
g1528
sg1521
g1555
sg350
S'c:/marmalade/7.5/s3e/h/std/strings.h'
p3351
sbsS's3eFile.h'
p3352
g324
(g1516
g326
Ntp3353
Rp3354
(dp3355
g1520
g1528
sg1521
g1549
sg350
S'c:/marmalade/7.5/s3e/h/s3eFile.h'
p3356
sbsS'IwGxTypes.h'
p3357
g324
(g1516
g326
Ntp3358
Rp3359
(dp3360
g1520
g1289
sg1521
g1655
sg350
g1326
sbsS'cerrno'
p3361
g324
(g1516
g326
Ntp3362
Rp3363
(dp3364
g1520
g1528
sg1521
g1529
sg350
S'c:/marmalade/7.5/s3e/h/std/c++/cerrno'
p3365
sbsS'resource.h'
p3366
g324
(g1516
g326
Ntp3367
Rp3368
(dp3369
g1520
g1528
sg1521
g1669
sg350
S'c:/marmalade/7.5/s3e/h/std/sys/resource.h'
p3370
sbsS'clocale'
p3371
g324
(g1516
g326
Ntp3372
Rp3373
(dp3374
g1520
g1528
sg1521
g1529
sg350
S'c:/marmalade/7.5/s3e/h/std/c++/clocale'
p3375
sbsS'pvrtextool.mkf'
p3376
g324
(g1516
g326
Ntp3377
Rp3378
(dp3379
g1520
g1117
sg1521
g2126
sg350
g1115
sbsS'csetjmp'
p3380
g324
(g1516
g326
Ntp3381
Rp3382
(dp3383
g1520
g1528
sg1521
g1529
sg350
S'c:/marmalade/7.5/s3e/h/std/c++/csetjmp'
p3384
sbsS'netdb.h'
p3385
g324
(g1516
g326
Ntp3386
Rp3387
(dp3388
g1520
g1528
sg1521
g1555
sg350
S'c:/marmalade/7.5/s3e/h/std/netdb.h'
p3389
sbsS's3eAndroidJNI.h'
p3390
g324
(g1516
g326
Ntp3391
Rp3392
(dp3393
g1520
g1528
sg1521
g1742
sg350
S'c:/marmalade/7.5/s3e/h/ext/s3eAndroidJNI.h'
p3394
sbsS'stdexcept'
p3395
g324
(g1516
g326
Ntp3396
Rp3397
(dp3398
g1520
g1528
sg1521
g1529
sg350
S'c:/marmalade/7.5/s3e/h/std/c++/stdexcept'
p3399
sbsS'math.h'
p3400
g324
(g1516
g326
Ntp3401
Rp3402
(dp3403
g1520
g1528
sg1521
g1555
sg350
S'c:/marmalade/7.5/s3e/h/std/math.h'
p3404
sbsS'stdbool.h'
p3405
g324
(g1516
g326
Ntp3406
Rp3407
(dp3408
g1520
g1528
sg1521
g1555
sg350
S'c:/marmalade/7.5/s3e/h/std/stdbool.h'
p3409
sbsS'uio.h'
p3410
g324
(g1516
g326
Ntp3411
Rp3412
(dp3413
g1520
g1528
sg1521
g1669
sg350
S'c:/marmalade/7.5/s3e/h/std/sys/uio.h'
p3414
sbsS'IwUncopyable.h'
p3415
g324
(g1516
g326
Ntp3416
Rp3417
(dp3418
g1520
g1353
sg1521
g1562
sg350
g1431
sbssS'juice_build_type'
p3419
g4
sS'tests'
p3420
(lp3421
sS'project_name'
p3422
g332
sS'root_file'
p3423
g131
sS'current_root'
p3424
S'd:/School/cs115/AmazingMaze'
p3425
sS'dependencies'
p3426
(lp3427
sS'include_paths'
p3428
(lp3429
S'c:/marmalade/7.5/modules/iwutil/h'
p3430
aS'c:/marmalade/7.5/modules/third_party/libjpeg/h'
p3431
aS'c:/marmalade/7.5/modules/third_party/zlib/h'
p3432
aS'c:/marmalade/7.5/modules/third_party/libpng/h'
p3433
aS'c:/marmalade/7.5/modules/iw2dscenegraphcore/h'
p3434
aS'c:/marmalade/7.5/modules/iw2dscenegraph/h'
p3435
aS'c:/marmalade/7.5/modules/iw2d/h'
p3436
aS'c:/marmalade/7.5/modules/iwgx/h'
p3437
aS'c:/marmalade/7.5/modules/iwgl/h'
p3438
aS'c:/marmalade/7.5/modules/iwgeom/h'
p3439
aS'c:/marmalade/7.5/modules/iwresmanager/h'
p3440
aS'c:/marmalade/7.5/extensions/pvrtextool/h'
p3441
aS'c:/marmalade/7.5/modules/iwgxfont/h'
p3442
aS'c:/marmalade/7.5/modules/third_party/tiniconv/source'
p3443
aS'c:/marmalade/7.5/modules/iwtween/h'
p3444
aS'c:/marmalade/7.5/s3e/h'
p3445
aS'c:/marmalade/7.5/s3e/h/ext'
p3446
aS'c:/marmalade/7.5/s3e/h/std'
p3447
aS'c:/marmalade/7.5/s3e/h/std/c++'
p3448
aS'c:/marmalade/7.5/s3e/h/ext_legacy'
p3449
aS'c:/marmalade/7.5/s3e/h/legacy'
p3450
asS'weak_frameworks'
p3451
(lp3452
sS'extprojects'
p3453
(dp3454
sg590
(dp3455
g584
(lp3456
(g87
S'.'
p3457
I0
tp3458
assS'macro_types'
p3459
(dp3460
g523
I1
sg524
I0
sg525
I0
sg526
I0
sg527
I0
sg528
I0
sg529
I0
sg530
I0
sg531
I0
sg533
I0
sg534
I0
sg535
I0
sg536
I0
sg537
I0
sg539
I0
sg541
I0
sg542
I0
sg543
I0
sg544
I0
sg545
I0
sg546
I0
sg547
I1
sg548
I0
sg549
I0
sg550
I0
sg551
I0
sg552
I01
sg553
I1
sg554
I0
sg555
I0
sg556
I0
sg557
I0
sg558
I0
sg560
I0
sg561
I0
ssS'commands'
p3461
(lp3462
sg592
(g1060
S'VC12'
p3463
S'X86ARMAARCH64'
p3464
tp3465
sS'build_libs'
p3466
(dp3467
sg594
g0
sS'frameworks'
p3468
(lp3469
sS'environ'
p3470
(dp3471
sS'target_name_debug'
p3472
g332
sS'builders'
p3473
(dp3474
g584
(dp3475
S'.S'
p3476
(dp3477
S'gcc_aarch64'
p3478
(lp3479
S'.obj'
p3480
aS'echo AARCH64 Assembling(GCC) ${SOURCE}...'
p3481
aS'c:/marmalade/7.5/s3e\\gcc\\win32\\aarch64\\bin\\aarch64-none-elf-gcc -c -o ${TARGET} ${SOURCE}'
p3482
asS'rvct'
p3483
(lp3484
g3480
aS'echo ARM Assembling(RVCT) ${SOURCE}...'
p3485
aS'c:/marmalade/7.5/s3e\\rvct\\bin\\armasm -o ${TARGET} ${SOURCE}'
p3486
asg446
(lp3487
g3480
aS'echo ARM Assembling(GCC) ${SOURCE}...'
p3488
aS'c:/marmalade/7.5/s3e\\gcc\\win32\\arm\\bin\\arm-none-eabi-gcc -c -o ${TARGET} ${SOURCE}'
p3489
asS'ppu'
p3490
(lp3491
S'.a'
p3492
aS'echo PPU Assembling(SNC) ${SOURCE}...'
p3493
aS'c:/marmalade/7.5/s3e\\rvct\\bin\\armasm -o ${TARGET} ${SOURCE}'
p3494
assS'.s'
p3495
g3477
sS'.vp'
p3496
(lp3497
NaS'"C:/Marmalade/7.5/s3e/python/python.exe" "c:/marmalade/7.5/modules/iwgx/tools/compile_shaders.py" ${SOURCE}'
p3498
asssS'extproject_names'
p3499
(lp3500
sbtp3501
.