	.arch armv6
	.fpu softvfp
	.eabi_attribute 20, 1
	.eabi_attribute 21, 1
	.eabi_attribute 23, 3
	.eabi_attribute 24, 1
	.eabi_attribute 25, 1
	.eabi_attribute 26, 2
	.eabi_attribute 30, 6
	.eabi_attribute 34, 1
	.eabi_attribute 18, 2
	.file	"AmazingMaze.cpp"
	.text
.Ltext0:
	.cfi_sections	.debug_frame
	.section	.text._ZnwjPv,"axG",%progbits,_ZnwjPv,comdat
	.align	2
	.weak	_ZnwjPv
	.hidden	_ZnwjPv
	.type	_ZnwjPv, %function
_ZnwjPv:
.LFB20:
	.file 1 "c:/marmalade/7.5/s3e/h/std/c++/new.h"
	.loc 1 52 0
	.cfi_startproc
	@ args = 0, pretend = 0, frame = 8
	@ frame_needed = 0, uses_anonymous_args = 0
	@ link register save eliminated.
	sub	sp, sp, #8
.LCFI0:
	.cfi_def_cfa_offset 8
	str	r0, [sp, #4]
	str	r1, [sp]
	.loc 1 52 0
	ldr	r3, [sp]
	mov	r0, r3
	add	sp, sp, #8
	@ sp needed
	bx	lr
	.cfi_endproc
.LFE20:
	.size	_ZnwjPv, .-_ZnwjPv
	.section	.text._ZN4_STL16_STLP_mutex_base13_M_initializeEv,"axG",%progbits,_ZN4_STL16_STLP_mutex_base13_M_initializeEv,comdat
	.align	2
	.weak	_ZN4_STL16_STLP_mutex_base13_M_initializeEv
	.hidden	_ZN4_STL16_STLP_mutex_base13_M_initializeEv
	.type	_ZN4_STL16_STLP_mutex_base13_M_initializeEv, %function
_ZN4_STL16_STLP_mutex_base13_M_initializeEv:
.LFB26:
	.file 2 "c:/marmalade/7.5/s3e/h/std/c++/stl/_threads.h"
	.loc 2 441 0
	.cfi_startproc
	@ args = 0, pretend = 0, frame = 8
	@ frame_needed = 0, uses_anonymous_args = 0
	@ link register save eliminated.
	sub	sp, sp, #8
.LCFI1:
	.cfi_def_cfa_offset 8
	str	r0, [sp, #4]
	.loc 2 441 0
	add	sp, sp, #8
	@ sp needed
	bx	lr
	.cfi_endproc
.LFE26:
	.size	_ZN4_STL16_STLP_mutex_base13_M_initializeEv, .-_ZN4_STL16_STLP_mutex_base13_M_initializeEv
	.section	.text._ZN4_STL16_STLP_mutex_base10_M_destroyEv,"axG",%progbits,_ZN4_STL16_STLP_mutex_base10_M_destroyEv,comdat
	.align	2
	.weak	_ZN4_STL16_STLP_mutex_base10_M_destroyEv
	.hidden	_ZN4_STL16_STLP_mutex_base10_M_destroyEv
	.type	_ZN4_STL16_STLP_mutex_base10_M_destroyEv, %function
_ZN4_STL16_STLP_mutex_base10_M_destroyEv:
.LFB27:
	.loc 2 442 0
	.cfi_startproc
	@ args = 0, pretend = 0, frame = 8
	@ frame_needed = 0, uses_anonymous_args = 0
	@ link register save eliminated.
	sub	sp, sp, #8
.LCFI2:
	.cfi_def_cfa_offset 8
	str	r0, [sp, #4]
	.loc 2 442 0
	add	sp, sp, #8
	@ sp needed
	bx	lr
	.cfi_endproc
.LFE27:
	.size	_ZN4_STL16_STLP_mutex_base10_M_destroyEv, .-_ZN4_STL16_STLP_mutex_base10_M_destroyEv
	.section	.text._ZN4_STL16_STLP_mutex_baseC2Ev,"axG",%progbits,_ZN4_STL16_STLP_mutex_baseC5Ev,comdat
	.align	2
	.weak	_ZN4_STL16_STLP_mutex_baseC2Ev
	.hidden	_ZN4_STL16_STLP_mutex_baseC2Ev
	.type	_ZN4_STL16_STLP_mutex_baseC2Ev, %function
_ZN4_STL16_STLP_mutex_baseC2Ev:
.LFB32:
	.loc 2 311 0
	.cfi_startproc
	@ args = 0, pretend = 0, frame = 8
	@ frame_needed = 0, uses_anonymous_args = 0
	@ link register save eliminated.
	sub	sp, sp, #8
.LCFI3:
	.cfi_def_cfa_offset 8
	str	r0, [sp, #4]
	.loc 2 311 0
	ldr	r3, [sp, #4]
	mov	r0, r3
	add	sp, sp, #8
	@ sp needed
	bx	lr
	.cfi_endproc
.LFE32:
	.size	_ZN4_STL16_STLP_mutex_baseC2Ev, .-_ZN4_STL16_STLP_mutex_baseC2Ev
	.weak	_ZN4_STL16_STLP_mutex_baseC1Ev
	.hidden	_ZN4_STL16_STLP_mutex_baseC1Ev
	.set	_ZN4_STL16_STLP_mutex_baseC1Ev,_ZN4_STL16_STLP_mutex_baseC2Ev
	.section	.text._ZN4_STL11_STLP_mutexC2Ev,"axG",%progbits,_ZN4_STL11_STLP_mutexC5Ev,comdat
	.align	2
	.weak	_ZN4_STL11_STLP_mutexC2Ev
	.hidden	_ZN4_STL11_STLP_mutexC2Ev
	.type	_ZN4_STL11_STLP_mutexC2Ev, %function
_ZN4_STL11_STLP_mutexC2Ev:
.LFB34:
	.loc 2 466 0
	.cfi_startproc
	@ args = 0, pretend = 0, frame = 8
	@ frame_needed = 0, uses_anonymous_args = 0
	str	lr, [sp, #-4]!
.LCFI4:
	.cfi_def_cfa_offset 4
	.cfi_offset 14, -4
	sub	sp, sp, #12
.LCFI5:
	.cfi_def_cfa_offset 16
	str	r0, [sp, #4]
.LBB2:
	.loc 2 466 0
	ldr	r0, [sp, #4]
	bl	_ZN4_STL16_STLP_mutex_baseC2Ev(PLT)
	ldr	r0, [sp, #4]
	bl	_ZN4_STL16_STLP_mutex_base13_M_initializeEv(PLT)
.LBE2:
	ldr	r3, [sp, #4]
	mov	r0, r3
	add	sp, sp, #12
	@ sp needed
	ldr	pc, [sp], #4
	.cfi_endproc
.LFE34:
	.size	_ZN4_STL11_STLP_mutexC2Ev, .-_ZN4_STL11_STLP_mutexC2Ev
	.weak	_ZN4_STL11_STLP_mutexC1Ev
	.hidden	_ZN4_STL11_STLP_mutexC1Ev
	.set	_ZN4_STL11_STLP_mutexC1Ev,_ZN4_STL11_STLP_mutexC2Ev
	.section	.text._ZN4_STL11_STLP_mutexD2Ev,"axG",%progbits,_ZN4_STL11_STLP_mutexD5Ev,comdat
	.align	2
	.weak	_ZN4_STL11_STLP_mutexD2Ev
	.hidden	_ZN4_STL11_STLP_mutexD2Ev
	.type	_ZN4_STL11_STLP_mutexD2Ev, %function
_ZN4_STL11_STLP_mutexD2Ev:
.LFB37:
	.loc 2 467 0
	.cfi_startproc
	@ args = 0, pretend = 0, frame = 8
	@ frame_needed = 0, uses_anonymous_args = 0
	str	lr, [sp, #-4]!
.LCFI6:
	.cfi_def_cfa_offset 4
	.cfi_offset 14, -4
	sub	sp, sp, #12
.LCFI7:
	.cfi_def_cfa_offset 16
	str	r0, [sp, #4]
.LBB3:
	.loc 2 467 0
	ldr	r0, [sp, #4]
	bl	_ZN4_STL16_STLP_mutex_base10_M_destroyEv(PLT)
.LBE3:
	ldr	r3, [sp, #4]
	mov	r0, r3
	add	sp, sp, #12
	@ sp needed
	ldr	pc, [sp], #4
	.cfi_endproc
.LFE37:
	.size	_ZN4_STL11_STLP_mutexD2Ev, .-_ZN4_STL11_STLP_mutexD2Ev
	.weak	_ZN4_STL11_STLP_mutexD1Ev
	.hidden	_ZN4_STL11_STLP_mutexD1Ev
	.set	_ZN4_STL11_STLP_mutexD1Ev,_ZN4_STL11_STLP_mutexD2Ev
	.section	.text._ZN4_STL8_DestroyEPcS0_,"axG",%progbits,_ZN4_STL8_DestroyEPcS0_,comdat
	.align	2
	.weak	_ZN4_STL8_DestroyEPcS0_
	.hidden	_ZN4_STL8_DestroyEPcS0_
	.type	_ZN4_STL8_DestroyEPcS0_, %function
_ZN4_STL8_DestroyEPcS0_:
.LFB80:
	.file 3 "c:/marmalade/7.5/s3e/h/std/c++/stl/_construct.h"
	.loc 3 142 0
	.cfi_startproc
	@ args = 0, pretend = 0, frame = 8
	@ frame_needed = 0, uses_anonymous_args = 0
	@ link register save eliminated.
	sub	sp, sp, #8
.LCFI8:
	.cfi_def_cfa_offset 8
	str	r0, [sp, #4]
	str	r1, [sp]
	.loc 3 142 0
	add	sp, sp, #8
	@ sp needed
	bx	lr
	.cfi_endproc
.LFE80:
	.size	_ZN4_STL8_DestroyEPcS0_, .-_ZN4_STL8_DestroyEPcS0_
	.section	.text._ZN4_STL14__copy_trivialEPKvS1_Pv,"axG",%progbits,_ZN4_STL14__copy_trivialEPKvS1_Pv,comdat
	.align	2
	.weak	_ZN4_STL14__copy_trivialEPKvS1_Pv
	.hidden	_ZN4_STL14__copy_trivialEPKvS1_Pv
	.type	_ZN4_STL14__copy_trivialEPKvS1_Pv, %function
_ZN4_STL14__copy_trivialEPKvS1_Pv:
.LFB142:
	.file 4 "c:/marmalade/7.5/s3e/h/std/c++/stl/_algobase.h"
	.loc 4 147 0
	.cfi_startproc
	@ args = 0, pretend = 0, frame = 16
	@ frame_needed = 0, uses_anonymous_args = 0
	str	lr, [sp, #-4]!
.LCFI9:
	.cfi_def_cfa_offset 4
	.cfi_offset 14, -4
	sub	sp, sp, #20
.LCFI10:
	.cfi_def_cfa_offset 24
	str	r0, [sp, #12]
	str	r1, [sp, #8]
	str	r2, [sp, #4]
	.loc 4 150 0
	ldr	r2, [sp, #8]
	ldr	r3, [sp, #12]
	cmp	r2, r3
	beq	.L16
	.loc 4 149 0
	ldr	r2, [sp, #8]
	ldr	r3, [sp, #12]
	rsb	r3, r3, r2
	ldr	r0, [sp, #4]
	ldr	r1, [sp, #12]
	mov	r2, r3
	bl	memmove(PLT)
	mov	r2, r0
	.loc 4 150 0
	ldr	r1, [sp, #8]
	ldr	r3, [sp, #12]
	rsb	r3, r3, r1
	add	r3, r2, r3
	b	.L17
.L16:
	.loc 4 150 0 is_stmt 0 discriminator 1
	ldr	r3, [sp, #4]
.L17:
	.loc 4 151 0 is_stmt 1 discriminator 2
	mov	r0, r3
	add	sp, sp, #20
	@ sp needed
	ldr	pc, [sp], #4
	.cfi_endproc
.LFE142:
	.size	_ZN4_STL14__copy_trivialEPKvS1_Pv, .-_ZN4_STL14__copy_trivialEPKvS1_Pv
	.section	.text._ZN4_STL4fillEPcS0_RKc,"axG",%progbits,_ZN4_STL4fillEPcS0_RKc,comdat
	.align	2
	.weak	_ZN4_STL4fillEPcS0_RKc
	.hidden	_ZN4_STL4fillEPcS0_RKc
	.type	_ZN4_STL4fillEPcS0_RKc, %function
_ZN4_STL4fillEPcS0_RKc:
.LFB164:
	.loc 4 354 0
	.cfi_startproc
	@ args = 0, pretend = 0, frame = 24
	@ frame_needed = 0, uses_anonymous_args = 0
	str	lr, [sp, #-4]!
.LCFI11:
	.cfi_def_cfa_offset 4
	.cfi_offset 14, -4
	sub	sp, sp, #28
.LCFI12:
	.cfi_def_cfa_offset 32
	str	r0, [sp, #12]
	str	r1, [sp, #8]
	str	r2, [sp, #4]
.LBB4:
	.loc 4 355 0
	ldr	r3, [sp, #4]
	ldrb	r3, [r3]
	strb	r3, [sp, #23]
	.loc 4 356 0
	ldrb	r2, [sp, #23]	@ zero_extendqisi2
	ldr	r1, [sp, #8]
	ldr	r3, [sp, #12]
	rsb	r3, r3, r1
	ldr	r0, [sp, #12]
	mov	r1, r2
	mov	r2, r3
	bl	memset(PLT)
.LBE4:
	.loc 4 357 0
	add	sp, sp, #28
	@ sp needed
	ldr	pc, [sp], #4
	.cfi_endproc
.LFE164:
	.size	_ZN4_STL4fillEPcS0_RKc, .-_ZN4_STL4fillEPcS0_RKc
	.section	.text._ZN4_STL18uninitialized_copyEPKcS1_Pc,"axG",%progbits,_ZN4_STL18uninitialized_copyEPKcS1_Pc,comdat
	.align	2
	.weak	_ZN4_STL18uninitialized_copyEPKcS1_Pc
	.hidden	_ZN4_STL18uninitialized_copyEPKcS1_Pc
	.type	_ZN4_STL18uninitialized_copyEPKcS1_Pc, %function
_ZN4_STL18uninitialized_copyEPKcS1_Pc:
.LFB241:
	.file 5 "c:/marmalade/7.5/s3e/h/std/c++/stl/_uninitialized.h"
	.loc 5 83 0
	.cfi_startproc
	@ args = 0, pretend = 0, frame = 16
	@ frame_needed = 0, uses_anonymous_args = 0
	str	lr, [sp, #-4]!
.LCFI13:
	.cfi_def_cfa_offset 4
	.cfi_offset 14, -4
	sub	sp, sp, #20
.LCFI14:
	.cfi_def_cfa_offset 24
	str	r0, [sp, #12]
	str	r1, [sp, #8]
	str	r2, [sp, #4]
	.loc 5 84 0
	ldr	r0, [sp, #12]
	ldr	r1, [sp, #8]
	ldr	r2, [sp, #4]
	bl	_ZN4_STL14__copy_trivialEPKvS1_Pv(PLT)
	mov	r3, r0
	.loc 5 85 0
	mov	r0, r3
	add	sp, sp, #20
	@ sp needed
	ldr	pc, [sp], #4
	.cfi_endproc
.LFE241:
	.size	_ZN4_STL18uninitialized_copyEPKcS1_Pc, .-_ZN4_STL18uninitialized_copyEPKcS1_Pc
	.section	.text._ZN4_STL11char_traitsIcE12to_char_typeERKi,"axG",%progbits,_ZN4_STL11char_traitsIcE12to_char_typeERKi,comdat
	.align	2
	.weak	_ZN4_STL11char_traitsIcE12to_char_typeERKi
	.hidden	_ZN4_STL11char_traitsIcE12to_char_typeERKi
	.type	_ZN4_STL11char_traitsIcE12to_char_typeERKi, %function
_ZN4_STL11char_traitsIcE12to_char_typeERKi:
.LFB323:
	.file 6 "c:/marmalade/7.5/s3e/h/std/c++/stl/char_traits.h"
	.loc 6 227 0
	.cfi_startproc
	@ args = 0, pretend = 0, frame = 8
	@ frame_needed = 0, uses_anonymous_args = 0
	@ link register save eliminated.
	sub	sp, sp, #8
.LCFI15:
	.cfi_def_cfa_offset 8
	str	r0, [sp, #4]
	.loc 6 228 0
	ldr	r3, [sp, #4]
	ldr	r3, [r3]
	uxtb	r3, r3
	.loc 6 229 0
	mov	r0, r3
	add	sp, sp, #8
	@ sp needed
	bx	lr
	.cfi_endproc
.LFE323:
	.size	_ZN4_STL11char_traitsIcE12to_char_typeERKi, .-_ZN4_STL11char_traitsIcE12to_char_typeERKi
	.section	.text._ZN4_STL11char_traitsIcE11to_int_typeERKc,"axG",%progbits,_ZN4_STL11char_traitsIcE11to_int_typeERKc,comdat
	.align	2
	.weak	_ZN4_STL11char_traitsIcE11to_int_typeERKc
	.hidden	_ZN4_STL11char_traitsIcE11to_int_typeERKc
	.type	_ZN4_STL11char_traitsIcE11to_int_typeERKc, %function
_ZN4_STL11char_traitsIcE11to_int_typeERKc:
.LFB324:
	.loc 6 231 0
	.cfi_startproc
	@ args = 0, pretend = 0, frame = 8
	@ frame_needed = 0, uses_anonymous_args = 0
	@ link register save eliminated.
	sub	sp, sp, #8
.LCFI16:
	.cfi_def_cfa_offset 8
	str	r0, [sp, #4]
	.loc 6 232 0
	ldr	r3, [sp, #4]
	ldrb	r3, [r3]	@ zero_extendqisi2
	.loc 6 233 0
	mov	r0, r3
	add	sp, sp, #8
	@ sp needed
	bx	lr
	.cfi_endproc
.LFE324:
	.size	_ZN4_STL11char_traitsIcE11to_int_typeERKc, .-_ZN4_STL11char_traitsIcE11to_int_typeERKc
	.section	.text._ZN4_STL11char_traitsIcE6assignERcRKc,"axG",%progbits,_ZN4_STL11char_traitsIcE6assignERcRKc,comdat
	.align	2
	.weak	_ZN4_STL11char_traitsIcE6assignERcRKc
	.hidden	_ZN4_STL11char_traitsIcE6assignERcRKc
	.type	_ZN4_STL11char_traitsIcE6assignERcRKc, %function
_ZN4_STL11char_traitsIcE6assignERcRKc:
.LFB327:
	.loc 6 240 0
	.cfi_startproc
	@ args = 0, pretend = 0, frame = 8
	@ frame_needed = 0, uses_anonymous_args = 0
	@ link register save eliminated.
	sub	sp, sp, #8
.LCFI17:
	.cfi_def_cfa_offset 8
	str	r0, [sp, #4]
	str	r1, [sp]
	.loc 6 240 0
	ldr	r3, [sp]
	ldrb	r2, [r3]	@ zero_extendqisi2
	ldr	r3, [sp, #4]
	strb	r2, [r3]
	add	sp, sp, #8
	@ sp needed
	bx	lr
	.cfi_endproc
.LFE327:
	.size	_ZN4_STL11char_traitsIcE6assignERcRKc, .-_ZN4_STL11char_traitsIcE6assignERcRKc
	.section	.text._ZN4_STL11char_traitsIcE6assignEPcjc,"axG",%progbits,_ZN4_STL11char_traitsIcE6assignEPcjc,comdat
	.align	2
	.weak	_ZN4_STL11char_traitsIcE6assignEPcjc
	.hidden	_ZN4_STL11char_traitsIcE6assignEPcjc
	.type	_ZN4_STL11char_traitsIcE6assignEPcjc, %function
_ZN4_STL11char_traitsIcE6assignEPcjc:
.LFB328:
	.loc 6 242 0
	.cfi_startproc
	@ args = 0, pretend = 0, frame = 16
	@ frame_needed = 0, uses_anonymous_args = 0
	str	lr, [sp, #-4]!
.LCFI18:
	.cfi_def_cfa_offset 4
	.cfi_offset 14, -4
	sub	sp, sp, #20
.LCFI19:
	.cfi_def_cfa_offset 24
	str	r0, [sp, #12]
	str	r1, [sp, #8]
	mov	r3, r2
	strb	r3, [sp, #7]
	.loc 6 243 0
	ldrb	r3, [sp, #7]	@ zero_extendqisi2
	ldr	r0, [sp, #12]
	mov	r1, r3
	ldr	r2, [sp, #8]
	bl	memset(PLT)
	ldr	r3, [sp, #12]
	mov	r0, r3
	add	sp, sp, #20
	@ sp needed
	ldr	pc, [sp], #4
	.cfi_endproc
.LFE328:
	.size	_ZN4_STL11char_traitsIcE6assignEPcjc, .-_ZN4_STL11char_traitsIcE6assignEPcjc
	.section	.text._ZNK4_STL5ctypeIcE2isENS_10ctype_base4maskEc,"axG",%progbits,_ZNK4_STL5ctypeIcE2isENS_10ctype_base4maskEc,comdat
	.align	2
	.weak	_ZNK4_STL5ctypeIcE2isENS_10ctype_base4maskEc
	.hidden	_ZNK4_STL5ctypeIcE2isENS_10ctype_base4maskEc
	.type	_ZNK4_STL5ctypeIcE2isENS_10ctype_base4maskEc, %function
_ZNK4_STL5ctypeIcE2isENS_10ctype_base4maskEc:
.LFB639:
	.file 7 "c:/marmalade/7.5/s3e/h/std/c++/stl/_ctype.h"
	.loc 7 79 0
	.cfi_startproc
	@ args = 0, pretend = 0, frame = 16
	@ frame_needed = 0, uses_anonymous_args = 0
	@ link register save eliminated.
	sub	sp, sp, #16
.LCFI20:
	.cfi_def_cfa_offset 16
	str	r0, [sp, #12]
	str	r1, [sp, #8]
	mov	r3, r2
	strb	r3, [sp, #7]
	.loc 7 80 0
	ldr	r3, [sp, #12]
	ldr	r2, [r3, #12]
	ldrb	r3, [sp, #7]	@ zero_extendqisi2
	mov	r3, r3, asl #2
	add	r3, r2, r3
	ldr	r3, [r3]
	mov	r2, r3
	ldr	r3, [sp, #8]
	and	r3, r2, r3
	cmp	r3, #0
	moveq	r3, #0
	movne	r3, #1
	uxtb	r3, r3
	mov	r0, r3
	add	sp, sp, #16
	@ sp needed
	bx	lr
	.cfi_endproc
.LFE639:
	.size	_ZNK4_STL5ctypeIcE2isENS_10ctype_base4maskEc, .-_ZNK4_STL5ctypeIcE2isENS_10ctype_base4maskEc
	.section	.text._ZNK4_STL5ctypeIcE5widenEc,"axG",%progbits,_ZNK4_STL5ctypeIcE5widenEc,comdat
	.align	2
	.weak	_ZNK4_STL5ctypeIcE5widenEc
	.hidden	_ZNK4_STL5ctypeIcE5widenEc
	.type	_ZNK4_STL5ctypeIcE5widenEc, %function
_ZNK4_STL5ctypeIcE5widenEc:
.LFB645:
	.loc 7 102 0
	.cfi_startproc
	@ args = 0, pretend = 0, frame = 8
	@ frame_needed = 0, uses_anonymous_args = 0
	str	lr, [sp, #-4]!
.LCFI21:
	.cfi_def_cfa_offset 4
	.cfi_offset 14, -4
	sub	sp, sp, #12
.LCFI22:
	.cfi_def_cfa_offset 16
	str	r0, [sp, #4]
	mov	r3, r1
	strb	r3, [sp, #3]
	.loc 7 102 0
	ldr	r3, [sp, #4]
	ldr	r3, [r3]
	add	r3, r3, #24
	ldr	r3, [r3]
	ldrb	r2, [sp, #3]	@ zero_extendqisi2
	ldr	r0, [sp, #4]
	mov	r1, r2
	blx	r3
	mov	r3, r0
	mov	r0, r3
	add	sp, sp, #12
	@ sp needed
	ldr	pc, [sp], #4
	.cfi_endproc
.LFE645:
	.size	_ZNK4_STL5ctypeIcE5widenEc, .-_ZNK4_STL5ctypeIcE5widenEc
	.section	.text._ZNK4_STL8ios_base5flagsEv,"axG",%progbits,_ZNK4_STL8ios_base5flagsEv,comdat
	.align	2
	.weak	_ZNK4_STL8ios_base5flagsEv
	.hidden	_ZNK4_STL8ios_base5flagsEv
	.type	_ZNK4_STL8ios_base5flagsEv, %function
_ZNK4_STL8ios_base5flagsEv:
.LFB720:
	.file 8 "c:/marmalade/7.5/s3e/h/std/c++/stl/_ios_base.h"
	.loc 8 115 0
	.cfi_startproc
	@ args = 0, pretend = 0, frame = 8
	@ frame_needed = 0, uses_anonymous_args = 0
	@ link register save eliminated.
	sub	sp, sp, #8
.LCFI23:
	.cfi_def_cfa_offset 8
	str	r0, [sp, #4]
	.loc 8 115 0
	ldr	r3, [sp, #4]
	ldr	r3, [r3, #4]
	mov	r0, r3
	add	sp, sp, #8
	@ sp needed
	bx	lr
	.cfi_endproc
.LFE720:
	.size	_ZNK4_STL8ios_base5flagsEv, .-_ZNK4_STL8ios_base5flagsEv
	.section	.text._ZN4_STL8ios_base5flagsEi,"axG",%progbits,_ZN4_STL8ios_base5flagsEi,comdat
	.align	2
	.weak	_ZN4_STL8ios_base5flagsEi
	.hidden	_ZN4_STL8ios_base5flagsEi
	.type	_ZN4_STL8ios_base5flagsEi, %function
_ZN4_STL8ios_base5flagsEi:
.LFB721:
	.loc 8 116 0
	.cfi_startproc
	@ args = 0, pretend = 0, frame = 16
	@ frame_needed = 0, uses_anonymous_args = 0
	@ link register save eliminated.
	sub	sp, sp, #16
.LCFI24:
	.cfi_def_cfa_offset 16
	str	r0, [sp, #4]
	str	r1, [sp]
.LBB5:
	.loc 8 117 0
	ldr	r3, [sp, #4]
	ldr	r3, [r3, #4]
	str	r3, [sp, #12]
	.loc 8 118 0
	ldr	r3, [sp, #4]
	ldr	r2, [sp]
	str	r2, [r3, #4]
	.loc 8 119 0
	ldr	r3, [sp, #12]
.LBE5:
	.loc 8 120 0
	mov	r0, r3
	add	sp, sp, #16
	@ sp needed
	bx	lr
	.cfi_endproc
.LFE721:
	.size	_ZN4_STL8ios_base5flagsEi, .-_ZN4_STL8ios_base5flagsEi
	.section	.text._ZN4_STL8ios_base9precisionEi,"axG",%progbits,_ZN4_STL8ios_base9precisionEi,comdat
	.align	2
	.weak	_ZN4_STL8ios_base9precisionEi
	.hidden	_ZN4_STL8ios_base9precisionEi
	.type	_ZN4_STL8ios_base9precisionEi, %function
_ZN4_STL8ios_base9precisionEi:
.LFB726:
	.loc 8 136 0
	.cfi_startproc
	@ args = 0, pretend = 0, frame = 16
	@ frame_needed = 0, uses_anonymous_args = 0
	@ link register save eliminated.
	sub	sp, sp, #16
.LCFI25:
	.cfi_def_cfa_offset 16
	str	r0, [sp, #4]
	str	r1, [sp]
.LBB6:
	.loc 8 137 0
	ldr	r3, [sp, #4]
	ldr	r3, [r3, #24]
	str	r3, [sp, #12]
	.loc 8 138 0
	ldr	r3, [sp, #4]
	ldr	r2, [sp]
	str	r2, [r3, #24]
	.loc 8 139 0
	ldr	r3, [sp, #12]
.LBE6:
	.loc 8 140 0
	mov	r0, r3
	add	sp, sp, #16
	@ sp needed
	bx	lr
	.cfi_endproc
.LFE726:
	.size	_ZN4_STL8ios_base9precisionEi, .-_ZN4_STL8ios_base9precisionEi
	.section	.text._ZN4_STL8ios_base5widthEi,"axG",%progbits,_ZN4_STL8ios_base5widthEi,comdat
	.align	2
	.weak	_ZN4_STL8ios_base5widthEi
	.hidden	_ZN4_STL8ios_base5widthEi
	.type	_ZN4_STL8ios_base5widthEi, %function
_ZN4_STL8ios_base5widthEi:
.LFB728:
	.loc 8 143 0
	.cfi_startproc
	@ args = 0, pretend = 0, frame = 16
	@ frame_needed = 0, uses_anonymous_args = 0
	@ link register save eliminated.
	sub	sp, sp, #16
.LCFI26:
	.cfi_def_cfa_offset 16
	str	r0, [sp, #4]
	str	r1, [sp]
.LBB7:
	.loc 8 144 0
	ldr	r3, [sp, #4]
	ldr	r3, [r3, #28]
	str	r3, [sp, #12]
	.loc 8 145 0
	ldr	r3, [sp, #4]
	ldr	r2, [sp]
	str	r2, [r3, #28]
	.loc 8 146 0
	ldr	r3, [sp, #12]
.LBE7:
	.loc 8 147 0
	mov	r0, r3
	add	sp, sp, #16
	@ sp needed
	bx	lr
	.cfi_endproc
.LFE728:
	.size	_ZN4_STL8ios_base5widthEi, .-_ZN4_STL8ios_base5widthEi
	.section	.text._ZNK4_STL8ios_base6getlocEv,"axG",%progbits,_ZNK4_STL8ios_base6getlocEv,comdat
	.align	2
	.weak	_ZNK4_STL8ios_base6getlocEv
	.hidden	_ZNK4_STL8ios_base6getlocEv
	.type	_ZNK4_STL8ios_base6getlocEv, %function
_ZNK4_STL8ios_base6getlocEv:
.LFB729:
	.loc 8 151 0
	.cfi_startproc
	@ args = 0, pretend = 0, frame = 8
	@ frame_needed = 0, uses_anonymous_args = 0
	str	lr, [sp, #-4]!
.LCFI27:
	.cfi_def_cfa_offset 4
	.cfi_offset 14, -4
	sub	sp, sp, #12
.LCFI28:
	.cfi_def_cfa_offset 16
	str	r0, [sp, #4]
	str	r1, [sp]
	.loc 8 151 0
	ldr	r3, [sp]
	add	r3, r3, #32
	ldr	r0, [sp, #4]
	mov	r1, r3
	bl	_ZN4_STL6localeC1ERKS0_(PLT)
	ldr	r0, [sp, #4]
	add	sp, sp, #12
	@ sp needed
	ldr	pc, [sp], #4
	.cfi_endproc
.LFE729:
	.size	_ZNK4_STL8ios_base6getlocEv, .-_ZNK4_STL8ios_base6getlocEv
	.section	.text._ZNK4_STL8ios_basecvPvEv,"axG",%progbits,_ZNK4_STL8ios_basecvPvEv,comdat
	.align	2
	.weak	_ZNK4_STL8ios_basecvPvEv
	.hidden	_ZNK4_STL8ios_basecvPvEv
	.type	_ZNK4_STL8ios_basecvPvEv, %function
_ZNK4_STL8ios_basecvPvEv:
.LFB730:
	.loc 8 175 0
	.cfi_startproc
	@ args = 0, pretend = 0, frame = 8
	@ frame_needed = 0, uses_anonymous_args = 0
	str	lr, [sp, #-4]!
.LCFI29:
	.cfi_def_cfa_offset 4
	.cfi_offset 14, -4
	sub	sp, sp, #12
.LCFI30:
	.cfi_def_cfa_offset 16
	str	r0, [sp, #4]
	.loc 8 175 0
	ldr	r0, [sp, #4]
	bl	_ZNK4_STL8ios_base4failEv(PLT)
	mov	r3, r0
	eor	r3, r3, #1
	uxtb	r3, r3
	cmp	r3, #0
	beq	.L44
	.loc 8 175 0 is_stmt 0 discriminator 1
	ldr	r3, [sp, #4]
	b	.L45
.L44:
	.loc 8 175 0 discriminator 2
	mov	r3, #0
.L45:
	.loc 8 175 0 discriminator 3
	mov	r0, r3
	add	sp, sp, #12
	@ sp needed
	ldr	pc, [sp], #4
	.cfi_endproc
.LFE730:
	.size	_ZNK4_STL8ios_basecvPvEv, .-_ZNK4_STL8ios_basecvPvEv
	.section	.text._ZNK4_STL8ios_base7rdstateEv,"axG",%progbits,_ZNK4_STL8ios_base7rdstateEv,comdat
	.align	2
	.weak	_ZNK4_STL8ios_base7rdstateEv
	.hidden	_ZNK4_STL8ios_base7rdstateEv
	.type	_ZNK4_STL8ios_base7rdstateEv, %function
_ZNK4_STL8ios_base7rdstateEv:
.LFB732:
	.loc 8 178 0 is_stmt 1
	.cfi_startproc
	@ args = 0, pretend = 0, frame = 8
	@ frame_needed = 0, uses_anonymous_args = 0
	@ link register save eliminated.
	sub	sp, sp, #8
.LCFI31:
	.cfi_def_cfa_offset 8
	str	r0, [sp, #4]
	.loc 8 178 0
	ldr	r3, [sp, #4]
	ldr	r3, [r3, #8]
	mov	r0, r3
	add	sp, sp, #8
	@ sp needed
	bx	lr
	.cfi_endproc
.LFE732:
	.size	_ZNK4_STL8ios_base7rdstateEv, .-_ZNK4_STL8ios_base7rdstateEv
	.section	.text._ZNK4_STL8ios_base4goodEv,"axG",%progbits,_ZNK4_STL8ios_base4goodEv,comdat
	.align	2
	.weak	_ZNK4_STL8ios_base4goodEv
	.hidden	_ZNK4_STL8ios_base4goodEv
	.type	_ZNK4_STL8ios_base4goodEv, %function
_ZNK4_STL8ios_base4goodEv:
.LFB733:
	.loc 8 180 0
	.cfi_startproc
	@ args = 0, pretend = 0, frame = 8
	@ frame_needed = 0, uses_anonymous_args = 0
	@ link register save eliminated.
	sub	sp, sp, #8
.LCFI32:
	.cfi_def_cfa_offset 8
	str	r0, [sp, #4]
	.loc 8 180 0
	ldr	r3, [sp, #4]
	ldr	r3, [r3, #8]
	cmp	r3, #0
	movne	r3, #0
	moveq	r3, #1
	uxtb	r3, r3
	mov	r0, r3
	add	sp, sp, #8
	@ sp needed
	bx	lr
	.cfi_endproc
.LFE733:
	.size	_ZNK4_STL8ios_base4goodEv, .-_ZNK4_STL8ios_base4goodEv
	.section	.text._ZNK4_STL8ios_base4failEv,"axG",%progbits,_ZNK4_STL8ios_base4failEv,comdat
	.align	2
	.weak	_ZNK4_STL8ios_base4failEv
	.hidden	_ZNK4_STL8ios_base4failEv
	.type	_ZNK4_STL8ios_base4failEv, %function
_ZNK4_STL8ios_base4failEv:
.LFB735:
	.loc 8 182 0
	.cfi_startproc
	@ args = 0, pretend = 0, frame = 8
	@ frame_needed = 0, uses_anonymous_args = 0
	@ link register save eliminated.
	sub	sp, sp, #8
.LCFI33:
	.cfi_def_cfa_offset 8
	str	r0, [sp, #4]
	.loc 8 182 0
	ldr	r3, [sp, #4]
	ldr	r3, [r3, #8]
	and	r3, r3, #5
	cmp	r3, #0
	moveq	r3, #0
	movne	r3, #1
	uxtb	r3, r3
	mov	r0, r3
	add	sp, sp, #8
	@ sp needed
	bx	lr
	.cfi_endproc
.LFE735:
	.size	_ZNK4_STL8ios_base4failEv, .-_ZNK4_STL8ios_base4failEv
	.section	.text._ZN4_STL8ios_base16_M_clear_nothrowEi,"axG",%progbits,_ZN4_STL8ios_base16_M_clear_nothrowEi,comdat
	.align	2
	.weak	_ZN4_STL8ios_base16_M_clear_nothrowEi
	.hidden	_ZN4_STL8ios_base16_M_clear_nothrowEi
	.type	_ZN4_STL8ios_base16_M_clear_nothrowEi, %function
_ZN4_STL8ios_base16_M_clear_nothrowEi:
.LFB738:
	.loc 8 194 0
	.cfi_startproc
	@ args = 0, pretend = 0, frame = 8
	@ frame_needed = 0, uses_anonymous_args = 0
	@ link register save eliminated.
	sub	sp, sp, #8
.LCFI34:
	.cfi_def_cfa_offset 8
	str	r0, [sp, #4]
	str	r1, [sp]
	.loc 8 194 0
	ldr	r3, [sp, #4]
	ldr	r2, [sp]
	str	r2, [r3, #8]
	add	sp, sp, #8
	@ sp needed
	bx	lr
	.cfi_endproc
.LFE738:
	.size	_ZN4_STL8ios_base16_M_clear_nothrowEi, .-_ZN4_STL8ios_base16_M_clear_nothrowEi
	.section	.text._ZN4_STL8ios_base21_M_set_exception_maskEi,"axG",%progbits,_ZN4_STL8ios_base21_M_set_exception_maskEi,comdat
	.align	2
	.weak	_ZN4_STL8ios_base21_M_set_exception_maskEi
	.hidden	_ZN4_STL8ios_base21_M_set_exception_maskEi
	.type	_ZN4_STL8ios_base21_M_set_exception_maskEi, %function
_ZN4_STL8ios_base21_M_set_exception_maskEi:
.LFB740:
	.loc 8 196 0
	.cfi_startproc
	@ args = 0, pretend = 0, frame = 8
	@ frame_needed = 0, uses_anonymous_args = 0
	@ link register save eliminated.
	sub	sp, sp, #8
.LCFI35:
	.cfi_def_cfa_offset 8
	str	r0, [sp, #4]
	str	r1, [sp]
	.loc 8 196 0
	ldr	r3, [sp, #4]
	ldr	r2, [sp]
	str	r2, [r3, #20]
	add	sp, sp, #8
	@ sp needed
	bx	lr
	.cfi_endproc
.LFE740:
	.size	_ZN4_STL8ios_base21_M_set_exception_maskEi, .-_ZN4_STL8ios_base21_M_set_exception_maskEi
	.section	.text._ZN4_STL8ios_base23_M_check_exception_maskEv,"axG",%progbits,_ZN4_STL8ios_base23_M_check_exception_maskEv,comdat
	.align	2
	.weak	_ZN4_STL8ios_base23_M_check_exception_maskEv
	.hidden	_ZN4_STL8ios_base23_M_check_exception_maskEv
	.type	_ZN4_STL8ios_base23_M_check_exception_maskEv, %function
_ZN4_STL8ios_base23_M_check_exception_maskEv:
.LFB741:
	.loc 8 197 0
	.cfi_startproc
	@ args = 0, pretend = 0, frame = 8
	@ frame_needed = 0, uses_anonymous_args = 0
	str	lr, [sp, #-4]!
.LCFI36:
	.cfi_def_cfa_offset 4
	.cfi_offset 14, -4
	sub	sp, sp, #12
.LCFI37:
	.cfi_def_cfa_offset 16
	str	r0, [sp, #4]
	.loc 8 198 0
	ldr	r3, [sp, #4]
	ldr	r2, [r3, #8]
	ldr	r3, [sp, #4]
	ldr	r3, [r3, #20]
	and	r3, r2, r3
	cmp	r3, #0
	beq	.L55
	.loc 8 199 0
	ldr	r0, [sp, #4]
	bl	_ZN4_STL8ios_base16_M_throw_failureEv(PLT)
.L55:
	.loc 8 200 0
	add	sp, sp, #12
	@ sp needed
	ldr	pc, [sp], #4
	.cfi_endproc
.LFE741:
	.size	_ZN4_STL8ios_base23_M_check_exception_maskEv, .-_ZN4_STL8ios_base23_M_check_exception_maskEv
	.section	.text._ZNK4_STL8ios_base14_M_ctype_facetEv,"axG",%progbits,_ZNK4_STL8ios_base14_M_ctype_facetEv,comdat
	.align	2
	.weak	_ZNK4_STL8ios_base14_M_ctype_facetEv
	.hidden	_ZNK4_STL8ios_base14_M_ctype_facetEv
	.type	_ZNK4_STL8ios_base14_M_ctype_facetEv, %function
_ZNK4_STL8ios_base14_M_ctype_facetEv:
.LFB742:
	.loc 8 250 0
	.cfi_startproc
	@ args = 0, pretend = 0, frame = 8
	@ frame_needed = 0, uses_anonymous_args = 0
	@ link register save eliminated.
	sub	sp, sp, #8
.LCFI38:
	.cfi_def_cfa_offset 8
	str	r0, [sp, #4]
	.loc 8 250 0
	ldr	r3, [sp, #4]
	ldr	r3, [r3, #64]
	mov	r0, r3
	add	sp, sp, #8
	@ sp needed
	bx	lr
	.cfi_endproc
.LFE742:
	.size	_ZNK4_STL8ios_base14_M_ctype_facetEv, .-_ZNK4_STL8ios_base14_M_ctype_facetEv
	.section	.text._ZNK4_STL8numpunctIcE8groupingEv,"axG",%progbits,_ZNK4_STL8numpunctIcE8groupingEv,comdat
	.align	2
	.weak	_ZNK4_STL8numpunctIcE8groupingEv
	.hidden	_ZNK4_STL8numpunctIcE8groupingEv
	.type	_ZNK4_STL8numpunctIcE8groupingEv, %function
_ZNK4_STL8numpunctIcE8groupingEv:
.LFB772:
	.file 9 "c:/marmalade/7.5/s3e/h/std/c++/stl/_numpunct.h"
	.loc 9 62 0
	.cfi_startproc
	@ args = 0, pretend = 0, frame = 8
	@ frame_needed = 0, uses_anonymous_args = 0
	str	lr, [sp, #-4]!
.LCFI39:
	.cfi_def_cfa_offset 4
	.cfi_offset 14, -4
	sub	sp, sp, #12
.LCFI40:
	.cfi_def_cfa_offset 16
	str	r0, [sp, #4]
	str	r1, [sp]
	.loc 9 62 0
	ldr	r3, [sp]
	ldr	r3, [r3]
	add	r3, r3, #16
	ldr	r3, [r3]
	ldr	r2, [sp, #4]
	mov	r0, r2
	ldr	r1, [sp]
	blx	r3
	ldr	r0, [sp, #4]
	add	sp, sp, #12
	@ sp needed
	ldr	pc, [sp], #4
	.cfi_endproc
.LFE772:
	.size	_ZNK4_STL8numpunctIcE8groupingEv, .-_ZNK4_STL8numpunctIcE8groupingEv
	.bss
	.align	2
_ZN4_STLL8_LocInitE:
	.space	1
	.align	2
_ZN4_STLL8_IosInitE:
	.space	1
	.section	.text._ZN8CIwFVec2C2Eff,"axG",%progbits,_ZN8CIwFVec2C5Eff,comdat
	.align	2
	.weak	_ZN8CIwFVec2C2Eff
	.hidden	_ZN8CIwFVec2C2Eff
	.type	_ZN8CIwFVec2C2Eff, %function
_ZN8CIwFVec2C2Eff:
.LFB1319:
	.file 10 "c:/marmalade/7.5/modules/iwgeom/h/IwGeomFVec2.h"
	.loc 10 72 0
	.cfi_startproc
	@ args = 0, pretend = 0, frame = 16
	@ frame_needed = 0, uses_anonymous_args = 0
	@ link register save eliminated.
	sub	sp, sp, #16
.LCFI41:
	.cfi_def_cfa_offset 16
	str	r0, [sp, #12]
	str	r1, [sp, #8]	@ float
	str	r2, [sp, #4]	@ float
.LBB8:
	.loc 10 72 0
	ldr	r3, [sp, #12]
	ldr	r2, [sp, #8]	@ float
	str	r2, [r3]	@ float
	ldr	r3, [sp, #12]
	ldr	r2, [sp, #4]	@ float
	str	r2, [r3, #4]	@ float
.LBE8:
	ldr	r3, [sp, #12]
	mov	r0, r3
	add	sp, sp, #16
	@ sp needed
	bx	lr
	.cfi_endproc
.LFE1319:
	.size	_ZN8CIwFVec2C2Eff, .-_ZN8CIwFVec2C2Eff
	.weak	_ZN8CIwFVec2C1Eff
	.hidden	_ZN8CIwFVec2C1Eff
	.set	_ZN8CIwFVec2C1Eff,_ZN8CIwFVec2C2Eff
	.section	.text._ZN4_STL19_List_iterator_baseC2EPNS_15_List_node_baseE,"axG",%progbits,_ZN4_STL19_List_iterator_baseC5EPNS_15_List_node_baseE,comdat
	.align	2
	.weak	_ZN4_STL19_List_iterator_baseC2EPNS_15_List_node_baseE
	.hidden	_ZN4_STL19_List_iterator_baseC2EPNS_15_List_node_baseE
	.type	_ZN4_STL19_List_iterator_baseC2EPNS_15_List_node_baseE, %function
_ZN4_STL19_List_iterator_baseC2EPNS_15_List_node_baseE:
.LFB3399:
	.file 11 "c:/marmalade/7.5/s3e/h/std/c++/stl/_list.h"
	.loc 11 95 0
	.cfi_startproc
	@ args = 0, pretend = 0, frame = 8
	@ frame_needed = 0, uses_anonymous_args = 0
	@ link register save eliminated.
	sub	sp, sp, #8
.LCFI42:
	.cfi_def_cfa_offset 8
	str	r0, [sp, #4]
	str	r1, [sp]
.LBB9:
	.loc 11 95 0
	ldr	r3, [sp, #4]
	ldr	r2, [sp]
	str	r2, [r3]
.LBE9:
	ldr	r3, [sp, #4]
	mov	r0, r3
	add	sp, sp, #8
	@ sp needed
	bx	lr
	.cfi_endproc
.LFE3399:
	.size	_ZN4_STL19_List_iterator_baseC2EPNS_15_List_node_baseE, .-_ZN4_STL19_List_iterator_baseC2EPNS_15_List_node_baseE
	.weak	_ZN4_STL19_List_iterator_baseC1EPNS_15_List_node_baseE
	.hidden	_ZN4_STL19_List_iterator_baseC1EPNS_15_List_node_baseE
	.set	_ZN4_STL19_List_iterator_baseC1EPNS_15_List_node_baseE,_ZN4_STL19_List_iterator_baseC2EPNS_15_List_node_baseE
	.section	.text._ZN4_STL19_List_iterator_baseC2Ev,"axG",%progbits,_ZN4_STL19_List_iterator_baseC5Ev,comdat
	.align	2
	.weak	_ZN4_STL19_List_iterator_baseC2Ev
	.hidden	_ZN4_STL19_List_iterator_baseC2Ev
	.type	_ZN4_STL19_List_iterator_baseC2Ev, %function
_ZN4_STL19_List_iterator_baseC2Ev:
.LFB3402:
	.loc 11 96 0
	.cfi_startproc
	@ args = 0, pretend = 0, frame = 8
	@ frame_needed = 0, uses_anonymous_args = 0
	@ link register save eliminated.
	sub	sp, sp, #8
.LCFI43:
	.cfi_def_cfa_offset 8
	str	r0, [sp, #4]
	.loc 11 96 0
	ldr	r3, [sp, #4]
	mov	r0, r3
	add	sp, sp, #8
	@ sp needed
	bx	lr
	.cfi_endproc
.LFE3402:
	.size	_ZN4_STL19_List_iterator_baseC2Ev, .-_ZN4_STL19_List_iterator_baseC2Ev
	.weak	_ZN4_STL19_List_iterator_baseC1Ev
	.hidden	_ZN4_STL19_List_iterator_baseC1Ev
	.set	_ZN4_STL19_List_iterator_baseC1Ev,_ZN4_STL19_List_iterator_baseC2Ev
	.section	.text._ZN4_STL19_List_iterator_base7_M_incrEv,"axG",%progbits,_ZN4_STL19_List_iterator_base7_M_incrEv,comdat
	.align	2
	.weak	_ZN4_STL19_List_iterator_base7_M_incrEv
	.hidden	_ZN4_STL19_List_iterator_base7_M_incrEv
	.type	_ZN4_STL19_List_iterator_base7_M_incrEv, %function
_ZN4_STL19_List_iterator_base7_M_incrEv:
.LFB3404:
	.loc 11 98 0
	.cfi_startproc
	@ args = 0, pretend = 0, frame = 8
	@ frame_needed = 0, uses_anonymous_args = 0
	@ link register save eliminated.
	sub	sp, sp, #8
.LCFI44:
	.cfi_def_cfa_offset 8
	str	r0, [sp, #4]
	.loc 11 98 0
	ldr	r3, [sp, #4]
	ldr	r3, [r3]
	ldr	r2, [r3]
	ldr	r3, [sp, #4]
	str	r2, [r3]
	add	sp, sp, #8
	@ sp needed
	bx	lr
	.cfi_endproc
.LFE3404:
	.size	_ZN4_STL19_List_iterator_base7_M_incrEv, .-_ZN4_STL19_List_iterator_base7_M_incrEv
	.section	.text._ZNK4_STL19_List_iterator_baseeqERKS0_,"axG",%progbits,_ZNK4_STL19_List_iterator_baseeqERKS0_,comdat
	.align	2
	.weak	_ZNK4_STL19_List_iterator_baseeqERKS0_
	.hidden	_ZNK4_STL19_List_iterator_baseeqERKS0_
	.type	_ZNK4_STL19_List_iterator_baseeqERKS0_, %function
_ZNK4_STL19_List_iterator_baseeqERKS0_:
.LFB3406:
	.loc 11 100 0
	.cfi_startproc
	@ args = 0, pretend = 0, frame = 8
	@ frame_needed = 0, uses_anonymous_args = 0
	@ link register save eliminated.
	sub	sp, sp, #8
.LCFI45:
	.cfi_def_cfa_offset 8
	str	r0, [sp, #4]
	str	r1, [sp]
	.loc 11 101 0
	ldr	r3, [sp, #4]
	ldr	r2, [r3]
	ldr	r3, [sp]
	ldr	r3, [r3]
	cmp	r2, r3
	movne	r3, #0
	moveq	r3, #1
	uxtb	r3, r3
	.loc 11 102 0
	mov	r0, r3
	add	sp, sp, #8
	@ sp needed
	bx	lr
	.cfi_endproc
.LFE3406:
	.size	_ZNK4_STL19_List_iterator_baseeqERKS0_, .-_ZNK4_STL19_List_iterator_baseeqERKS0_
	.section	.text._ZNK4_STL19_List_iterator_baseneERKS0_,"axG",%progbits,_ZNK4_STL19_List_iterator_baseneERKS0_,comdat
	.align	2
	.weak	_ZNK4_STL19_List_iterator_baseneERKS0_
	.hidden	_ZNK4_STL19_List_iterator_baseneERKS0_
	.type	_ZNK4_STL19_List_iterator_baseneERKS0_, %function
_ZNK4_STL19_List_iterator_baseneERKS0_:
.LFB3407:
	.loc 11 103 0
	.cfi_startproc
	@ args = 0, pretend = 0, frame = 8
	@ frame_needed = 0, uses_anonymous_args = 0
	@ link register save eliminated.
	sub	sp, sp, #8
.LCFI46:
	.cfi_def_cfa_offset 8
	str	r0, [sp, #4]
	str	r1, [sp]
	.loc 11 104 0
	ldr	r3, [sp, #4]
	ldr	r2, [r3]
	ldr	r3, [sp]
	ldr	r3, [r3]
	cmp	r2, r3
	moveq	r3, #0
	movne	r3, #1
	uxtb	r3, r3
	.loc 11 105 0
	mov	r0, r3
	add	sp, sp, #8
	@ sp needed
	bx	lr
	.cfi_endproc
.LFE3407:
	.size	_ZNK4_STL19_List_iterator_baseneERKS0_, .-_ZNK4_STL19_List_iterator_baseneERKS0_
	.section	.text._ZNK4_STL7codecvtIcciE3outERiPKcS4_RS4_PcS6_RS6_,"axG",%progbits,_ZNK4_STL7codecvtIcciE3outERiPKcS4_RS4_PcS6_RS6_,comdat
	.align	2
	.weak	_ZNK4_STL7codecvtIcciE3outERiPKcS4_RS4_PcS6_RS6_
	.hidden	_ZNK4_STL7codecvtIcciE3outERiPKcS4_RS4_PcS6_RS6_
	.type	_ZNK4_STL7codecvtIcciE3outERiPKcS4_RS4_PcS6_RS6_, %function
_ZNK4_STL7codecvtIcciE3outERiPKcS4_RS4_PcS6_RS6_:
.LFB3497:
	.file 12 "c:/marmalade/7.5/s3e/h/std/c++/stl/_codecvt.h"
	.loc 12 62 0
	.cfi_startproc
	@ args = 16, pretend = 0, frame = 16
	@ frame_needed = 0, uses_anonymous_args = 0
	str	lr, [sp, #-4]!
.LCFI47:
	.cfi_def_cfa_offset 4
	.cfi_offset 14, -4
	sub	sp, sp, #36
.LCFI48:
	.cfi_def_cfa_offset 40
	str	r0, [sp, #28]
	str	r1, [sp, #24]
	str	r2, [sp, #20]
	str	r3, [sp, #16]
	.loc 12 71 0
	ldr	r3, [sp, #28]
	ldr	r3, [r3]
	add	r3, r3, #8
	ldr	ip, [r3]
	ldr	r3, [sp, #40]
	str	r3, [sp]
	ldr	r3, [sp, #44]
	str	r3, [sp, #4]
	ldr	r3, [sp, #48]
	str	r3, [sp, #8]
	ldr	r3, [sp, #52]
	str	r3, [sp, #12]
	ldr	r0, [sp, #28]
	ldr	r1, [sp, #24]
	ldr	r2, [sp, #20]
	ldr	r3, [sp, #16]
	blx	ip
	mov	r3, r0
	.loc 12 72 0
	mov	r0, r3
	add	sp, sp, #36
	@ sp needed
	ldr	pc, [sp], #4
	.cfi_endproc
.LFE3497:
	.size	_ZNK4_STL7codecvtIcciE3outERiPKcS4_RS4_PcS6_RS6_, .-_ZNK4_STL7codecvtIcciE3outERiPKcS4_RS4_PcS6_RS6_
	.section	.text._ZNK4_STL7codecvtIcciE7unshiftERiPcS3_RS3_,"axG",%progbits,_ZNK4_STL7codecvtIcciE7unshiftERiPcS3_RS3_,comdat
	.align	2
	.weak	_ZNK4_STL7codecvtIcciE7unshiftERiPcS3_RS3_
	.hidden	_ZNK4_STL7codecvtIcciE7unshiftERiPcS3_RS3_
	.type	_ZNK4_STL7codecvtIcciE7unshiftERiPcS3_RS3_, %function
_ZNK4_STL7codecvtIcciE7unshiftERiPcS3_RS3_:
.LFB3498:
	.loc 12 74 0
	.cfi_startproc
	@ args = 4, pretend = 0, frame = 16
	@ frame_needed = 0, uses_anonymous_args = 0
	str	lr, [sp, #-4]!
.LCFI49:
	.cfi_def_cfa_offset 4
	.cfi_offset 14, -4
	sub	sp, sp, #28
.LCFI50:
	.cfi_def_cfa_offset 32
	str	r0, [sp, #20]
	str	r1, [sp, #16]
	str	r2, [sp, #12]
	str	r3, [sp, #8]
	.loc 12 76 0
	ldr	r3, [sp, #20]
	ldr	r3, [r3]
	add	r3, r3, #16
	ldr	ip, [r3]
	ldr	r3, [sp, #32]
	str	r3, [sp]
	ldr	r0, [sp, #20]
	ldr	r1, [sp, #16]
	ldr	r2, [sp, #12]
	ldr	r3, [sp, #8]
	blx	ip
	mov	r3, r0
	mov	r0, r3
	add	sp, sp, #28
	@ sp needed
	ldr	pc, [sp], #4
	.cfi_endproc
.LFE3498:
	.size	_ZNK4_STL7codecvtIcciE7unshiftERiPcS3_RS3_, .-_ZNK4_STL7codecvtIcciE7unshiftERiPcS3_RS3_
	.section	.text._ZNK4_STL7codecvtIcciE2inERiPKcS4_RS4_PcS6_RS6_,"axG",%progbits,_ZNK4_STL7codecvtIcciE2inERiPKcS4_RS4_PcS6_RS6_,comdat
	.align	2
	.weak	_ZNK4_STL7codecvtIcciE2inERiPKcS4_RS4_PcS6_RS6_
	.hidden	_ZNK4_STL7codecvtIcciE2inERiPKcS4_RS4_PcS6_RS6_
	.type	_ZNK4_STL7codecvtIcciE2inERiPKcS4_RS4_PcS6_RS6_, %function
_ZNK4_STL7codecvtIcciE2inERiPKcS4_RS4_PcS6_RS6_:
.LFB3499:
	.loc 12 78 0
	.cfi_startproc
	@ args = 16, pretend = 0, frame = 16
	@ frame_needed = 0, uses_anonymous_args = 0
	str	lr, [sp, #-4]!
.LCFI51:
	.cfi_def_cfa_offset 4
	.cfi_offset 14, -4
	sub	sp, sp, #36
.LCFI52:
	.cfi_def_cfa_offset 40
	str	r0, [sp, #28]
	str	r1, [sp, #24]
	str	r2, [sp, #20]
	str	r3, [sp, #16]
	.loc 12 87 0
	ldr	r3, [sp, #28]
	ldr	r3, [r3]
	add	r3, r3, #12
	ldr	ip, [r3]
	ldr	r3, [sp, #40]
	str	r3, [sp]
	ldr	r3, [sp, #44]
	str	r3, [sp, #4]
	ldr	r3, [sp, #48]
	str	r3, [sp, #8]
	ldr	r3, [sp, #52]
	str	r3, [sp, #12]
	ldr	r0, [sp, #28]
	ldr	r1, [sp, #24]
	ldr	r2, [sp, #20]
	ldr	r3, [sp, #16]
	blx	ip
	mov	r3, r0
	.loc 12 88 0
	mov	r0, r3
	add	sp, sp, #36
	@ sp needed
	ldr	pc, [sp], #4
	.cfi_endproc
.LFE3499:
	.size	_ZNK4_STL7codecvtIcciE2inERiPKcS4_RS4_PcS6_RS6_, .-_ZNK4_STL7codecvtIcciE2inERiPKcS4_RS4_PcS6_RS6_
	.section	.text._ZNK4_STL7codecvtIcciE8encodingEv,"axG",%progbits,_ZNK4_STL7codecvtIcciE8encodingEv,comdat
	.align	2
	.weak	_ZNK4_STL7codecvtIcciE8encodingEv
	.hidden	_ZNK4_STL7codecvtIcciE8encodingEv
	.type	_ZNK4_STL7codecvtIcciE8encodingEv, %function
_ZNK4_STL7codecvtIcciE8encodingEv:
.LFB3500:
	.loc 12 90 0
	.cfi_startproc
	@ args = 0, pretend = 0, frame = 8
	@ frame_needed = 0, uses_anonymous_args = 0
	str	lr, [sp, #-4]!
.LCFI53:
	.cfi_def_cfa_offset 4
	.cfi_offset 14, -4
	sub	sp, sp, #12
.LCFI54:
	.cfi_def_cfa_offset 16
	str	r0, [sp, #4]
	.loc 12 90 0
	ldr	r3, [sp, #4]
	ldr	r3, [r3]
	add	r3, r3, #20
	ldr	r3, [r3]
	ldr	r0, [sp, #4]
	blx	r3
	mov	r3, r0
	mov	r0, r3
	add	sp, sp, #12
	@ sp needed
	ldr	pc, [sp], #4
	.cfi_endproc
.LFE3500:
	.size	_ZNK4_STL7codecvtIcciE8encodingEv, .-_ZNK4_STL7codecvtIcciE8encodingEv
	.section	.text._ZNK4_STL7codecvtIcciE13always_noconvEv,"axG",%progbits,_ZNK4_STL7codecvtIcciE13always_noconvEv,comdat
	.align	2
	.weak	_ZNK4_STL7codecvtIcciE13always_noconvEv
	.hidden	_ZNK4_STL7codecvtIcciE13always_noconvEv
	.type	_ZNK4_STL7codecvtIcciE13always_noconvEv, %function
_ZNK4_STL7codecvtIcciE13always_noconvEv:
.LFB3501:
	.loc 12 92 0
	.cfi_startproc
	@ args = 0, pretend = 0, frame = 8
	@ frame_needed = 0, uses_anonymous_args = 0
	str	lr, [sp, #-4]!
.LCFI55:
	.cfi_def_cfa_offset 4
	.cfi_offset 14, -4
	sub	sp, sp, #12
.LCFI56:
	.cfi_def_cfa_offset 16
	str	r0, [sp, #4]
	.loc 12 92 0
	ldr	r3, [sp, #4]
	ldr	r3, [r3]
	add	r3, r3, #24
	ldr	r3, [r3]
	ldr	r0, [sp, #4]
	blx	r3
	mov	r3, r0
	mov	r0, r3
	add	sp, sp, #12
	@ sp needed
	ldr	pc, [sp], #4
	.cfi_endproc
.LFE3501:
	.size	_ZNK4_STL7codecvtIcciE13always_noconvEv, .-_ZNK4_STL7codecvtIcciE13always_noconvEv
	.section	.text._ZNK4_STL7codecvtIcciE6lengthERKiPKcS5_j,"axG",%progbits,_ZNK4_STL7codecvtIcciE6lengthERKiPKcS5_j,comdat
	.align	2
	.weak	_ZNK4_STL7codecvtIcciE6lengthERKiPKcS5_j
	.hidden	_ZNK4_STL7codecvtIcciE6lengthERKiPKcS5_j
	.type	_ZNK4_STL7codecvtIcciE6lengthERKiPKcS5_j, %function
_ZNK4_STL7codecvtIcciE6lengthERKiPKcS5_j:
.LFB3502:
	.loc 12 94 0
	.cfi_startproc
	@ args = 4, pretend = 0, frame = 16
	@ frame_needed = 0, uses_anonymous_args = 0
	str	lr, [sp, #-4]!
.LCFI57:
	.cfi_def_cfa_offset 4
	.cfi_offset 14, -4
	sub	sp, sp, #28
.LCFI58:
	.cfi_def_cfa_offset 32
	str	r0, [sp, #20]
	str	r1, [sp, #16]
	str	r2, [sp, #12]
	str	r3, [sp, #8]
	.loc 12 97 0
	ldr	r3, [sp, #20]
	ldr	r3, [r3]
	add	r3, r3, #28
	ldr	ip, [r3]
	ldr	r3, [sp, #32]
	str	r3, [sp]
	ldr	r0, [sp, #20]
	ldr	r1, [sp, #16]
	ldr	r2, [sp, #12]
	ldr	r3, [sp, #8]
	blx	ip
	mov	r3, r0
	mov	r0, r3
	add	sp, sp, #28
	@ sp needed
	ldr	pc, [sp], #4
	.cfi_endproc
.LFE3502:
	.size	_ZNK4_STL7codecvtIcciE6lengthERKiPKcS5_j, .-_ZNK4_STL7codecvtIcciE6lengthERKiPKcS5_j
	.section	.text._ZNK4_STL7codecvtIcciE10max_lengthEv,"axG",%progbits,_ZNK4_STL7codecvtIcciE10max_lengthEv,comdat
	.align	2
	.weak	_ZNK4_STL7codecvtIcciE10max_lengthEv
	.hidden	_ZNK4_STL7codecvtIcciE10max_lengthEv
	.type	_ZNK4_STL7codecvtIcciE10max_lengthEv, %function
_ZNK4_STL7codecvtIcciE10max_lengthEv:
.LFB3503:
	.loc 12 99 0
	.cfi_startproc
	@ args = 0, pretend = 0, frame = 8
	@ frame_needed = 0, uses_anonymous_args = 0
	str	lr, [sp, #-4]!
.LCFI59:
	.cfi_def_cfa_offset 4
	.cfi_offset 14, -4
	sub	sp, sp, #12
.LCFI60:
	.cfi_def_cfa_offset 16
	str	r0, [sp, #4]
	.loc 12 99 0
	ldr	r3, [sp, #4]
	ldr	r3, [r3]
	add	r3, r3, #32
	ldr	r3, [r3]
	ldr	r0, [sp, #4]
	blx	r3
	mov	r3, r0
	mov	r0, r3
	add	sp, sp, #12
	@ sp needed
	ldr	pc, [sp], #4
	.cfi_endproc
.LFE3503:
	.size	_ZNK4_STL7codecvtIcciE10max_lengthEv, .-_ZNK4_STL7codecvtIcciE10max_lengthEv
	.section	.text._ZN4_STL13_Filebuf_base13_M_get_offsetEPcS1_,"axG",%progbits,_ZN4_STL13_Filebuf_base13_M_get_offsetEPcS1_,comdat
	.align	2
	.weak	_ZN4_STL13_Filebuf_base13_M_get_offsetEPcS1_
	.hidden	_ZN4_STL13_Filebuf_base13_M_get_offsetEPcS1_
	.type	_ZN4_STL13_Filebuf_base13_M_get_offsetEPcS1_, %function
_ZN4_STL13_Filebuf_base13_M_get_offsetEPcS1_:
.LFB3514:
	.file 13 "c:/marmalade/7.5/s3e/h/std/c++/stl/_fstream.h"
	.loc 13 109 0
	.cfi_startproc
	@ args = 0, pretend = 0, frame = 24
	@ frame_needed = 0, uses_anonymous_args = 0
	stmfd	sp!, {r4, lr}
.LCFI61:
	.cfi_def_cfa_offset 8
	.cfi_offset 4, -8
	.cfi_offset 14, -4
	sub	sp, sp, #24
.LCFI62:
	.cfi_def_cfa_offset 32
	str	r0, [sp, #12]
	str	r1, [sp, #8]
	str	r2, [sp, #4]
	.loc 13 113 0
	ldr	r3, [sp, #12]
	ldr	r3, [r3, #8]
	and	r3, r3, #4
	.loc 13 115 0
	mov	r4, #0
	cmp	r3, #0
	beq	.L90
	.loc 13 115 0 is_stmt 0 discriminator 1
	ldr	r2, [sp, #4]
	ldr	r3, [sp, #8]
	rsb	r3, r3, r2
	b	.L91
.L90:
	.loc 13 115 0 discriminator 2
	mov	r3, #10
	strb	r3, [sp, #23]
	mov	r4, #1
	add	r3, sp, #23
	ldr	r0, [sp, #8]
	ldr	r1, [sp, #4]
	mov	r2, r3
	bl	_ZN4_STL5countIPccEENS_15iterator_traitsIT_E15difference_typeES3_S3_RKT0_(PLT)
	mov	r2, r0
	ldr	r1, [sp, #4]
	ldr	r3, [sp, #8]
	rsb	r3, r3, r1
	add	r3, r2, r3
.L91:
	.loc 13 115 0 discriminator 3
	cmp	r4, #0
	.loc 13 117 0 is_stmt 1 discriminator 3
	mov	r0, r3
	add	sp, sp, #24
	@ sp needed
	ldmfd	sp!, {r4, pc}
	.cfi_endproc
.LFE3514:
	.size	_ZN4_STL13_Filebuf_base13_M_get_offsetEPcS1_, .-_ZN4_STL13_Filebuf_base13_M_get_offsetEPcS1_
	.section	.text._ZNK4_STL13_Filebuf_base17_M_in_binary_modeEv,"axG",%progbits,_ZNK4_STL13_Filebuf_base17_M_in_binary_modeEv,comdat
	.align	2
	.weak	_ZNK4_STL13_Filebuf_base17_M_in_binary_modeEv
	.hidden	_ZNK4_STL13_Filebuf_base17_M_in_binary_modeEv
	.type	_ZNK4_STL13_Filebuf_base17_M_in_binary_modeEv, %function
_ZNK4_STL13_Filebuf_base17_M_in_binary_modeEv:
.LFB3515:
	.loc 13 121 0
	.cfi_startproc
	@ args = 0, pretend = 0, frame = 8
	@ frame_needed = 0, uses_anonymous_args = 0
	@ link register save eliminated.
	sub	sp, sp, #8
.LCFI63:
	.cfi_def_cfa_offset 8
	str	r0, [sp, #4]
	.loc 13 123 0
	mov	r3, #1
	.loc 13 129 0
	mov	r0, r3
	add	sp, sp, #8
	@ sp needed
	bx	lr
	.cfi_endproc
.LFE3515:
	.size	_ZNK4_STL13_Filebuf_base17_M_in_binary_modeEv, .-_ZNK4_STL13_Filebuf_base17_M_in_binary_modeEv
	.section	.text._ZN4_STL13_Filebuf_base11__page_sizeEv,"axG",%progbits,_ZN4_STL13_Filebuf_base11__page_sizeEv,comdat
	.align	2
	.weak	_ZN4_STL13_Filebuf_base11__page_sizeEv
	.hidden	_ZN4_STL13_Filebuf_base11__page_sizeEv
	.type	_ZN4_STL13_Filebuf_base11__page_sizeEv, %function
_ZN4_STL13_Filebuf_base11__page_sizeEv:
.LFB3516:
	.loc 13 150 0
	.cfi_startproc
	@ args = 0, pretend = 0, frame = 0
	@ frame_needed = 0, uses_anonymous_args = 0
	@ link register save eliminated.
	ldr	r2, .L98
.LPIC0:
	add	r2, pc, r2
	.loc 13 150 0
	ldr	r3, .L98+4
	ldr	r3, [r2, r3]
	ldr	r3, [r3]
	mov	r0, r3
	bx	lr
.L99:
	.align	2
.L98:
	.word	_GLOBAL_OFFSET_TABLE_-(.LPIC0+8)
	.word	_ZN4_STL13_Filebuf_base12_M_page_sizeE(GOT)
	.cfi_endproc
.LFE3516:
	.size	_ZN4_STL13_Filebuf_base11__page_sizeEv, .-_ZN4_STL13_Filebuf_base11__page_sizeEv
	.section	.text._ZNK4_STL13_Filebuf_base8__o_modeEv,"axG",%progbits,_ZNK4_STL13_Filebuf_base8__o_modeEv,comdat
	.align	2
	.weak	_ZNK4_STL13_Filebuf_base8__o_modeEv
	.hidden	_ZNK4_STL13_Filebuf_base8__o_modeEv
	.type	_ZNK4_STL13_Filebuf_base8__o_modeEv, %function
_ZNK4_STL13_Filebuf_base8__o_modeEv:
.LFB3517:
	.loc 13 151 0
	.cfi_startproc
	@ args = 0, pretend = 0, frame = 8
	@ frame_needed = 0, uses_anonymous_args = 0
	@ link register save eliminated.
	sub	sp, sp, #8
.LCFI64:
	.cfi_def_cfa_offset 8
	str	r0, [sp, #4]
	.loc 13 151 0
	ldr	r3, [sp, #4]
	ldr	r3, [r3, #8]
	mov	r0, r3
	add	sp, sp, #8
	@ sp needed
	bx	lr
	.cfi_endproc
.LFE3517:
	.size	_ZNK4_STL13_Filebuf_base8__o_modeEv, .-_ZNK4_STL13_Filebuf_base8__o_modeEv
	.section	.text._ZNK4_STL13_Filebuf_base9__is_openEv,"axG",%progbits,_ZNK4_STL13_Filebuf_base9__is_openEv,comdat
	.align	2
	.weak	_ZNK4_STL13_Filebuf_base9__is_openEv
	.hidden	_ZNK4_STL13_Filebuf_base9__is_openEv
	.type	_ZNK4_STL13_Filebuf_base9__is_openEv, %function
_ZNK4_STL13_Filebuf_base9__is_openEv:
.LFB3518:
	.loc 13 152 0
	.cfi_startproc
	@ args = 0, pretend = 0, frame = 8
	@ frame_needed = 0, uses_anonymous_args = 0
	@ link register save eliminated.
	sub	sp, sp, #8
.LCFI65:
	.cfi_def_cfa_offset 8
	str	r0, [sp, #4]
	.loc 13 152 0
	ldr	r3, [sp, #4]
	ldrb	r3, [r3, #12]	@ zero_extendqisi2
	cmp	r3, #0
	moveq	r3, #0
	movne	r3, #1
	uxtb	r3, r3
	mov	r0, r3
	add	sp, sp, #8
	@ sp needed
	bx	lr
	.cfi_endproc
.LFE3518:
	.size	_ZNK4_STL13_Filebuf_base9__is_openEv, .-_ZNK4_STL13_Filebuf_base9__is_openEv
	.section	.text._ZN4_STL14_Noconv_outputINS_11char_traitsIcEEE7_M_doitEPNS_13basic_filebufIcS2_EEPcS7_,"axG",%progbits,_ZN4_STL14_Noconv_outputINS_11char_traitsIcEEE7_M_doitEPNS_13basic_filebufIcS2_EEPcS7_,comdat
	.align	2
	.weak	_ZN4_STL14_Noconv_outputINS_11char_traitsIcEEE7_M_doitEPNS_13basic_filebufIcS2_EEPcS7_
	.hidden	_ZN4_STL14_Noconv_outputINS_11char_traitsIcEEE7_M_doitEPNS_13basic_filebufIcS2_EEPcS7_
	.type	_ZN4_STL14_Noconv_outputINS_11char_traitsIcEEE7_M_doitEPNS_13basic_filebufIcS2_EEPcS7_, %function
_ZN4_STL14_Noconv_outputINS_11char_traitsIcEEE7_M_doitEPNS_13basic_filebufIcS2_EEPcS7_:
.LFB3535:
	.loc 13 399 0
	.cfi_startproc
	@ args = 0, pretend = 0, frame = 24
	@ frame_needed = 0, uses_anonymous_args = 0
	str	lr, [sp, #-4]!
.LCFI66:
	.cfi_def_cfa_offset 4
	.cfi_offset 14, -4
	sub	sp, sp, #28
.LCFI67:
	.cfi_def_cfa_offset 32
	str	r0, [sp, #12]
	str	r1, [sp, #8]
	str	r2, [sp, #4]
.LBB10:
	.loc 13 402 0
	ldr	r2, [sp, #4]
	ldr	r3, [sp, #8]
	rsb	r3, r3, r2
	str	r3, [sp, #20]
	.loc 13 403 0
	ldr	r0, [sp, #12]
	ldr	r1, [sp, #8]
	ldr	r2, [sp, #20]
	bl	_ZN4_STL13basic_filebufIcNS_11char_traitsIcEEE8_M_writeEPci(PLT)
	mov	r3, r0
	cmp	r3, #0
	beq	.L105
	.loc 13 404 0
	mov	r3, #1
	b	.L106
.L105:
	.loc 13 407 0
	mov	r3, #0
.L106:
.LBE10:
	.loc 13 408 0
	mov	r0, r3
	add	sp, sp, #28
	@ sp needed
	ldr	pc, [sp], #4
	.cfi_endproc
.LFE3535:
	.size	_ZN4_STL14_Noconv_outputINS_11char_traitsIcEEE7_M_doitEPNS_13basic_filebufIcS2_EEPcS7_, .-_ZN4_STL14_Noconv_outputINS_11char_traitsIcEEE7_M_doitEPNS_13basic_filebufIcS2_EEPcS7_
	.hidden	level
	.global	level
	.bss
	.align	2
	.type	level, %object
	.size	level, 10800
level:
	.space	10800
	.hidden	MaxLevel
	.global	MaxLevel
	.align	2
	.type	MaxLevel, %object
	.size	MaxLevel, 4
MaxLevel:
	.space	4
	.hidden	screenWidth
	.global	screenWidth
	.align	2
	.type	screenWidth, %object
	.size	screenWidth, 4
screenWidth:
	.space	4
	.hidden	screenHeight
	.global	screenHeight
	.align	2
	.type	screenHeight, %object
	.size	screenHeight, 4
screenHeight:
	.space	4
	.hidden	screenPitch
	.global	screenPitch
	.align	2
	.type	screenPitch, %object
	.size	screenPitch, 4
screenPitch:
	.space	4
	.hidden	EasyScores
	.global	EasyScores
	.align	2
	.type	EasyScores, %object
	.size	EasyScores, 4
EasyScores:
	.space	4
	.hidden	MediumScores
	.global	MediumScores
	.align	2
	.type	MediumScores, %object
	.size	MediumScores, 4
MediumScores:
	.space	4
	.hidden	HardScores
	.global	HardScores
	.align	2
	.type	HardScores, %object
	.size	HardScores, 4
HardScores:
	.space	4
	.hidden	it
	.global	it
	.align	2
	.type	it, %object
	.size	it, 4
it:
	.space	4
	.section	.text._Z11doubleToStrd,"ax",%progbits
	.align	2
	.global	_Z11doubleToStrd
	.hidden	_Z11doubleToStrd
	.type	_Z11doubleToStrd, %function
_Z11doubleToStrd:
.LFB3589:
	.file 14 "d:/School/cs115/AmazingMaze/AmazingMaze.cpp"
	.loc 14 45 0
	.cfi_startproc
	@ args = 0, pretend = 0, frame = 184
	@ frame_needed = 0, uses_anonymous_args = 0
	str	lr, [sp, #-4]!
.LCFI68:
	.cfi_def_cfa_offset 4
	.cfi_offset 14, -4
	sub	sp, sp, #188
.LCFI69:
	.cfi_def_cfa_offset 192
	str	r0, [sp, #12]
	strd	r2, [sp]
.LBB11:
	.loc 14 46 0
	add	r3, sp, #16
	mov	r0, r3
	mov	r1, #24
	bl	_ZN4_STL18basic_stringstreamIcNS_11char_traitsIcEENS_9allocatorIcEEEC1Ei(PLT)
	.loc 14 47 0
	add	r3, sp, #16
	add	r3, r3, #8
	mov	r0, r3
	ldrd	r2, [sp]
	bl	_ZN4_STL13basic_ostreamIcNS_11char_traitsIcEEElsEd(PLT)
	.loc 14 48 0
	ldr	r2, [sp, #12]
	add	r3, sp, #16
	mov	r0, r2
	mov	r1, r3
	bl	_ZNK4_STL18basic_stringstreamIcNS_11char_traitsIcEENS_9allocatorIcEEE3strEv(PLT)
	add	r3, sp, #16
	mov	r0, r3
	bl	_ZN4_STL18basic_stringstreamIcNS_11char_traitsIcEENS_9allocatorIcEEED1Ev(PLT)
.LBE11:
	.loc 14 49 0
	ldr	r0, [sp, #12]
	add	sp, sp, #188
	@ sp needed
	ldr	pc, [sp], #4
	.cfi_endproc
.LFE3589:
	.size	_Z11doubleToStrd, .-_Z11doubleToStrd
	.section	.rodata
	.align	2
.LC0:
	.ascii	"easyScore.txt\000"
	.align	2
.LC1:
	.ascii	"mediumScore.txt\000"
	.align	2
.LC2:
	.ascii	"hardScore.txt\000"
	.align	2
.LC3:
	.ascii	"textures/menubg.png\000"
	.align	2
.LC4:
	.ascii	"textures/playbt.png\000"
	.align	2
.LC5:
	.ascii	"textures/playbtclicked.png\000"
	.align	2
.LC6:
	.ascii	"textures/title.png\000"
	.align	2
.LC7:
	.ascii	"textures/scoresbt.png\000"
	.align	2
.LC8:
	.ascii	"textures/scoresbtclicked.png\000"
	.align	2
.LC9:
	.ascii	"textures/chooselevel.png\000"
	.align	2
.LC10:
	.ascii	"textures/backbt.png\000"
	.align	2
.LC11:
	.ascii	"textures/backbtclicked.png\000"
	.align	2
.LC12:
	.ascii	"textures/easybt.png\000"
	.align	2
.LC13:
	.ascii	"textures/easybtclicked.png\000"
	.align	2
.LC14:
	.ascii	"textures/mediumbt.png\000"
	.align	2
.LC15:
	.ascii	"textures/mediumbtclicked.png\000"
	.align	2
.LC16:
	.ascii	"textures/hardbt.png\000"
	.align	2
.LC17:
	.ascii	"textures/hardbtclicked.png\000"
	.align	2
.LC18:
	.ascii	"textures/gem1.png\000"
	.align	2
.LC19:
	.ascii	"textures/rainbowbg.png\000"
	.align	2
.LC20:
	.ascii	"textures/inbt.png\000"
	.align	2
.LC21:
	.ascii	"textures/inbtclicked.png\000"
	.align	2
.LC22:
	.ascii	"textures/outbt.png\000"
	.align	2
.LC23:
	.ascii	"textures/outbtclicked.png\000"
	.align	2
.LC24:
	.ascii	"textures/pausebt.png\000"
	.align	2
.LC25:
	.ascii	"textures/pausebtclicked.png\000"
	.align	2
.LC26:
	.ascii	"textures/pausedtitle.png\000"
	.align	2
.LC27:
	.ascii	"textures/resumebt.png\000"
	.align	2
.LC28:
	.ascii	"textures/resumebtclicked.png\000"
	.align	2
.LC29:
	.ascii	"textures/startoverbt.png\000"
	.align	2
.LC30:
	.ascii	"textures/startoverbtclicked.png\000"
	.align	2
.LC31:
	.ascii	"textures/changelevelbt.png\000"
	.align	2
.LC32:
	.ascii	"textures/changelevelbtclicked.png\000"
	.align	2
.LC33:
	.ascii	"textures/finished.png\000"
	.align	2
.LC34:
	.ascii	"textures/retrybt.png\000"
	.align	2
.LC35:
	.ascii	"textures/retrybtclicked.png\000"
	.align	2
.LC36:
	.ascii	"textures/mainmenubt.png\000"
	.align	2
.LC37:
	.ascii	"textures/mainmenubtclicked.png\000"
	.align	2
.LC38:
	.ascii	"textures/easyscorestitle.png\000"
	.align	2
.LC39:
	.ascii	"textures/mediumscorestitle.png\000"
	.align	2
.LC40:
	.ascii	"textures/hardscorestitle.png\000"
	.align	2
.LC41:
	.ascii	"textures/easyscoresbt.png\000"
	.align	2
.LC42:
	.ascii	"textures/easyscoresbtclicked.png\000"
	.align	2
.LC43:
	.ascii	"textures/mediumscoresbt.png\000"
	.align	2
.LC44:
	.ascii	"textures/mediumscoresbtclicked.png\000"
	.align	2
.LC45:
	.ascii	"textures/hardscoresbt.png\000"
	.align	2
.LC46:
	.ascii	"textures/hardscoresbtclicked.png\000"
	.align	2
.LC47:
	.ascii	"textures/Red.png\000"
	.align	2
.LC48:
	.ascii	"textures/Orange.png\000"
	.align	2
.LC49:
	.ascii	"textures/Yellow.png\000"
	.align	2
.LC50:
	.ascii	"textures/Green.png\000"
	.align	2
.LC51:
	.ascii	"textures/Blue.png\000"
	.align	2
.LC52:
	.ascii	"textures/Indigo.png\000"
	.align	2
.LC53:
	.ascii	"textures/Purple.png\000"
	.align	2
.LC54:
	.ascii	"textures/mazeoverlay.png\000"
	.align	2
.LC55:
	.ascii	"textures/TimerOverlay.png\000"
	.global	__aeabi_i2d
	.global	__aeabi_dsub
	.global	__aeabi_d2f
	.global	__aeabi_ddiv
	.global	__aeabi_i2f
	.global	__aeabi_dmul
	.global	__aeabi_dadd
	.global	__aeabi_d2iz
	.align	2
.LC56:
	.ascii	"Start In:\000"
	.align	2
.LC57:
	.ascii	"Time:\000"
	.align	2
.LC58:
	.ascii	"in stage 7 \000"
	.align	2
.LC59:
	.ascii	"Rank\000"
	.align	2
.LC60:
	.ascii	"Time\000"
	.align	2
.LC61:
	.ascii	"the scores in easy lists are: %f\012\000"
	.align	2
.LC62:
	.ascii	"in stage 8 \000"
	.align	2
.LC63:
	.ascii	"in stage 9 \000"
	.section	.text.main,"ax",%progbits
	.align	2
	.global	main
	.hidden	main
	.type	main, %function
main:
.LFB3590:
	.loc 14 53 0
	.cfi_startproc
	@ args = 0, pretend = 0, frame = 1480
	@ frame_needed = 0, uses_anonymous_args = 0
	stmfd	sp!, {r4, r5, lr}
.LCFI70:
	.cfi_def_cfa_offset 12
	.cfi_offset 4, -12
	.cfi_offset 5, -8
	.cfi_offset 14, -4
	sub	sp, sp, #1504
.LCFI71:
	.cfi_def_cfa_offset 1516
	sub	sp, sp, #4
.LCFI72:
	.cfi_def_cfa_offset 1520
.LBB12:
	.loc 14 55 0
	bl	_Z8Iw2DInitv(PLT)
	.loc 14 57 0
	bl	_Z19Iw2DGetSurfaceWidthv(PLT)
	str	r0, [sp, #1436]
	.loc 14 58 0
	bl	_Z20Iw2DGetSurfaceHeightv(PLT)
	str	r0, [sp, #1432]
	.loc 14 59 0
	mov	r3, #1
	str	r3, [sp, #1500]
	.loc 14 60 0
	mov	r3, #0
	str	r3, [sp, #1496]
	.loc 14 61 0
	bl	clock(PLT)
	str	r0, [sp, #1492]
	.loc 14 62 0
	bl	clock(PLT)
	str	r0, [sp, #1488]
	.loc 14 63 0
	mov	r3, #0
	str	r3, [sp, #1484]
	.loc 14 64 0
	mov	r3, #0
	str	r3, [sp, #1428]
	.loc 14 65 0
	mov	r3, #0
	str	r3, [sp, #1424]
	.loc 14 66 0
	mov	r3, #1
	str	r3, [sp, #1480]
	.loc 14 67 0
	mov	r3, #0
	str	r3, [sp, #1476]
	.loc 14 68 0
	mov	r3, #0
	str	r3, [sp, #1472]
	.loc 14 70 0
	add	r3, sp, #64
	sub	r3, r3, #8
	mov	r0, r3
	ldr	r3, .L163
.LPIC1:
	add	r3, pc, r3
	mov	r1, r3
	mov	r2, #8
	bl	_ZN4_STL14basic_ifstreamIcNS_11char_traitsIcEEEC1EPKci(PLT)
	.loc 14 72 0
	ldr	r1, .L163+4
	mov	r2, #0
	mov	r3, #0
	add	r0, sp, #1504
	strd	r2, [r0, r1]
	.loc 14 73 0
	b	.L110
.L111:
	.loc 14 74 0
	add	r3, sp, #824
	ldr	r2, .L163+8
.LPIC2:
	add	r2, pc, r2
	mov	r0, r2
	mov	r1, r3
	bl	_ZN4_STL4listIdNS_9allocatorIdEEE9push_backERKd(PLT)
.L110:
	.loc 14 73 0 discriminator 1
	add	r3, sp, #64
	sub	r3, r3, #8
	add	r2, sp, #824
	mov	r0, r3
	mov	r1, r2
	bl	_ZN4_STL13basic_istreamIcNS_11char_traitsIcEEErsERd(PLT)
	mov	r3, r0
	ldr	r2, [r3]
	sub	r2, r2, #12
	ldr	r2, [r2]
	add	r3, r3, r2
	mov	r0, r3
	bl	_ZNK4_STL8ios_basecvPvEv(PLT)
	mov	r3, r0
	cmp	r3, #0
	moveq	r3, #0
	movne	r3, #1
	uxtb	r3, r3
	cmp	r3, #0
	bne	.L111
	.loc 14 76 0
	ldr	r3, .L163+12
.LPIC3:
	add	r3, pc, r3
	mov	r0, r3
	bl	_ZN4_STL4listIdNS_9allocatorIdEEE4sortEv(PLT)
	.loc 14 79 0
	add	r3, sp, #304
	sub	r3, r3, #12
	mov	r0, r3
	ldr	r3, .L163+16
.LPIC4:
	add	r3, pc, r3
	mov	r1, r3
	mov	r2, #8
	bl	_ZN4_STL14basic_ifstreamIcNS_11char_traitsIcEEEC1EPKci(PLT)
	.loc 14 81 0
	ldr	r1, .L163+20
	mov	r2, #0
	mov	r3, #0
	add	r0, sp, #1504
	strd	r2, [r0, r1]
	.loc 14 82 0
	b	.L112
.L113:
	.loc 14 83 0
	add	r3, sp, #816
	ldr	r2, .L163+24
.LPIC5:
	add	r2, pc, r2
	mov	r0, r2
	mov	r1, r3
	bl	_ZN4_STL4listIdNS_9allocatorIdEEE9push_backERKd(PLT)
.L112:
	.loc 14 82 0 discriminator 1
	add	r3, sp, #304
	sub	r3, r3, #12
	add	r2, sp, #816
	mov	r0, r3
	mov	r1, r2
	bl	_ZN4_STL13basic_istreamIcNS_11char_traitsIcEEErsERd(PLT)
	mov	r3, r0
	ldr	r2, [r3]
	sub	r2, r2, #12
	ldr	r2, [r2]
	add	r3, r3, r2
	mov	r0, r3
	bl	_ZNK4_STL8ios_basecvPvEv(PLT)
	mov	r3, r0
	cmp	r3, #0
	moveq	r3, #0
	movne	r3, #1
	uxtb	r3, r3
	cmp	r3, #0
	bne	.L113
	.loc 14 85 0
	ldr	r3, .L163+28
.LPIC6:
	add	r3, pc, r3
	mov	r0, r3
	bl	_ZN4_STL4listIdNS_9allocatorIdEEE4sortEv(PLT)
	.loc 14 88 0
	add	r3, sp, #528
	mov	r0, r3
	ldr	r3, .L163+32
.LPIC7:
	add	r3, pc, r3
	mov	r1, r3
	mov	r2, #8
	bl	_ZN4_STL14basic_ifstreamIcNS_11char_traitsIcEEEC1EPKci(PLT)
	.loc 14 90 0
	ldr	r1, .L163+36
	mov	r2, #0
	mov	r3, #0
	add	r0, sp, #1504
	strd	r2, [r0, r1]
	.loc 14 91 0
	b	.L114
.L115:
	.loc 14 92 0
	add	r3, sp, #808
	ldr	r2, .L163+40
.LPIC8:
	add	r2, pc, r2
	mov	r0, r2
	mov	r1, r3
	bl	_ZN4_STL4listIdNS_9allocatorIdEEE9push_backERKd(PLT)
.L114:
	.loc 14 91 0 discriminator 1
	add	r2, sp, #528
	add	r3, sp, #808
	mov	r0, r2
	mov	r1, r3
	bl	_ZN4_STL13basic_istreamIcNS_11char_traitsIcEEErsERd(PLT)
	mov	r3, r0
	ldr	r2, [r3]
	sub	r2, r2, #12
	ldr	r2, [r2]
	add	r3, r3, r2
	mov	r0, r3
	bl	_ZNK4_STL8ios_basecvPvEv(PLT)
	mov	r3, r0
	cmp	r3, #0
	moveq	r3, #0
	movne	r3, #1
	uxtb	r3, r3
	cmp	r3, #0
	bne	.L115
	.loc 14 94 0
	ldr	r3, .L163+44
.LPIC9:
	add	r3, pc, r3
	mov	r0, r3
	bl	_ZN4_STL4listIdNS_9allocatorIdEEE4sortEv(PLT)
	.loc 14 101 0
	ldr	r3, .L163+48
.LPIC10:
	add	r3, pc, r3
	mov	r0, r3
	bl	_Z15Iw2DCreateImagePKc(PLT)
	str	r0, [sp, #1420]
	.loc 14 102 0
	ldr	r3, .L163+52
.LPIC11:
	add	r3, pc, r3
	mov	r0, r3
	bl	_Z15Iw2DCreateImagePKc(PLT)
	str	r0, [sp, #1416]
	.loc 14 103 0
	ldr	r3, .L163+56
.LPIC12:
	add	r3, pc, r3
	mov	r0, r3
	bl	_Z15Iw2DCreateImagePKc(PLT)
	str	r0, [sp, #1412]
	.loc 14 104 0
	ldr	r3, .L163+60
.LPIC13:
	add	r3, pc, r3
	mov	r0, r3
	bl	_Z15Iw2DCreateImagePKc(PLT)
	str	r0, [sp, #1408]
	.loc 14 105 0
	ldr	r3, .L163+64
.LPIC14:
	add	r3, pc, r3
	mov	r0, r3
	bl	_Z15Iw2DCreateImagePKc(PLT)
	str	r0, [sp, #1404]
	.loc 14 106 0
	ldr	r3, .L163+68
.LPIC15:
	add	r3, pc, r3
	mov	r0, r3
	bl	_Z15Iw2DCreateImagePKc(PLT)
	str	r0, [sp, #1400]
	.loc 14 108 0
	ldr	r3, .L163+72
.LPIC16:
	add	r3, pc, r3
	mov	r0, r3
	bl	_Z15Iw2DCreateImagePKc(PLT)
	str	r0, [sp, #1396]
	.loc 14 109 0
	ldr	r3, .L163+76
.LPIC17:
	add	r3, pc, r3
	mov	r0, r3
	bl	_Z15Iw2DCreateImagePKc(PLT)
	str	r0, [sp, #1392]
	.loc 14 110 0
	ldr	r3, .L163+80
.LPIC18:
	add	r3, pc, r3
	mov	r0, r3
	bl	_Z15Iw2DCreateImagePKc(PLT)
	str	r0, [sp, #1388]
	.loc 14 111 0
	ldr	r3, .L163+84
.LPIC19:
	add	r3, pc, r3
	mov	r0, r3
	bl	_Z15Iw2DCreateImagePKc(PLT)
	str	r0, [sp, #1384]
	.loc 14 112 0
	ldr	r3, .L163+88
.LPIC20:
	add	r3, pc, r3
	mov	r0, r3
	bl	_Z15Iw2DCreateImagePKc(PLT)
	str	r0, [sp, #1380]
	.loc 14 113 0
	ldr	r3, .L163+92
.LPIC21:
	add	r3, pc, r3
	mov	r0, r3
	bl	_Z15Iw2DCreateImagePKc(PLT)
	str	r0, [sp, #1376]
	.loc 14 114 0
	ldr	r3, .L163+96
.LPIC22:
	add	r3, pc, r3
	mov	r0, r3
	bl	_Z15Iw2DCreateImagePKc(PLT)
	str	r0, [sp, #1372]
	.loc 14 115 0
	ldr	r3, .L163+100
.LPIC23:
	add	r3, pc, r3
	mov	r0, r3
	bl	_Z15Iw2DCreateImagePKc(PLT)
	str	r0, [sp, #1368]
	.loc 14 116 0
	ldr	r3, .L163+104
.LPIC24:
	add	r3, pc, r3
	mov	r0, r3
	bl	_Z15Iw2DCreateImagePKc(PLT)
	str	r0, [sp, #1364]
	.loc 14 117 0
	ldr	r3, .L163+108
.LPIC25:
	add	r3, pc, r3
	mov	r0, r3
	bl	_Z15Iw2DCreateImagePKc(PLT)
	str	r0, [sp, #1360]
	.loc 14 119 0
	ldr	r3, .L163+112
.LPIC26:
	add	r3, pc, r3
	mov	r0, r3
	bl	_Z15Iw2DCreateImagePKc(PLT)
	str	r0, [sp, #1356]
	.loc 14 120 0
	ldr	r3, .L163+116
.LPIC27:
	add	r3, pc, r3
	mov	r0, r3
	bl	_Z15Iw2DCreateImagePKc(PLT)
	str	r0, [sp, #1352]
	.loc 14 121 0
	ldr	r3, .L163+120
.LPIC28:
	add	r3, pc, r3
	mov	r0, r3
	bl	_Z15Iw2DCreateImagePKc(PLT)
	str	r0, [sp, #1348]
	.loc 14 122 0
	ldr	r3, .L163+124
.LPIC29:
	add	r3, pc, r3
	mov	r0, r3
	bl	_Z15Iw2DCreateImagePKc(PLT)
	str	r0, [sp, #1344]
	.loc 14 123 0
	ldr	r3, .L163+128
.LPIC30:
	add	r3, pc, r3
	mov	r0, r3
	bl	_Z15Iw2DCreateImagePKc(PLT)
	str	r0, [sp, #1340]
	.loc 14 124 0
	ldr	r3, .L163+132
.LPIC31:
	add	r3, pc, r3
	mov	r0, r3
	bl	_Z15Iw2DCreateImagePKc(PLT)
	str	r0, [sp, #1336]
	.loc 14 125 0
	ldr	r3, .L163+136
.LPIC32:
	add	r3, pc, r3
	mov	r0, r3
	bl	_Z15Iw2DCreateImagePKc(PLT)
	str	r0, [sp, #1332]
	.loc 14 126 0
	ldr	r3, .L163+140
.LPIC33:
	add	r3, pc, r3
	mov	r0, r3
	bl	_Z15Iw2DCreateImagePKc(PLT)
	str	r0, [sp, #1328]
	.loc 14 128 0
	ldr	r3, .L163+144
.LPIC34:
	add	r3, pc, r3
	mov	r0, r3
	bl	_Z15Iw2DCreateImagePKc(PLT)
	str	r0, [sp, #1324]
	.loc 14 129 0
	ldr	r3, .L163+148
.LPIC35:
	add	r3, pc, r3
	mov	r0, r3
	bl	_Z15Iw2DCreateImagePKc(PLT)
	str	r0, [sp, #1320]
	.loc 14 130 0
	ldr	r3, .L163+152
.LPIC36:
	add	r3, pc, r3
	mov	r0, r3
	bl	_Z15Iw2DCreateImagePKc(PLT)
	str	r0, [sp, #1316]
	.loc 14 131 0
	ldr	r3, .L163+156
.LPIC37:
	add	r3, pc, r3
	mov	r0, r3
	bl	_Z15Iw2DCreateImagePKc(PLT)
	str	r0, [sp, #1312]
	.loc 14 132 0
	ldr	r3, .L163+160
.LPIC38:
	add	r3, pc, r3
	mov	r0, r3
	bl	_Z15Iw2DCreateImagePKc(PLT)
	str	r0, [sp, #1308]
	.loc 14 133 0
	ldr	r3, .L163+164
.LPIC39:
	add	r3, pc, r3
	mov	r0, r3
	bl	_Z15Iw2DCreateImagePKc(PLT)
	str	r0, [sp, #1304]
	.loc 14 134 0
	ldr	r3, .L163+168
.LPIC40:
	add	r3, pc, r3
	mov	r0, r3
	bl	_Z15Iw2DCreateImagePKc(PLT)
	str	r0, [sp, #1300]
	.loc 14 135 0
	ldr	r3, .L163+172
.LPIC41:
	add	r3, pc, r3
	mov	r0, r3
	bl	_Z15Iw2DCreateImagePKc(PLT)
	str	r0, [sp, #1296]
	.loc 14 137 0
	ldr	r3, .L163+176
.LPIC42:
	add	r3, pc, r3
	mov	r0, r3
	bl	_Z15Iw2DCreateImagePKc(PLT)
	str	r0, [sp, #1292]
	.loc 14 138 0
	ldr	r3, .L163+180
.LPIC43:
	add	r3, pc, r3
	mov	r0, r3
	bl	_Z15Iw2DCreateImagePKc(PLT)
	str	r0, [sp, #1288]
	.loc 14 139 0
	ldr	r3, .L163+184
.LPIC44:
	add	r3, pc, r3
	mov	r0, r3
	bl	_Z15Iw2DCreateImagePKc(PLT)
	str	r0, [sp, #1284]
	.loc 14 140 0
	ldr	r3, .L163+188
.LPIC45:
	add	r3, pc, r3
	mov	r0, r3
	bl	_Z15Iw2DCreateImagePKc(PLT)
	str	r0, [sp, #1280]
	.loc 14 141 0
	ldr	r3, .L163+192
.LPIC46:
	add	r3, pc, r3
	mov	r0, r3
	bl	_Z15Iw2DCreateImagePKc(PLT)
	str	r0, [sp, #1276]
	.loc 14 142 0
	ldr	r3, .L163+196
.LPIC47:
	add	r3, pc, r3
	mov	r0, r3
	bl	_Z15Iw2DCreateImagePKc(PLT)
	str	r0, [sp, #1272]
	.loc 14 144 0
	ldr	r3, .L163+200
.LPIC48:
	add	r3, pc, r3
	mov	r0, r3
	bl	_Z15Iw2DCreateImagePKc(PLT)
	str	r0, [sp, #1268]
	.loc 14 146 0
	ldr	r3, .L163+204
.LPIC49:
	add	r3, pc, r3
	mov	r0, r3
	bl	_Z15Iw2DCreateImagePKc(PLT)
	str	r0, [sp, #1264]
	.loc 14 147 0
	ldr	r3, .L163+208
.LPIC50:
	add	r3, pc, r3
	mov	r0, r3
	bl	_Z15Iw2DCreateImagePKc(PLT)
	str	r0, [sp, #1260]
	.loc 14 148 0
	ldr	r3, .L163+212
.LPIC51:
	add	r3, pc, r3
	mov	r0, r3
	bl	_Z15Iw2DCreateImagePKc(PLT)
	str	r0, [sp, #1256]
	.loc 14 149 0
	ldr	r3, .L163+216
.LPIC52:
	add	r3, pc, r3
	mov	r0, r3
	bl	_Z15Iw2DCreateImagePKc(PLT)
	str	r0, [sp, #1252]
	.loc 14 150 0
	ldr	r3, .L163+220
.LPIC53:
	add	r3, pc, r3
	mov	r0, r3
	bl	_Z15Iw2DCreateImagePKc(PLT)
	str	r0, [sp, #1248]
	.loc 14 151 0
	ldr	r3, .L163+224
.LPIC54:
	add	r3, pc, r3
	mov	r0, r3
	bl	_Z15Iw2DCreateImagePKc(PLT)
	str	r0, [sp, #1244]
	.loc 14 152 0
	ldr	r3, .L163+228
.LPIC55:
	add	r3, pc, r3
	mov	r0, r3
	bl	_Z15Iw2DCreateImagePKc(PLT)
	str	r0, [sp, #1240]
	.loc 14 153 0
	ldr	r3, .L163+232
.LPIC56:
	add	r3, pc, r3
	mov	r0, r3
	bl	_Z15Iw2DCreateImagePKc(PLT)
	str	r0, [sp, #1236]
	.loc 14 154 0
	ldr	r3, .L163+236
.LPIC57:
	add	r3, pc, r3
	mov	r0, r3
	bl	_Z15Iw2DCreateImagePKc(PLT)
	str	r0, [sp, #1232]
	.loc 14 158 0
	ldr	r3, .L163+240
.LPIC58:
	add	r3, pc, r3
	mov	r0, r3
	bl	_Z15Iw2DCreateImagePKc(PLT)
	mov	r3, r0
	str	r3, [sp, #28]
	.loc 14 159 0
	ldr	r3, .L163+244
.LPIC59:
	add	r3, pc, r3
	mov	r0, r3
	bl	_Z15Iw2DCreateImagePKc(PLT)
	mov	r3, r0
	str	r3, [sp, #32]
	.loc 14 160 0
	ldr	r3, .L163+248
.LPIC60:
	add	r3, pc, r3
	mov	r0, r3
	bl	_Z15Iw2DCreateImagePKc(PLT)
	mov	r3, r0
	str	r3, [sp, #36]
	.loc 14 161 0
	ldr	r3, .L163+252
.LPIC61:
	add	r3, pc, r3
	mov	r0, r3
	bl	_Z15Iw2DCreateImagePKc(PLT)
	mov	r3, r0
	str	r3, [sp, #40]
	.loc 14 162 0
	ldr	r3, .L163+256
.LPIC62:
	add	r3, pc, r3
	mov	r0, r3
	bl	_Z15Iw2DCreateImagePKc(PLT)
	mov	r3, r0
	str	r3, [sp, #44]
	.loc 14 163 0
	ldr	r3, .L163+260
.LPIC63:
	add	r3, pc, r3
	mov	r0, r3
	bl	_Z15Iw2DCreateImagePKc(PLT)
	mov	r3, r0
	str	r3, [sp, #48]
	.loc 14 164 0
	ldr	r3, .L163+264
.LPIC64:
	add	r3, pc, r3
	mov	r0, r3
	bl	_Z15Iw2DCreateImagePKc(PLT)
	mov	r3, r0
	str	r3, [sp, #52]
	.loc 14 165 0
	ldr	r3, .L163+268
.LPIC65:
	add	r3, pc, r3
	mov	r0, r3
	bl	_Z15Iw2DCreateImagePKc(PLT)
	str	r0, [sp, #1228]
	.loc 14 166 0
	ldr	r3, .L163+272
.LPIC66:
	add	r3, pc, r3
	mov	r0, r3
	bl	_Z15Iw2DCreateImagePKc(PLT)
	str	r0, [sp, #1224]
	.loc 14 169 0
	ldr	r3, [sp, #1436]
	mov	r2, r3, lsr #31
	add	r3, r2, r3
	mov	r3, r3, asr #1
	mov	r0, r3
	bl	__aeabi_i2d(PLT)
	mov	r2, r0
	mov	r3, r1
	mov	r0, r2
	mov	r1, r3
	mov	r2, #0
	ldr	r3, .L163+276
	bl	__aeabi_dsub(PLT)
	mov	r2, r0
	mov	r3, r1
	mov	r0, r2
	mov	r1, r3
	bl	__aeabi_d2f(PLT)
	mov	r4, r0
	ldr	r3, [sp, #1432]
	mov	r2, r3, lsr #31
	add	r3, r2, r3
	mov	r3, r3, asr #1
	mov	r0, r3
	bl	__aeabi_i2d(PLT)
	mov	r2, r0
	mov	r3, r1
	mov	r0, r2
	mov	r1, r3
	mov	r2, #0
	ldr	r3, .L163+276
	bl	__aeabi_dsub(PLT)
	mov	r2, r0
	mov	r3, r1
	mov	r0, r2
	mov	r1, r3
	bl	__aeabi_d2f(PLT)
	mov	r3, r0
	add	r2, sp, #800
	mov	r0, r2
	mov	r1, r4
	mov	r2, r3
	bl	_ZN8CIwFVec2C1Eff(PLT)
	.loc 14 170 0
	bl	s3eTimerGetMs(PLT)
	mov	r2, r0
	mov	r3, r1
	mov	r3, r2
	str	r3, [sp, #1220]
	.loc 14 171 0
	mov	r3, #0
	str	r3, [sp, #1468]
	.loc 14 172 0
	ldr	r3, .L163+384
	str	r3, [sp, #1464]	@ float
	.loc 14 173 0
	add	r3, sp, #788
	mov	r0, r3
	bl	_ZN4_STL12basic_stringIcNS_11char_traitsIcEENS_9allocatorIcEEEC1Ev(PLT)
	.loc 14 178 0
	b	.L116
.L164:
	.align	2
.L163:
	.word	.LC0-(.LPIC1+8)
	.word	-680
	.word	EasyScores-(.LPIC2+8)
	.word	EasyScores-(.LPIC3+8)
	.word	.LC1-(.LPIC4+8)
	.word	-688
	.word	MediumScores-(.LPIC5+8)
	.word	MediumScores-(.LPIC6+8)
	.word	.LC2-(.LPIC7+8)
	.word	-696
	.word	HardScores-(.LPIC8+8)
	.word	HardScores-(.LPIC9+8)
	.word	.LC3-(.LPIC10+8)
	.word	.LC4-(.LPIC11+8)
	.word	.LC5-(.LPIC12+8)
	.word	.LC6-(.LPIC13+8)
	.word	.LC7-(.LPIC14+8)
	.word	.LC8-(.LPIC15+8)
	.word	.LC3-(.LPIC16+8)
	.word	.LC9-(.LPIC17+8)
	.word	.LC10-(.LPIC18+8)
	.word	.LC11-(.LPIC19+8)
	.word	.LC12-(.LPIC20+8)
	.word	.LC13-(.LPIC21+8)
	.word	.LC14-(.LPIC22+8)
	.word	.LC15-(.LPIC23+8)
	.word	.LC16-(.LPIC24+8)
	.word	.LC17-(.LPIC25+8)
	.word	.LC18-(.LPIC26+8)
	.word	.LC19-(.LPIC27+8)
	.word	.LC20-(.LPIC28+8)
	.word	.LC21-(.LPIC29+8)
	.word	.LC22-(.LPIC30+8)
	.word	.LC23-(.LPIC31+8)
	.word	.LC24-(.LPIC32+8)
	.word	.LC25-(.LPIC33+8)
	.word	.LC3-(.LPIC34+8)
	.word	.LC26-(.LPIC35+8)
	.word	.LC27-(.LPIC36+8)
	.word	.LC28-(.LPIC37+8)
	.word	.LC29-(.LPIC38+8)
	.word	.LC30-(.LPIC39+8)
	.word	.LC31-(.LPIC40+8)
	.word	.LC32-(.LPIC41+8)
	.word	.LC3-(.LPIC42+8)
	.word	.LC33-(.LPIC43+8)
	.word	.LC34-(.LPIC44+8)
	.word	.LC35-(.LPIC45+8)
	.word	.LC36-(.LPIC46+8)
	.word	.LC37-(.LPIC47+8)
	.word	.LC3-(.LPIC48+8)
	.word	.LC38-(.LPIC49+8)
	.word	.LC39-(.LPIC50+8)
	.word	.LC40-(.LPIC51+8)
	.word	.LC41-(.LPIC52+8)
	.word	.LC42-(.LPIC53+8)
	.word	.LC43-(.LPIC54+8)
	.word	.LC44-(.LPIC55+8)
	.word	.LC45-(.LPIC56+8)
	.word	.LC46-(.LPIC57+8)
	.word	.LC47-(.LPIC58+8)
	.word	.LC48-(.LPIC59+8)
	.word	.LC49-(.LPIC60+8)
	.word	.LC50-(.LPIC61+8)
	.word	.LC51-(.LPIC62+8)
	.word	.LC52-(.LPIC63+8)
	.word	.LC53-(.LPIC64+8)
	.word	.LC54-(.LPIC65+8)
	.word	.LC55-(.LPIC66+8)
	.word	1074003968
	.word	-320
	.word	-328
	.word	-312
	.word	1077149696
	.word	.LC56-(.LPIC67+8)
	.word	MaxLevel-(.LPIC68+8)
	.word	1083129856
	.word	-352
	.word	1079574528
	.word	-728
	.word	-344
	.word	.LC57-(.LPIC69+8)
	.word	-368
	.word	MaxLevel-(.LPIC70+8)
	.word	EasyScores-(.LPIC71+8)
	.word	EasyScores-(.LPIC72+8)
	.word	MaxLevel-(.LPIC73+8)
	.word	MaxLevel-(.LPIC74+8)
	.word	MediumScores-(.LPIC75+8)
	.word	MediumScores-(.LPIC76+8)
	.word	MaxLevel-(.LPIC77+8)
	.word	MaxLevel-(.LPIC78+8)
	.word	HardScores-(.LPIC79+8)
	.word	HardScores-(.LPIC80+8)
	.word	1074266112
	.word	.LC57-(.LPIC81+8)
	.word	1132920832
	.word	.LC58-(.LPIC82+8)
	.word	-384
	.word	1081344000
	.word	-2004318071
	.word	-296
	.word	1717986919
.L161:
.LBB13:
	.loc 14 181 0
	bl	s3eKeyboardUpdate(PLT)
	.loc 14 182 0
	bl	s3ePointerUpdate(PLT)
	.loc 14 187 0
	ldr	r3, [sp, #1436]
	ldr	r2, .L163+408
	smull	r1, r2, r2, r3
	mov	r2, r2, asr #7
	mov	r3, r3, asr #31
	rsb	r3, r3, r2
	ldr	r4, .L163+404
	mov	r0, r3
	bl	__aeabi_i2d(PLT)
	mov	r2, r0
	mov	r3, r1
	add	r0, sp, #1504
	strd	r2, [r0, r4]
	.loc 14 190 0
	ldr	r3, [sp, #1468]
	cmp	r3, #0
	bne	.L117
	.loc 14 191 0
	ldr	r3, [sp, #1404]
	str	r3, [sp]
	ldr	r3, [sp, #1400]
	str	r3, [sp, #4]
	ldr	r0, [sp, #1420]
	ldr	r1, [sp, #1416]
	ldr	r2, [sp, #1412]
	ldr	r3, [sp, #1408]
	bl	_Z6StartMP10CIw2DImageS0_S0_S0_S0_S0_(PLT)
	str	r0, [sp, #1468]
	.loc 14 192 0
	bl	_Z15Iw2DSurfaceShowv(PLT)
.L117:
	.loc 14 194 0
	ldr	r3, [sp, #1468]
	cmp	r3, #1
	bne	.L118
	.loc 14 195 0
	ldr	r3, [sp, #1380]
	str	r3, [sp]
	ldr	r3, [sp, #1376]
	str	r3, [sp, #4]
	ldr	r3, [sp, #1372]
	str	r3, [sp, #8]
	ldr	r3, [sp, #1368]
	str	r3, [sp, #12]
	ldr	r3, [sp, #1364]
	str	r3, [sp, #16]
	ldr	r3, [sp, #1360]
	str	r3, [sp, #20]
	ldr	r0, [sp, #1396]
	ldr	r1, [sp, #1392]
	ldr	r2, [sp, #1388]
	ldr	r3, [sp, #1384]
	bl	_Z6LevelMP10CIw2DImageS0_S0_S0_S0_S0_S0_S0_S0_S0_(PLT)
	str	r0, [sp, #1468]
	.loc 14 196 0
	mov	r3, #1
	str	r3, [sp, #1500]
	.loc 14 197 0
	mov	r3, #0
	str	r3, [sp, #1496]
	.loc 14 198 0
	bl	clock(PLT)
	str	r0, [sp, #1492]
	.loc 14 199 0
	mov	r3, #1
	str	r3, [sp, #1480]
	.loc 14 200 0
	mov	r3, #0
	str	r3, [sp, #1484]
	.loc 14 201 0
	mov	r3, #0
	str	r3, [sp, #1428]
	.loc 14 202 0
	ldr	r3, .L163+384
	str	r3, [sp, #1464]	@ float
	.loc 14 203 0
	mov	r3, #0
	str	r3, [sp, #1472]
	.loc 14 204 0
	bl	_Z15Iw2DSurfaceShowv(PLT)
.L118:
.LBB14:
	.loc 14 206 0
	ldr	r3, [sp, #1468]
	cmp	r3, #2
	bne	.L119
.LBB15:
	.loc 14 207 0
	ldr	r3, [sp, #1476]
	cmp	r3, #0
	bne	.L120
	.loc 14 208 0
	bl	_Z8printallv(PLT)
	.loc 14 209 0
	mov	r3, #1
	str	r3, [sp, #1476]
.L120:
.LBB16:
	.loc 14 212 0
	ldr	r3, [sp, #1480]
	cmp	r3, #1
	bne	.L121
.LBB17:
	.loc 14 213 0
	mvn	r0, #0
	bl	_Z16Iw2DSurfaceClearj(PLT)
	.loc 14 214 0
	mvn	r0, #0
	bl	_Z13Iw2DSetColourj(PLT)
	.loc 14 215 0
	bl	_Z8Iw2DInitv(PLT)
	.loc 14 216 0
	bl	_Z19Iw2DGetSurfaceWidthv(PLT)
	str	r0, [sp, #1204]
	.loc 14 217 0
	bl	_Z20Iw2DGetSurfaceHeightv(PLT)
	str	r0, [sp, #1200]
	.loc 14 218 0
	ldr	r0, [sp, #1204]
	bl	__aeabi_i2d(PLT)
	mov	r2, r0
	mov	r3, r1
	ldr	r4, .L163+288
	mov	r0, r2
	mov	r1, r3
	mov	r2, #0
	ldr	r3, .L163+396
	bl	__aeabi_ddiv(PLT)
	mov	r2, r0
	mov	r3, r1
	add	r1, sp, #1504
	strd	r2, [r1, r4]
	.loc 14 219 0
	ldr	r0, [sp, #1332]
	ldr	r1, [sp, #1328]
	ldr	r2, [sp, #1352]
	ldr	r3, [sp, #1500]
	bl	_Z7InGameMP10CIw2DImageS0_S0_i(PLT)
	str	r0, [sp, #1468]
	.loc 14 221 0
	add	r3, sp, #32
	sub	r3, r3, #8
	ldr	r0, [sp, #1500]
	mov	r1, r3
	ldr	r2, [sp, #1352]
	ldr	r3, [sp, #1228]
	bl	_Z8DrawMazeiPP10CIw2DImageS0_S0_(PLT)
	.loc 14 222 0
	ldr	r0, [sp, #1500]
	ldr	r1, [sp, #1464]	@ float
	ldr	r2, [sp, #1356]
	bl	_Z10DrawPlayerifP10CIw2DImage(PLT)
	.loc 14 223 0
	ldr	r3, [sp, #1340]
	str	r3, [sp]
	ldr	r3, [sp, #1336]
	str	r3, [sp, #4]
	ldr	r0, [sp, #1500]
	ldr	r1, [sp, #1464]	@ float
	ldr	r2, [sp, #1348]
	ldr	r3, [sp, #1344]
	bl	_Z10PlayerMoveifP10CIw2DImageS0_S0_S0_(PLT)
	.loc 14 224 0
	bl	clock(PLT)
	str	r0, [sp, #1488]
	.loc 14 225 0
	ldr	r2, [sp, #1488]
	ldr	r3, [sp, #1492]
	rsb	r3, r3, r2
	str	r3, [sp, #1496]
	.loc 14 226 0
	ldr	r3, [sp, #1496]
	rsb	r3, r3, #3984
	add	r3, r3, #15
	str	r3, [sp, #1428]
	.loc 14 227 0
	ldr	r3, [sp, #1428]
	cmp	r3, #100
	bgt	.L122
	.loc 14 228 0
	mov	r3, #0
	str	r3, [sp, #1480]
	.loc 14 229 0
	bl	clock(PLT)
	str	r0, [sp, #1492]
.L122:
	.loc 14 231 0 discriminator 1
	ldr	r0, [sp, #1428]
	bl	__aeabi_i2d(PLT)
	mov	r2, r0
	mov	r3, r1
	ldr	r4, .L163+280
	mov	r0, r2
	mov	r1, r3
	mov	r2, #0
	ldr	r3, .L163+304
	bl	__aeabi_ddiv(PLT)
	mov	r2, r0
	mov	r3, r1
	add	r0, sp, #1504
	strd	r2, [r0, r4]
	.loc 14 232 0 discriminator 1
	ldr	r4, .L163+284
	ldr	r3, .L163+280
	add	r2, sp, #1504
	ldrd	r0, [r2, r3]
	bl	floor(PLT)
	add	r3, sp, #1504
	strd	r0, [r3, r4]
	.loc 14 233 0 discriminator 1
	add	r3, sp, #764
	mov	r0, r3
	bl	_ZN4_STL12basic_stringIcNS_11char_traitsIcEENS_9allocatorIcEEEC1Ev(PLT)
	.loc 14 234 0 discriminator 1
	add	r2, sp, #836
	ldr	r3, .L163+284
	mov	r0, r2
	add	r1, sp, #1504
	ldrd	r2, [r3, r1]
	bl	_Z11doubleToStrd(PLT)
	add	r2, sp, #764
	add	r3, sp, #836
	mov	r0, r2
	mov	r1, r3
	bl	_ZN4_STL12basic_stringIcNS_11char_traitsIcEENS_9allocatorIcEEEaSERKS5_(PLT)
	add	r3, sp, #836
	mov	r0, r3
	bl	_ZN4_STL12basic_stringIcNS_11char_traitsIcEENS_9allocatorIcEEED1Ev(PLT)
	.loc 14 235 0 discriminator 1
	ldr	r2, [sp, #1200]
	mov	r3, r2
	mov	r3, r3, asl #3
	rsb	r3, r2, r3
	mov	r3, r3, asl #3
	rsb	r3, r2, r3
	ldr	r2, .L163+400
	smull	r0, r2, r2, r3
	add	r2, r2, r3
	mov	r2, r2, asr #8
	mov	r3, r3, asr #31
	rsb	r3, r3, r2
	mov	r0, r3
	bl	__aeabi_i2f(PLT)
	mov	r3, r0
	add	r2, sp, #848
	mov	r0, r2
	mov	r1, #0
	mov	r2, r3
	bl	_ZN8CIwFVec2C1Eff(PLT)
	ldr	r3, .L163+288
	add	r2, sp, #1504
	ldrd	r0, [r2, r3]
	mov	r2, #0
	ldr	r3, .L163+396
	bl	__aeabi_dmul(PLT)
	mov	r2, r0
	mov	r3, r1
	mov	r0, r2
	mov	r1, r3
	bl	__aeabi_d2f(PLT)
	mov	r4, r0
	ldr	r3, .L163+288
	add	r2, sp, #1504
	ldrd	r0, [r2, r3]
	mov	r2, #0
	ldr	r3, .L163+292
	bl	__aeabi_dmul(PLT)
	mov	r2, r0
	mov	r3, r1
	mov	r0, r2
	mov	r1, r3
	bl	__aeabi_d2f(PLT)
	mov	r3, r0
	add	r2, sp, #856
	mov	r0, r2
	mov	r1, r4
	mov	r2, r3
	bl	_ZN8CIwFVec2C1Eff(PLT)
	ldr	r3, [sp, #860]
	str	r3, [sp]
	ldr	r3, [sp, #856]
	ldr	r0, [sp, #1224]
	add	r2, sp, #848
	ldmia	r2, {r1, r2}
	bl	_Z13Iw2DDrawImageP10CIw2DImage8CIwFVec2S1_(PLT)
	.loc 14 236 0 discriminator 1
	ldr	r3, .L163+404
	add	r0, sp, #1504
	ldrd	r2, [r3, r0]
	mov	r0, r2
	mov	r1, r3
	bl	__aeabi_dadd(PLT)
	mov	r2, r0
	mov	r3, r1
	mov	r0, r2
	mov	r1, r3
	bl	__aeabi_d2iz(PLT)
	mov	r3, r0
	mov	r0, r3
	bl	_Z17IwGxPrintSetScalei(PLT)
	.loc 14 237 0 discriminator 1
	mov	r0, #255
	mov	r1, #255
	mov	r2, #0
	bl	_Z18IwGxPrintSetColourhhh(PLT)
	.loc 14 238 0 discriminator 1
	ldr	r2, [sp, #1204]
	mov	r3, r2
	mov	r3, r3, asl #2
	add	r3, r3, r2
	mov	r2, r3, asl #4
	rsb	r3, r3, r2
	ldr	r2, .L163+408
	smull	r1, r2, r2, r3
	mov	r2, r2, asr #7
	mov	r3, r3, asr #31
	rsb	r1, r3, r2
	ldr	r2, [sp, #1200]
	mov	r3, r2
	mov	r3, r3, asl #4
	rsb	r3, r2, r3
	mov	r3, r3, asl #2
	ldr	r2, .L163+400
	smull	r0, r2, r2, r3
	add	r2, r2, r3
	mov	r2, r2, asr #8
	mov	r3, r3, asr #31
	rsb	r3, r3, r2
	mov	r0, r1
	mov	r1, r3
	ldr	r3, .L163+296
.LPIC67:
	add	r3, pc, r3
	mov	r2, r3
	mov	r3, #0
	bl	_Z15IwGxPrintStringiiPKcb(PLT)
	.loc 14 239 0 discriminator 1
	ldr	r2, [sp, #1204]
	mov	r3, r2
	mov	r3, r3, asl #4
	rsb	r3, r2, r3
	mov	r2, r3, asl #4
	rsb	r3, r3, r2
	ldr	r2, .L163+408
	smull	r1, r2, r2, r3
	mov	r2, r2, asr #7
	mov	r3, r3, asr #31
	rsb	r5, r3, r2
	ldr	r2, [sp, #1200]
	mov	r3, r2
	mov	r3, r3, asl #4
	rsb	r3, r2, r3
	mov	r3, r3, asl #2
	ldr	r2, .L163+400
	smull	r0, r2, r2, r3
	add	r2, r2, r3
	mov	r2, r2, asr #8
	mov	r3, r3, asr #31
	rsb	r4, r3, r2
	add	r3, sp, #764
	mov	r0, r3
	bl	_ZNK4_STL12basic_stringIcNS_11char_traitsIcEENS_9allocatorIcEEE5c_strEv(PLT)
	mov	r3, r0
	mov	r0, r5
	mov	r1, r4
	mov	r2, r3
	mov	r3, #0
	bl	_Z15IwGxPrintStringiiPKcb(PLT)
	add	r3, sp, #764
	mov	r0, r3
	bl	_ZN4_STL12basic_stringIcNS_11char_traitsIcEENS_9allocatorIcEEED1Ev(PLT)
.L121:
.LBE17:
.LBE16:
.LBB18:
	.loc 14 242 0
	ldr	r3, [sp, #1480]
	cmp	r3, #0
	bne	.L123
.LBB19:
	.loc 14 243 0
	mvn	r0, #0
	bl	_Z16Iw2DSurfaceClearj(PLT)
	.loc 14 244 0
	mvn	r0, #0
	bl	_Z13Iw2DSetColourj(PLT)
	.loc 14 245 0
	bl	_Z8Iw2DInitv(PLT)
	.loc 14 246 0
	bl	_Z19Iw2DGetSurfaceWidthv(PLT)
	str	r0, [sp, #1172]
	.loc 14 247 0
	bl	_Z20Iw2DGetSurfaceHeightv(PLT)
	str	r0, [sp, #1168]
	.loc 14 248 0
	ldr	r0, [sp, #1172]
	bl	__aeabi_i2d(PLT)
	mov	r2, r0
	mov	r3, r1
	ldr	r4, .L163+320
	mov	r0, r2
	mov	r1, r3
	mov	r2, #0
	ldr	r3, .L163+396
	bl	__aeabi_ddiv(PLT)
	mov	r2, r0
	mov	r3, r1
	add	r1, sp, #1504
	strd	r2, [r1, r4]
	.loc 14 249 0
	ldr	r0, [sp, #1332]
	ldr	r1, [sp, #1328]
	ldr	r2, [sp, #1352]
	ldr	r3, [sp, #1500]
	bl	_Z7InGameMP10CIw2DImageS0_S0_i(PLT)
	str	r0, [sp, #1468]
	.loc 14 251 0
	add	r3, sp, #32
	sub	r3, r3, #8
	ldr	r0, [sp, #1500]
	mov	r1, r3
	ldr	r2, [sp, #1352]
	ldr	r3, [sp, #1228]
	bl	_Z8DrawMazeiPP10CIw2DImageS0_S0_(PLT)
	.loc 14 252 0
	ldr	r0, [sp, #1500]
	ldr	r1, [sp, #1464]	@ float
	ldr	r2, [sp, #1356]
	bl	_Z10DrawPlayerifP10CIw2DImage(PLT)
	str	r0, [sp, #1464]	@ float
	.loc 14 253 0
	ldr	r3, [sp, #1340]
	str	r3, [sp]
	ldr	r3, [sp, #1336]
	str	r3, [sp, #4]
	ldr	r0, [sp, #1500]
	ldr	r1, [sp, #1464]	@ float
	ldr	r2, [sp, #1348]
	ldr	r3, [sp, #1344]
	bl	_Z10PlayerMoveifP10CIw2DImageS0_S0_S0_(PLT)
	str	r0, [sp, #1500]
	.loc 14 254 0
	ldr	r3, .L163+300
.LPIC68:
	add	r3, pc, r3
	ldr	r3, [r3]
	add	r2, r3, #1
	ldr	r3, [sp, #1500]
	cmp	r2, r3
	beq	.L124
	.loc 14 254 0 is_stmt 0 discriminator 1
	bl	clock(PLT)
	str	r0, [sp, #1488]
.L124:
	.loc 14 255 0 is_stmt 1 discriminator 1
	ldr	r2, [sp, #1488]
	ldr	r3, [sp, #1492]
	rsb	r3, r3, r2
	str	r3, [sp, #1496]
	.loc 14 256 0 discriminator 1
	ldr	r2, [sp, #1484]
	ldr	r3, [sp, #1496]
	add	r3, r2, r3
	str	r3, [sp, #1428]
	.loc 14 257 0 discriminator 1
	ldr	r0, [sp, #1428]
	bl	__aeabi_i2d(PLT)
	mov	r2, r0
	mov	r3, r1
	ldr	r4, .L163+308
	mov	r0, r2
	mov	r1, r3
	mov	r2, #0
	ldr	r3, .L163+304
	bl	__aeabi_ddiv(PLT)
	mov	r2, r0
	mov	r3, r1
	add	r0, sp, #1504
	strd	r2, [r0, r4]
	.loc 14 258 0 discriminator 1
	ldr	r3, .L163+308
	add	r2, sp, #1504
	ldrd	r0, [r2, r3]
	mov	r2, #0
	ldr	r3, .L163+312
	bl	__aeabi_dmul(PLT)
	mov	r2, r0
	mov	r3, r1
	mov	r0, r2
	mov	r1, r3
	bl	floor(PLT)
	mov	r2, r0
	mov	r3, r1
	mov	r0, r2
	mov	r1, r3
	mov	r2, #0
	ldr	r3, .L163+312
	bl	__aeabi_ddiv(PLT)
	mov	r2, r0
	mov	r3, r1
	ldr	r1, .L163+316
	add	r0, sp, #1504
	strd	r2, [r0, r1]
	.loc 14 259 0 discriminator 1
	ldr	r3, .L163+316
	add	r1, sp, #1504
	ldrd	r2, [r3, r1]
	add	r1, sp, #864
	mov	r0, r1
	bl	_Z11doubleToStrd(PLT)
	add	r2, sp, #788
	add	r3, sp, #864
	mov	r0, r2
	mov	r1, r3
	bl	_ZN4_STL12basic_stringIcNS_11char_traitsIcEENS_9allocatorIcEEEaSERKS5_(PLT)
	add	r3, sp, #864
	mov	r0, r3
	bl	_ZN4_STL12basic_stringIcNS_11char_traitsIcEENS_9allocatorIcEEED1Ev(PLT)
	.loc 14 261 0 discriminator 1
	ldr	r2, [sp, #1168]
	mov	r3, r2
	mov	r3, r3, asl #3
	rsb	r3, r2, r3
	mov	r3, r3, asl #3
	rsb	r3, r2, r3
	ldr	r2, .L163+400
	smull	r0, r2, r2, r3
	add	r2, r2, r3
	mov	r2, r2, asr #8
	mov	r3, r3, asr #31
	rsb	r3, r3, r2
	mov	r0, r3
	bl	__aeabi_i2f(PLT)
	mov	r3, r0
	add	r2, sp, #876
	mov	r0, r2
	mov	r1, #0
	mov	r2, r3
	bl	_ZN8CIwFVec2C1Eff(PLT)
	ldr	r3, .L163+320
	add	r2, sp, #1504
	ldrd	r0, [r2, r3]
	mov	r2, #0
	ldr	r3, .L163+396
	bl	__aeabi_dmul(PLT)
	mov	r2, r0
	mov	r3, r1
	mov	r0, r2
	mov	r1, r3
	bl	__aeabi_d2f(PLT)
	mov	r4, r0
	ldr	r2, [sp, #1168]
	mov	r3, r2
	mov	r3, r3, asl #2
	add	r3, r3, r2
	mov	r3, r3, asl #2
	ldr	r2, .L163+400
	smull	r0, r2, r2, r3
	add	r2, r2, r3
	mov	r2, r2, asr #8
	mov	r3, r3, asr #31
	rsb	r3, r3, r2
	mov	r0, r3
	bl	__aeabi_i2f(PLT)
	mov	r3, r0
	add	r2, sp, #884
	mov	r0, r2
	mov	r1, r4
	mov	r2, r3
	bl	_ZN8CIwFVec2C1Eff(PLT)
	ldr	r3, [sp, #888]
	str	r3, [sp]
	ldr	r3, [sp, #884]
	ldr	r0, [sp, #1224]
	add	r2, sp, #876
	ldmia	r2, {r1, r2}
	bl	_Z13Iw2DDrawImageP10CIw2DImage8CIwFVec2S1_(PLT)
	.loc 14 262 0 discriminator 1
	ldr	r3, .L163+404
	add	r1, sp, #1504
	ldrd	r2, [r3, r1]
	mov	r0, r2
	mov	r1, r3
	bl	__aeabi_dadd(PLT)
	mov	r2, r0
	mov	r3, r1
	mov	r0, r2
	mov	r1, r3
	bl	__aeabi_d2iz(PLT)
	mov	r3, r0
	mov	r0, r3
	bl	_Z17IwGxPrintSetScalei(PLT)
	.loc 14 263 0 discriminator 1
	mov	r0, #255
	mov	r1, #255
	mov	r2, #0
	bl	_Z18IwGxPrintSetColourhhh(PLT)
	.loc 14 264 0 discriminator 1
	ldr	r2, [sp, #1172]
	mov	r3, r2
	mov	r3, r3, asl #2
	add	r3, r3, r2
	mov	r2, r3, asl #4
	rsb	r3, r3, r2
	ldr	r2, .L163+408
	smull	r0, r2, r2, r3
	mov	r2, r2, asr #7
	mov	r3, r3, asr #31
	rsb	r1, r3, r2
	ldr	r2, [sp, #1168]
	mov	r3, r2
	mov	r3, r3, asl #4
	rsb	r3, r2, r3
	mov	r3, r3, asl #2
	ldr	r2, .L163+400
	smull	r0, r2, r2, r3
	add	r2, r2, r3
	mov	r2, r2, asr #8
	mov	r3, r3, asr #31
	rsb	r3, r3, r2
	mov	r0, r1
	mov	r1, r3
	ldr	r3, .L163+324
.LPIC69:
	add	r3, pc, r3
	mov	r2, r3
	mov	r3, #0
	bl	_Z15IwGxPrintStringiiPKcb(PLT)
	.loc 14 265 0 discriminator 1
	ldr	r2, [sp, #1172]
	mov	r3, r2
	mov	r3, r3, asl #1
	add	r3, r3, r2
	mov	r2, r3, asl #6
	add	r3, r3, r2
	ldr	r2, .L163+408
	smull	r1, r2, r2, r3
	mov	r2, r2, asr #7
	mov	r3, r3, asr #31
	rsb	r5, r3, r2
	ldr	r2, [sp, #1168]
	mov	r3, r2
	mov	r3, r3, asl #4
	rsb	r3, r2, r3
	mov	r3, r3, asl #2
	ldr	r2, .L163+400
	smull	r0, r2, r2, r3
	add	r2, r2, r3
	mov	r2, r2, asr #8
	mov	r3, r3, asr #31
	rsb	r4, r3, r2
	add	r3, sp, #788
	mov	r0, r3
	bl	_ZNK4_STL12basic_stringIcNS_11char_traitsIcEENS_9allocatorIcEEE5c_strEv(PLT)
	mov	r3, r0
	mov	r0, r5
	mov	r1, r4
	mov	r2, r3
	mov	r3, #0
	bl	_Z15IwGxPrintStringiiPKcb(PLT)
.L123:
.LBE19:
.LBE18:
	.loc 14 269 0 discriminator 1
	bl	_Z15Iw2DSurfaceShowv(PLT)
.L119:
.LBE15:
.LBE14:
	.loc 14 272 0
	ldr	r3, [sp, #1468]
	cmp	r3, #3
	bne	.L125
	.loc 14 273 0
	mvn	r0, #0
	bl	_Z16Iw2DSurfaceClearj(PLT)
	.loc 14 274 0
	mvn	r0, #0
	bl	_Z13Iw2DSetColourj(PLT)
	.loc 14 275 0
	ldr	r3, [sp, #1480]
	cmp	r3, #0
	bne	.L126
	.loc 14 275 0 is_stmt 0 discriminator 1
	ldr	r2, [sp, #1484]
	ldr	r3, [sp, #1496]
	add	r3, r2, r3
	str	r3, [sp, #1484]
.L126:
	.loc 14 276 0 is_stmt 1 discriminator 1
	bl	clock(PLT)
	str	r0, [sp, #1492]
	.loc 14 277 0 discriminator 1
	mov	r3, #1
	str	r3, [sp, #1480]
	.loc 14 278 0 discriminator 1
	ldr	r3, [sp, #1308]
	str	r3, [sp]
	ldr	r3, [sp, #1304]
	str	r3, [sp, #4]
	ldr	r3, [sp, #1300]
	str	r3, [sp, #8]
	ldr	r3, [sp, #1296]
	str	r3, [sp, #12]
	ldr	r0, [sp, #1324]
	ldr	r1, [sp, #1320]
	ldr	r2, [sp, #1316]
	ldr	r3, [sp, #1312]
	bl	_Z6PauseMP10CIw2DImageS0_S0_S0_S0_S0_S0_S0_(PLT)
	str	r0, [sp, #1468]
	.loc 14 279 0 discriminator 1
	bl	_Z15Iw2DSurfaceShowv(PLT)
.L125:
.LBB20:
	.loc 14 282 0
	ldr	r3, [sp, #1468]
	cmp	r3, #4
	bne	.L127
.LBB21:
	.loc 14 283 0
	mvn	r0, #0
	bl	_Z16Iw2DSurfaceClearj(PLT)
	.loc 14 284 0
	bl	_Z8Iw2DInitv(PLT)
	.loc 14 285 0
	bl	_Z19Iw2DGetSurfaceWidthv(PLT)
	str	r0, [sp, #1148]
	.loc 14 286 0
	bl	_Z20Iw2DGetSurfaceHeightv(PLT)
	str	r0, [sp, #1144]
	.loc 14 287 0
	ldr	r0, [sp, #1148]
	bl	__aeabi_i2d(PLT)
	mov	r2, r0
	mov	r3, r1
	ldr	r4, .L163+328
	mov	r0, r2
	mov	r1, r3
	mov	r2, #0
	ldr	r3, .L163+396
	bl	__aeabi_ddiv(PLT)
	mov	r2, r0
	mov	r3, r1
	add	r1, sp, #1504
	strd	r2, [r1, r4]
	.loc 14 288 0
	ldr	r3, [sp, #1300]
	str	r3, [sp]
	ldr	r3, [sp, #1296]
	str	r3, [sp, #4]
	ldr	r3, [sp, #1276]
	str	r3, [sp, #8]
	ldr	r3, [sp, #1272]
	str	r3, [sp, #12]
	ldr	r0, [sp, #1292]
	ldr	r1, [sp, #1288]
	ldr	r2, [sp, #1284]
	ldr	r3, [sp, #1280]
	bl	_Z5PostMP10CIw2DImageS0_S0_S0_S0_S0_S0_S0_(PLT)
	str	r0, [sp, #1468]
	.loc 14 289 0
	ldr	r3, [sp, #1144]
	mov	r2, #100
	mul	r3, r2, r3
	ldr	r2, .L163+400
	smull	r0, r2, r2, r3
	add	r2, r2, r3
	mov	r2, r2, asr #8
	mov	r3, r3, asr #31
	rsb	r3, r3, r2
	mov	r0, r3
	bl	__aeabi_i2f(PLT)
	mov	r3, r0
	add	r2, sp, #892
	mov	r0, r2
	mov	r1, #0
	mov	r2, r3
	bl	_ZN8CIwFVec2C1Eff(PLT)
	ldr	r3, .L163+328
	add	r2, sp, #1504
	ldrd	r0, [r2, r3]
	mov	r2, #0
	ldr	r3, .L163+396
	bl	__aeabi_dmul(PLT)
	mov	r2, r0
	mov	r3, r1
	mov	r0, r2
	mov	r1, r3
	bl	__aeabi_d2f(PLT)
	mov	r4, r0
	ldr	r2, [sp, #1144]
	mov	r3, r2
	mov	r3, r3, asl #2
	add	r3, r3, r2
	mov	r3, r3, asl #3
	ldr	r2, .L163+400
	smull	r0, r2, r2, r3
	add	r2, r2, r3
	mov	r2, r2, asr #8
	mov	r3, r3, asr #31
	rsb	r3, r3, r2
	mov	r0, r3
	bl	__aeabi_i2f(PLT)
	mov	r3, r0
	add	r2, sp, #900
	mov	r0, r2
	mov	r1, r4
	mov	r2, r3
	bl	_ZN8CIwFVec2C1Eff(PLT)
	ldr	r3, [sp, #904]
	str	r3, [sp]
	ldr	r3, [sp, #900]
	ldr	r0, [sp, #1224]
	add	r2, sp, #892
	ldmia	r2, {r1, r2}
	bl	_Z13Iw2DDrawImageP10CIw2DImage8CIwFVec2S1_(PLT)
	.loc 14 291 0
	ldr	r3, .L163+332
.LPIC70:
	add	r3, pc, r3
	ldr	r3, [r3]
	cmp	r3, #3
	bne	.L128
	.loc 14 292 0
	ldr	r3, [sp, #1472]
	cmp	r3, #0
	bne	.L128
	.loc 14 293 0
	add	r3, sp, #776
	ldr	r2, .L163+336
.LPIC71:
	add	r2, pc, r2
	mov	r0, r2
	mov	r1, r3
	bl	_ZN4_STL4listIdNS_9allocatorIdEEE9push_backERKd(PLT)
	.loc 14 294 0
	mov	r3, #1
	str	r3, [sp, #1472]
	.loc 14 295 0
	ldr	r3, .L163+340
.LPIC72:
	add	r3, pc, r3
	mov	r0, r3
	bl	_ZN4_STL4listIdNS_9allocatorIdEEE4sortEv(PLT)
.L128:
	.loc 14 298 0
	ldr	r3, .L163+344
.LPIC73:
	add	r3, pc, r3
	ldr	r3, [r3]
	cmp	r3, #4
	beq	.L129
	.loc 14 298 0 is_stmt 0 discriminator 1
	ldr	r3, .L163+348
.LPIC74:
	add	r3, pc, r3
	ldr	r3, [r3]
	cmp	r3, #5
	bne	.L130
.L129:
	.loc 14 299 0 is_stmt 1
	ldr	r3, [sp, #1472]
	cmp	r3, #0
	bne	.L130
	.loc 14 300 0
	add	r3, sp, #776
	ldr	r2, .L163+352
.LPIC75:
	add	r2, pc, r2
	mov	r0, r2
	mov	r1, r3
	bl	_ZN4_STL4listIdNS_9allocatorIdEEE9push_backERKd(PLT)
	.loc 14 301 0
	mov	r3, #1
	str	r3, [sp, #1472]
	.loc 14 302 0
	ldr	r3, .L163+356
.LPIC76:
	add	r3, pc, r3
	mov	r0, r3
	bl	_ZN4_STL4listIdNS_9allocatorIdEEE4sortEv(PLT)
.L130:
	.loc 14 305 0
	ldr	r3, .L163+360
.LPIC77:
	add	r3, pc, r3
	ldr	r3, [r3]
	cmp	r3, #6
	beq	.L131
	.loc 14 305 0 is_stmt 0 discriminator 1
	ldr	r3, .L163+364
.LPIC78:
	add	r3, pc, r3
	ldr	r3, [r3]
	cmp	r3, #7
	bne	.L132
.L131:
	.loc 14 306 0 is_stmt 1
	ldr	r3, [sp, #1472]
	cmp	r3, #0
	bne	.L132
	.loc 14 307 0
	add	r3, sp, #776
	ldr	r2, .L163+368
.LPIC79:
	add	r2, pc, r2
	mov	r0, r2
	mov	r1, r3
	bl	_ZN4_STL4listIdNS_9allocatorIdEEE9push_backERKd(PLT)
	.loc 14 308 0
	mov	r3, #1
	str	r3, [sp, #1472]
	.loc 14 309 0
	ldr	r3, .L163+372
.LPIC80:
	add	r3, pc, r3
	mov	r0, r3
	bl	_ZN4_STL4listIdNS_9allocatorIdEEE4sortEv(PLT)
.L132:
	.loc 14 312 0 discriminator 2
	ldr	r3, .L163+404
	add	r2, sp, #1504
	ldrd	r0, [r2, r3]
	mov	r2, #0
	ldr	r3, .L163+376
	bl	__aeabi_dmul(PLT)
	mov	r2, r0
	mov	r3, r1
	mov	r0, r2
	mov	r1, r3
	bl	__aeabi_d2iz(PLT)
	mov	r3, r0
	mov	r0, r3
	bl	_Z17IwGxPrintSetScalei(PLT)
	.loc 14 313 0 discriminator 2
	mov	r0, #255
	mov	r1, #255
	mov	r2, #0
	bl	_Z18IwGxPrintSetColourhhh(PLT)
	.loc 14 314 0 discriminator 2
	ldr	r2, [sp, #1148]
	mov	r3, r2
	mov	r3, r3, asl #4
	rsb	r3, r2, r3
	mov	r3, r3, asl #2
	ldr	r2, .L163+408
	smull	r0, r2, r2, r3
	mov	r2, r2, asr #7
	mov	r3, r3, asr #31
	rsb	r2, r3, r2
	ldr	r3, [sp, #1144]
	mov	r1, #110
	mul	r3, r1, r3
	ldr	r1, .L163+400
	smull	r0, r1, r1, r3
	add	r1, r1, r3
	mov	r1, r1, asr #8
	mov	r3, r3, asr #31
	rsb	r3, r3, r1
	mov	r0, r2
	mov	r1, r3
	ldr	r3, .L163+380
.LPIC81:
	add	r3, pc, r3
	mov	r2, r3
	mov	r3, #0
	bl	_Z15IwGxPrintStringiiPKcb(PLT)
	.loc 14 315 0 discriminator 2
	ldr	r3, [sp, #1148]
	mov	r2, #180
	mul	r3, r2, r3
	ldr	r2, .L163+408
	smull	r1, r2, r2, r3
	mov	r2, r2, asr #7
	mov	r3, r3, asr #31
	rsb	r5, r3, r2
	ldr	r3, [sp, #1144]
	mov	r2, #110
	mul	r3, r2, r3
	ldr	r2, .L163+400
	smull	r0, r2, r2, r3
	add	r2, r2, r3
	mov	r2, r2, asr #8
	mov	r3, r3, asr #31
	rsb	r4, r3, r2
	add	r3, sp, #788
	mov	r0, r3
	bl	_ZNK4_STL12basic_stringIcNS_11char_traitsIcEENS_9allocatorIcEEE5c_strEv(PLT)
	mov	r3, r0
	mov	r0, r5
	mov	r1, r4
	mov	r2, r3
	mov	r3, #0
	bl	_Z15IwGxPrintStringiiPKcb(PLT)
	.loc 14 316 0 discriminator 2
	bl	_Z15Iw2DSurfaceShowv(PLT)
.L127:
.LBE21:
.LBE20:
	.loc 14 319 0
	ldr	r3, [sp, #1468]
	cmp	r3, #5
	bne	.L133
	.loc 14 320 0
	ldr	r3, .L163+384
	str	r3, [sp, #1464]	@ float
	.loc 14 321 0
	mov	r3, #1
	str	r3, [sp, #1500]
	.loc 14 322 0
	mov	r3, #0
	str	r3, [sp, #1496]
	.loc 14 323 0
	bl	clock(PLT)
	str	r0, [sp, #1492]
	.loc 14 324 0
	mov	r3, #0
	str	r3, [sp, #1428]
	.loc 14 325 0
	mov	r3, #1
	str	r3, [sp, #1480]
	.loc 14 326 0
	mov	r3, #0
	str	r3, [sp, #1484]
	.loc 14 327 0
	mov	r3, #0
	str	r3, [sp, #1472]
	.loc 14 328 0
	mov	r3, #2
	str	r3, [sp, #1468]
.L133:
.LBB22:
	.loc 14 331 0
	ldr	r3, [sp, #1468]
	cmp	r3, #7
	bne	.L134
.LBB23:
	.loc 14 332 0
	ldr	r3, [sp, #1252]
	str	r3, [sp]
	ldr	r3, [sp, #1248]
	str	r3, [sp, #4]
	ldr	r3, [sp, #1244]
	str	r3, [sp, #8]
	ldr	r3, [sp, #1240]
	str	r3, [sp, #12]
	ldr	r3, [sp, #1236]
	str	r3, [sp, #16]
	ldr	r3, [sp, #1232]
	str	r3, [sp, #20]
	ldr	r0, [sp, #1268]
	ldr	r1, [sp, #1264]
	ldr	r2, [sp, #1388]
	ldr	r3, [sp, #1384]
	bl	_Z5EasyMP10CIw2DImageS0_S0_S0_S0_S0_S0_S0_S0_S0_(PLT)
	str	r0, [sp, #1468]
	.loc 14 333 0
	ldr	r3, .L163+388
.LPIC82:
	add	r3, pc, r3
	mov	r0, r3
	bl	puts(PLT)
	.loc 14 334 0
	bl	_Z8Iw2DInitv(PLT)
	.loc 14 335 0
	bl	_Z19Iw2DGetSurfaceWidthv(PLT)
	str	r0, [sp, #1132]
	.loc 14 336 0
	bl	_Z20Iw2DGetSurfaceHeightv(PLT)
	str	r0, [sp, #1128]
	.loc 14 337 0
	ldr	r0, [sp, #1132]
	bl	__aeabi_i2d(PLT)
	mov	r2, r0
	mov	r3, r1
	ldr	r4, .L163+392
	mov	r0, r2
	mov	r1, r3
	mov	r2, #0
	ldr	r3, .L163+396
	bl	__aeabi_ddiv(PLT)
	mov	r2, r0
	mov	r3, r1
	add	r1, sp, #1504
	strd	r2, [r1, r4]
	.loc 14 338 0
	ldr	r3, [sp, #1128]
	mov	r2, #150
	mul	r3, r2, r3
	ldr	r2, .L163+400
	smull	r0, r2, r2, r3
	add	r2, r2, r3
	mov	r2, r2, asr #8
	mov	r3, r3, asr #31
	rsb	r3, r3, r2
	mov	r0, r3
	bl	__aeabi_i2f(PLT)
	mov	r3, r0
	add	r2, sp, #908
	mov	r0, r2
	mov	r1, #0
	mov	r2, r3
	bl	_ZN8CIwFVec2C1Eff(PLT)
	ldr	r3, .L163+392
	add	r2, sp, #1504
	ldrd	r0, [r2, r3]
	mov	r2, #0
	ldr	r3, .L163+396
	bl	__aeabi_dmul(PLT)
	mov	r2, r0
	mov	r3, r1
	mov	r0, r2
	mov	r1, r3
	bl	__aeabi_d2f(PLT)
	mov	r4, r0
	ldr	r2, [sp, #1128]
	mov	r3, r2
	mov	r3, r3, asl #3
	add	r3, r3, r2
	mov	r2, r3, asl #4
	rsb	r2, r3, r2
	mov	r3, r2, asl #1
	mov	r2, r3
	mov	r3, r2
	ldr	r2, .L163+400
	smull	r0, r2, r2, r3
	add	r2, r2, r3
	mov	r2, r2, asr #8
	mov	r3, r3, asr #31
	rsb	r3, r3, r2
	mov	r0, r3
	bl	__aeabi_i2f(PLT)
	mov	r3, r0
	add	r2, sp, #916
	mov	r0, r2
	mov	r1, r4
	mov	r2, r3
	bl	_ZN8CIwFVec2C1Eff(PLT)
	ldr	r3, [sp, #920]
	str	r3, [sp]
	ldr	r3, [sp, #916]
	ldr	r0, [sp, #1224]
	add	r2, sp, #908
	ldmia	r2, {r1, r2}
	bl	_Z13Iw2DDrawImageP10CIw2DImage8CIwFVec2S1_(PLT)
	.loc 14 339 0
	mov	r3, #1
	str	r3, [sp, #1460]
	.loc 14 340 0
	ldr	r3, .L163+404
	add	r1, sp, #1504
	ldrd	r2, [r3, r1]
	mov	r0, r2
	mov	r1, r3
	bl	__aeabi_dadd(PLT)
	mov	r2, r0
	mov	r3, r1
	mov	r0, r2
	mov	r1, r3
	bl	__aeabi_d2iz(PLT)
	mov	r3, r0
	mov	r0, r3
	bl	_Z17IwGxPrintSetScalei(PLT)
	.loc 14 341 0
	mov	r0, #255
	mov	r1, #255
	mov	r2, #255
	bl	_Z18IwGxPrintSetColourhhh(PLT)
	.loc 14 342 0
	ldr	r3, [sp, #1132]
	mov	r2, #50
	mul	r3, r2, r3
	ldr	r2, .L163+408
	smull	r0, r2, r2, r3
	mov	r2, r2, asr #7
	mov	r3, r3, asr #31
	rsb	r1, r3, r2
	ldr	r2, [sp, #1128]
	mov	r3, r2
	mov	r3, r3, asl #2
	add	r3, r3, r2
	mov	r2, r3, asl #5
	rsb	r3, r3, r2
	ldr	r2, .L165
	smull	r0, r2, r2, r3
	add	r2, r2, r3
	mov	r2, r2, asr #8
	mov	r3, r3, asr #31
	rsb	r3, r3, r2
	mov	r0, r1
	mov	r1, r3
	ldr	r3, .L165+4
.LPIC83:
	add	r3, pc, r3
	mov	r2, r3
	mov	r3, #0
	bl	_Z15IwGxPrintStringiiPKcb(PLT)
	.loc 14 343 0
	ldr	r3, [sp, #1132]
	mov	r2, #190
	mul	r3, r2, r3
	ldr	r2, .L165+8
	smull	r1, r2, r2, r3
	mov	r2, r2, asr #7
	mov	r3, r3, asr #31
	rsb	r1, r3, r2
	ldr	r2, [sp, #1128]
	mov	r3, r2
	mov	r3, r3, asl #2
	add	r3, r3, r2
	mov	r2, r3, asl #5
	rsb	r3, r3, r2
	ldr	r2, .L165
	smull	r0, r2, r2, r3
	add	r2, r2, r3
	mov	r2, r2, asr #8
	mov	r3, r3, asr #31
	rsb	r3, r3, r2
	mov	r0, r1
	mov	r1, r3
	ldr	r3, .L165+12
.LPIC84:
	add	r3, pc, r3
	mov	r2, r3
	mov	r3, #0
	bl	_Z15IwGxPrintStringiiPKcb(PLT)
.LBB24:
	.loc 14 344 0
	mov	r3, #1
	str	r3, [sp, #1456]
	b	.L135
.L138:
	.loc 14 345 0
	ldr	r3, [sp, #1456]
	cmp	r3, #10
	beq	.L136
	.loc 14 346 0
	ldr	r3, [sp, #1132]
	mov	r2, #70
	mul	r3, r2, r3
	ldr	r2, .L165+8
	smull	r1, r2, r2, r3
	mov	r2, r2, asr #7
	mov	r3, r3, asr #31
	rsb	r5, r3, r2
	ldr	r2, [sp, #1456]
	mov	r3, r2
	mov	r3, r3, asl #1
	add	r3, r3, r2
	mov	r3, r3, asl #3
	rsb	r3, r2, r3
	add	r3, r3, #160
	ldr	r2, [sp, #1128]
	mul	r3, r2, r3
	ldr	r2, .L165
	smull	r0, r2, r2, r3
	add	r2, r2, r3
	mov	r2, r2, asr #8
	mov	r3, r3, asr #31
	rsb	r4, r3, r2
	ldr	r0, [sp, #1456]
	bl	__aeabi_i2d(PLT)
	mov	r2, r0
	mov	r3, r1
	add	r1, sp, #924
	mov	r0, r1
	bl	_Z11doubleToStrd(PLT)
	add	r3, sp, #924
	mov	r0, r3
	bl	_ZNK4_STL12basic_stringIcNS_11char_traitsIcEENS_9allocatorIcEEE5c_strEv(PLT)
	mov	r3, r0
	mov	r0, r5
	mov	r1, r4
	mov	r2, r3
	mov	r3, #0
	bl	_Z15IwGxPrintStringiiPKcb(PLT)
	add	r3, sp, #924
	mov	r0, r3
	bl	_ZN4_STL12basic_stringIcNS_11char_traitsIcEENS_9allocatorIcEEED1Ev(PLT)
	b	.L137
.L136:
	.loc 14 349 0
	ldr	r2, [sp, #1132]
	mov	r3, r2
	mov	r3, r3, asl #4
	rsb	r3, r2, r3
	mov	r3, r3, asl #2
	ldr	r2, .L165+8
	smull	r1, r2, r2, r3
	mov	r2, r2, asr #7
	mov	r3, r3, asr #31
	rsb	r5, r3, r2
	ldr	r2, [sp, #1456]
	mov	r3, r2
	mov	r3, r3, asl #1
	add	r3, r3, r2
	mov	r3, r3, asl #3
	rsb	r3, r2, r3
	add	r3, r3, #160
	ldr	r2, [sp, #1128]
	mul	r3, r2, r3
	ldr	r2, .L165
	smull	r0, r2, r2, r3
	add	r2, r2, r3
	mov	r2, r2, asr #8
	mov	r3, r3, asr #31
	rsb	r4, r3, r2
	ldr	r0, [sp, #1456]
	bl	__aeabi_i2d(PLT)
	mov	r2, r0
	mov	r3, r1
	add	r1, sp, #936
	mov	r0, r1
	bl	_Z11doubleToStrd(PLT)
	add	r3, sp, #936
	mov	r0, r3
	bl	_ZNK4_STL12basic_stringIcNS_11char_traitsIcEENS_9allocatorIcEEE5c_strEv(PLT)
	mov	r3, r0
	mov	r0, r5
	mov	r1, r4
	mov	r2, r3
	mov	r3, #0
	bl	_Z15IwGxPrintStringiiPKcb(PLT)
	add	r3, sp, #936
	mov	r0, r3
	bl	_ZN4_STL12basic_stringIcNS_11char_traitsIcEENS_9allocatorIcEEED1Ev(PLT)
.L137:
	.loc 14 344 0
	ldr	r3, [sp, #1456]
	add	r3, r3, #1
	str	r3, [sp, #1456]
.L135:
	.loc 14 344 0 is_stmt 0 discriminator 1
	ldr	r3, [sp, #1456]
	cmp	r3, #10
	ble	.L138
.LBE24:
	.loc 14 352 0 is_stmt 1
	add	r3, sp, #948
	mov	r0, r3
	ldr	r3, .L165+16
.LPIC85:
	add	r3, pc, r3
	mov	r1, r3
	bl	_ZN4_STL4listIdNS_9allocatorIdEEE5beginEv(PLT)
	ldr	r3, .L165+20
.LPIC86:
	add	r3, pc, r3
	ldr	r2, [sp, #948]
	str	r2, [r3]
	b	.L139
.L142:
	.loc 14 353 0
	ldr	r3, .L165+24
.LPIC87:
	add	r3, pc, r3
	mov	r0, r3
	bl	_ZNK4_STL14_List_iteratorIdNS_16_Nonconst_traitsIdEEEdeEv(PLT)
	mov	r3, r0
	ldrd	r2, [r3]
	ldr	r1, .L165+28
.LPIC88:
	add	r1, pc, r1
	mov	r0, r1
	bl	printf(PLT)
	.loc 14 354 0
	ldr	r3, [sp, #1132]
	mov	r2, #190
	mul	r3, r2, r3
	ldr	r2, .L165+8
	smull	r1, r2, r2, r3
	mov	r2, r2, asr #7
	mov	r3, r3, asr #31
	rsb	r5, r3, r2
	ldr	r2, [sp, #1460]
	mov	r3, r2
	mov	r3, r3, asl #1
	add	r3, r3, r2
	mov	r3, r3, asl #3
	rsb	r3, r2, r3
	add	r3, r3, #160
	ldr	r2, [sp, #1128]
	mul	r3, r2, r3
	ldr	r2, .L165
	smull	r0, r2, r2, r3
	add	r2, r2, r3
	mov	r2, r2, asr #8
	mov	r3, r3, asr #31
	rsb	r4, r3, r2
	ldr	r3, .L165+32
.LPIC89:
	add	r3, pc, r3
	mov	r0, r3
	bl	_ZNK4_STL14_List_iteratorIdNS_16_Nonconst_traitsIdEEEdeEv(PLT)
	mov	r3, r0
	ldrd	r2, [r3]
	add	r1, sp, #952
	mov	r0, r1
	bl	_Z11doubleToStrd(PLT)
	add	r3, sp, #952
	mov	r0, r3
	bl	_ZNK4_STL12basic_stringIcNS_11char_traitsIcEENS_9allocatorIcEEE5c_strEv(PLT)
	mov	r3, r0
	mov	r0, r5
	mov	r1, r4
	mov	r2, r3
	mov	r3, #0
	bl	_Z15IwGxPrintStringiiPKcb(PLT)
	add	r3, sp, #952
	mov	r0, r3
	bl	_ZN4_STL12basic_stringIcNS_11char_traitsIcEENS_9allocatorIcEEED1Ev(PLT)
	.loc 14 355 0
	ldr	r3, [sp, #1460]
	add	r3, r3, #1
	str	r3, [sp, #1460]
	.loc 14 356 0
	ldr	r3, [sp, #1460]
	cmp	r3, #10
	ble	.L140
	.loc 14 356 0 is_stmt 0 discriminator 1
	b	.L141
.L140:
	.loc 14 352 0 is_stmt 1
	ldr	r3, .L165+36
.LPIC90:
	add	r3, pc, r3
	mov	r0, r3
	bl	_ZN4_STL14_List_iteratorIdNS_16_Nonconst_traitsIdEEEppEv(PLT)
.L139:
	.loc 14 352 0 is_stmt 0 discriminator 1
	add	r3, sp, #964
	mov	r0, r3
	ldr	r3, .L165+40
.LPIC91:
	add	r3, pc, r3
	mov	r1, r3
	bl	_ZN4_STL4listIdNS_9allocatorIdEEE3endEv(PLT)
	add	r3, sp, #964
	ldr	r2, .L165+44
.LPIC92:
	add	r2, pc, r2
	mov	r0, r2
	mov	r1, r3
	bl	_ZNK4_STL19_List_iterator_baseneERKS0_(PLT)
	mov	r3, r0
	cmp	r3, #0
	bne	.L142
.L141:
	.loc 14 358 0 is_stmt 1
	bl	_Z15Iw2DSurfaceShowv(PLT)
.L134:
.LBE23:
.LBE22:
.LBB25:
	.loc 14 360 0
	ldr	r3, [sp, #1468]
	cmp	r3, #8
	bne	.L143
.LBB26:
	.loc 14 361 0
	bl	_Z8Iw2DInitv(PLT)
	.loc 14 362 0
	bl	_Z19Iw2DGetSurfaceWidthv(PLT)
	str	r0, [sp, #1116]
	.loc 14 363 0
	bl	_Z20Iw2DGetSurfaceHeightv(PLT)
	str	r0, [sp, #1112]
	.loc 14 364 0
	ldr	r0, [sp, #1116]
	bl	__aeabi_i2d(PLT)
	mov	r2, r0
	mov	r3, r1
	ldr	r4, .L165+48
	mov	r0, r2
	mov	r1, r3
	mov	r2, #0
	ldr	r3, .L165+52
	bl	__aeabi_ddiv(PLT)
	mov	r2, r0
	mov	r3, r1
	add	r1, sp, #1504
	strd	r2, [r1, r4]
	.loc 14 365 0
	ldr	r3, [sp, #1252]
	str	r3, [sp]
	ldr	r3, [sp, #1248]
	str	r3, [sp, #4]
	ldr	r3, [sp, #1244]
	str	r3, [sp, #8]
	ldr	r3, [sp, #1240]
	str	r3, [sp, #12]
	ldr	r3, [sp, #1236]
	str	r3, [sp, #16]
	ldr	r3, [sp, #1232]
	str	r3, [sp, #20]
	ldr	r0, [sp, #1268]
	ldr	r1, [sp, #1260]
	ldr	r2, [sp, #1388]
	ldr	r3, [sp, #1384]
	bl	_Z7MediumMP10CIw2DImageS0_S0_S0_S0_S0_S0_S0_S0_S0_(PLT)
	str	r0, [sp, #1468]
	.loc 14 366 0
	ldr	r3, .L165+56
.LPIC93:
	add	r3, pc, r3
	mov	r0, r3
	bl	puts(PLT)
	.loc 14 367 0
	ldr	r3, [sp, #1112]
	mov	r2, #150
	mul	r3, r2, r3
	ldr	r2, .L165
	smull	r0, r2, r2, r3
	add	r2, r2, r3
	mov	r2, r2, asr #8
	mov	r3, r3, asr #31
	rsb	r3, r3, r2
	mov	r0, r3
	bl	__aeabi_i2f(PLT)
	mov	r3, r0
	add	r2, sp, #968
	mov	r0, r2
	mov	r1, #0
	mov	r2, r3
	bl	_ZN8CIwFVec2C1Eff(PLT)
	ldr	r3, .L165+48
	add	r2, sp, #1504
	ldrd	r0, [r2, r3]
	mov	r2, #0
	ldr	r3, .L165+52
	bl	__aeabi_dmul(PLT)
	mov	r2, r0
	mov	r3, r1
	mov	r0, r2
	mov	r1, r3
	bl	__aeabi_d2f(PLT)
	mov	r4, r0
	ldr	r2, [sp, #1112]
	mov	r3, r2
	mov	r3, r3, asl #3
	add	r3, r3, r2
	mov	r2, r3, asl #4
	rsb	r2, r3, r2
	mov	r3, r2, asl #1
	mov	r2, r3
	mov	r3, r2
	ldr	r2, .L165
	smull	r0, r2, r2, r3
	add	r2, r2, r3
	mov	r2, r2, asr #8
	mov	r3, r3, asr #31
	rsb	r3, r3, r2
	mov	r0, r3
	bl	__aeabi_i2f(PLT)
	mov	r3, r0
	add	r2, sp, #976
	mov	r0, r2
	mov	r1, r4
	mov	r2, r3
	bl	_ZN8CIwFVec2C1Eff(PLT)
	ldr	r3, [sp, #980]
	str	r3, [sp]
	ldr	r3, [sp, #976]
	ldr	r0, [sp, #1224]
	add	r2, sp, #968
	ldmia	r2, {r1, r2}
	bl	_Z13Iw2DDrawImageP10CIw2DImage8CIwFVec2S1_(PLT)
	.loc 14 368 0
	mov	r3, #1
	str	r3, [sp, #1452]
	.loc 14 369 0
	ldr	r3, .L165+60
	add	r1, sp, #1504
	ldrd	r2, [r3, r1]
	mov	r0, r2
	mov	r1, r3
	bl	__aeabi_dadd(PLT)
	mov	r2, r0
	mov	r3, r1
	mov	r0, r2
	mov	r1, r3
	bl	__aeabi_d2iz(PLT)
	mov	r3, r0
	mov	r0, r3
	bl	_Z17IwGxPrintSetScalei(PLT)
	.loc 14 370 0
	mov	r0, #255
	mov	r1, #255
	mov	r2, #255
	bl	_Z18IwGxPrintSetColourhhh(PLT)
	.loc 14 371 0
	ldr	r3, [sp, #1116]
	mov	r2, #50
	mul	r3, r2, r3
	ldr	r2, .L165+8
	smull	r0, r2, r2, r3
	mov	r2, r2, asr #7
	mov	r3, r3, asr #31
	rsb	r1, r3, r2
	ldr	r2, [sp, #1112]
	mov	r3, r2
	mov	r3, r3, asl #2
	add	r3, r3, r2
	mov	r2, r3, asl #5
	rsb	r3, r3, r2
	ldr	r2, .L165
	smull	r0, r2, r2, r3
	add	r2, r2, r3
	mov	r2, r2, asr #8
	mov	r3, r3, asr #31
	rsb	r3, r3, r2
	mov	r0, r1
	mov	r1, r3
	ldr	r3, .L165+64
.LPIC94:
	add	r3, pc, r3
	mov	r2, r3
	mov	r3, #0
	bl	_Z15IwGxPrintStringiiPKcb(PLT)
	.loc 14 372 0
	ldr	r3, [sp, #1116]
	mov	r2, #190
	mul	r3, r2, r3
	ldr	r2, .L165+8
	smull	r1, r2, r2, r3
	mov	r2, r2, asr #7
	mov	r3, r3, asr #31
	rsb	r1, r3, r2
	ldr	r2, [sp, #1112]
	mov	r3, r2
	mov	r3, r3, asl #2
	add	r3, r3, r2
	mov	r2, r3, asl #5
	rsb	r3, r3, r2
	ldr	r2, .L165
	smull	r0, r2, r2, r3
	add	r2, r2, r3
	mov	r2, r2, asr #8
	mov	r3, r3, asr #31
	rsb	r3, r3, r2
	mov	r0, r1
	mov	r1, r3
	ldr	r3, .L165+68
.LPIC95:
	add	r3, pc, r3
	mov	r2, r3
	mov	r3, #0
	bl	_Z15IwGxPrintStringiiPKcb(PLT)
.LBB27:
	.loc 14 373 0
	mov	r3, #1
	str	r3, [sp, #1448]
	b	.L144
.L147:
	.loc 14 374 0
	ldr	r3, [sp, #1448]
	cmp	r3, #10
	beq	.L145
	.loc 14 375 0
	ldr	r3, [sp, #1116]
	mov	r2, #70
	mul	r3, r2, r3
	ldr	r2, .L165+8
	smull	r1, r2, r2, r3
	mov	r2, r2, asr #7
	mov	r3, r3, asr #31
	rsb	r5, r3, r2
	ldr	r2, [sp, #1448]
	mov	r3, r2
	mov	r3, r3, asl #1
	add	r3, r3, r2
	mov	r3, r3, asl #3
	rsb	r3, r2, r3
	add	r3, r3, #160
	ldr	r2, [sp, #1112]
	mul	r3, r2, r3
	ldr	r2, .L165
	smull	r0, r2, r2, r3
	add	r2, r2, r3
	mov	r2, r2, asr #8
	mov	r3, r3, asr #31
	rsb	r4, r3, r2
	ldr	r0, [sp, #1448]
	bl	__aeabi_i2d(PLT)
	mov	r2, r0
	mov	r3, r1
	add	r1, sp, #984
	mov	r0, r1
	bl	_Z11doubleToStrd(PLT)
	add	r3, sp, #984
	mov	r0, r3
	bl	_ZNK4_STL12basic_stringIcNS_11char_traitsIcEENS_9allocatorIcEEE5c_strEv(PLT)
	mov	r3, r0
	mov	r0, r5
	mov	r1, r4
	mov	r2, r3
	mov	r3, #0
	bl	_Z15IwGxPrintStringiiPKcb(PLT)
	add	r3, sp, #984
	mov	r0, r3
	bl	_ZN4_STL12basic_stringIcNS_11char_traitsIcEENS_9allocatorIcEEED1Ev(PLT)
	b	.L146
.L145:
	.loc 14 378 0
	ldr	r2, [sp, #1116]
	mov	r3, r2
	mov	r3, r3, asl #4
	rsb	r3, r2, r3
	mov	r3, r3, asl #2
	ldr	r2, .L165+8
	smull	r1, r2, r2, r3
	mov	r2, r2, asr #7
	mov	r3, r3, asr #31
	rsb	r5, r3, r2
	ldr	r2, [sp, #1448]
	mov	r3, r2
	mov	r3, r3, asl #1
	add	r3, r3, r2
	mov	r3, r3, asl #3
	rsb	r3, r2, r3
	add	r3, r3, #160
	ldr	r2, [sp, #1112]
	mul	r3, r2, r3
	ldr	r2, .L165
	smull	r0, r2, r2, r3
	add	r2, r2, r3
	mov	r2, r2, asr #8
	mov	r3, r3, asr #31
	rsb	r4, r3, r2
	ldr	r0, [sp, #1448]
	bl	__aeabi_i2d(PLT)
	mov	r2, r0
	mov	r3, r1
	add	r1, sp, #996
	mov	r0, r1
	bl	_Z11doubleToStrd(PLT)
	add	r3, sp, #996
	mov	r0, r3
	bl	_ZNK4_STL12basic_stringIcNS_11char_traitsIcEENS_9allocatorIcEEE5c_strEv(PLT)
	mov	r3, r0
	mov	r0, r5
	mov	r1, r4
	mov	r2, r3
	mov	r3, #0
	bl	_Z15IwGxPrintStringiiPKcb(PLT)
	add	r3, sp, #996
	mov	r0, r3
	bl	_ZN4_STL12basic_stringIcNS_11char_traitsIcEENS_9allocatorIcEEED1Ev(PLT)
.L146:
	.loc 14 373 0
	ldr	r3, [sp, #1448]
	add	r3, r3, #1
	str	r3, [sp, #1448]
.L144:
	.loc 14 373 0 is_stmt 0 discriminator 1
	ldr	r3, [sp, #1448]
	cmp	r3, #10
	ble	.L147
.LBE27:
	.loc 14 381 0 is_stmt 1
	add	r3, sp, #1008
	mov	r0, r3
	ldr	r3, .L165+72
.LPIC96:
	add	r3, pc, r3
	mov	r1, r3
	bl	_ZN4_STL4listIdNS_9allocatorIdEEE5beginEv(PLT)
	ldr	r3, .L165+76
.LPIC97:
	add	r3, pc, r3
	ldr	r2, [sp, #1008]
	str	r2, [r3]
	b	.L148
.L151:
	.loc 14 382 0
	ldr	r3, .L165+80
.LPIC98:
	add	r3, pc, r3
	mov	r0, r3
	bl	_ZNK4_STL14_List_iteratorIdNS_16_Nonconst_traitsIdEEEdeEv(PLT)
	mov	r3, r0
	ldrd	r2, [r3]
	ldr	r1, .L165+84
.LPIC99:
	add	r1, pc, r1
	mov	r0, r1
	bl	printf(PLT)
	.loc 14 383 0
	ldr	r3, [sp, #1116]
	mov	r2, #190
	mul	r3, r2, r3
	ldr	r2, .L165+8
	smull	r1, r2, r2, r3
	mov	r2, r2, asr #7
	mov	r3, r3, asr #31
	rsb	r5, r3, r2
	ldr	r2, [sp, #1452]
	mov	r3, r2
	mov	r3, r3, asl #1
	add	r3, r3, r2
	mov	r3, r3, asl #3
	rsb	r3, r2, r3
	add	r3, r3, #160
	ldr	r2, [sp, #1112]
	mul	r3, r2, r3
	ldr	r2, .L165
	smull	r0, r2, r2, r3
	add	r2, r2, r3
	mov	r2, r2, asr #8
	mov	r3, r3, asr #31
	rsb	r4, r3, r2
	ldr	r3, .L165+88
.LPIC100:
	add	r3, pc, r3
	mov	r0, r3
	bl	_ZNK4_STL14_List_iteratorIdNS_16_Nonconst_traitsIdEEEdeEv(PLT)
	mov	r3, r0
	ldrd	r2, [r3]
	add	r1, sp, #1012
	mov	r0, r1
	bl	_Z11doubleToStrd(PLT)
	add	r3, sp, #1012
	mov	r0, r3
	bl	_ZNK4_STL12basic_stringIcNS_11char_traitsIcEENS_9allocatorIcEEE5c_strEv(PLT)
	mov	r3, r0
	mov	r0, r5
	mov	r1, r4
	mov	r2, r3
	mov	r3, #0
	bl	_Z15IwGxPrintStringiiPKcb(PLT)
	add	r3, sp, #1012
	mov	r0, r3
	bl	_ZN4_STL12basic_stringIcNS_11char_traitsIcEENS_9allocatorIcEEED1Ev(PLT)
	.loc 14 384 0
	ldr	r3, [sp, #1452]
	add	r3, r3, #1
	str	r3, [sp, #1452]
	.loc 14 385 0
	ldr	r3, [sp, #1452]
	cmp	r3, #10
	ble	.L149
	.loc 14 385 0 is_stmt 0 discriminator 1
	b	.L150
.L149:
	.loc 14 381 0 is_stmt 1
	ldr	r3, .L165+92
.LPIC101:
	add	r3, pc, r3
	mov	r0, r3
	bl	_ZN4_STL14_List_iteratorIdNS_16_Nonconst_traitsIdEEEppEv(PLT)
.L148:
	.loc 14 381 0 is_stmt 0 discriminator 1
	add	r3, sp, #1024
	mov	r0, r3
	ldr	r3, .L165+96
.LPIC102:
	add	r3, pc, r3
	mov	r1, r3
	bl	_ZN4_STL4listIdNS_9allocatorIdEEE3endEv(PLT)
	add	r3, sp, #1024
	ldr	r2, .L165+100
.LPIC103:
	add	r2, pc, r2
	mov	r0, r2
	mov	r1, r3
	bl	_ZNK4_STL19_List_iterator_baseneERKS0_(PLT)
	mov	r3, r0
	cmp	r3, #0
	bne	.L151
.L150:
	.loc 14 387 0 is_stmt 1
	bl	_Z15Iw2DSurfaceShowv(PLT)
.L143:
.LBE26:
.LBE25:
.LBB28:
	.loc 14 389 0
	ldr	r3, [sp, #1468]
	cmp	r3, #9
	bne	.L152
.LBB29:
	.loc 14 390 0
	bl	_Z8Iw2DInitv(PLT)
	.loc 14 391 0
	bl	_Z19Iw2DGetSurfaceWidthv(PLT)
	str	r0, [sp, #1100]
	.loc 14 392 0
	bl	_Z20Iw2DGetSurfaceHeightv(PLT)
	str	r0, [sp, #1096]
	.loc 14 393 0
	ldr	r0, [sp, #1100]
	bl	__aeabi_i2d(PLT)
	mov	r2, r0
	mov	r3, r1
	ldr	r4, .L165+104
	mov	r0, r2
	mov	r1, r3
	mov	r2, #0
	ldr	r3, .L165+52
	bl	__aeabi_ddiv(PLT)
	mov	r2, r0
	mov	r3, r1
	add	r1, sp, #1504
	strd	r2, [r1, r4]
	.loc 14 394 0
	ldr	r3, [sp, #1252]
	str	r3, [sp]
	ldr	r3, [sp, #1248]
	str	r3, [sp, #4]
	ldr	r3, [sp, #1244]
	str	r3, [sp, #8]
	ldr	r3, [sp, #1240]
	str	r3, [sp, #12]
	ldr	r3, [sp, #1236]
	str	r3, [sp, #16]
	ldr	r3, [sp, #1232]
	str	r3, [sp, #20]
	ldr	r0, [sp, #1268]
	ldr	r1, [sp, #1256]
	ldr	r2, [sp, #1388]
	ldr	r3, [sp, #1384]
	bl	_Z5HardMP10CIw2DImageS0_S0_S0_S0_S0_S0_S0_S0_S0_(PLT)
	str	r0, [sp, #1468]
	.loc 14 395 0
	ldr	r3, .L165+108
.LPIC104:
	add	r3, pc, r3
	mov	r0, r3
	bl	puts(PLT)
	.loc 14 396 0
	ldr	r3, [sp, #1096]
	mov	r2, #150
	mul	r3, r2, r3
	ldr	r2, .L165
	smull	r0, r2, r2, r3
	add	r2, r2, r3
	mov	r2, r2, asr #8
	mov	r3, r3, asr #31
	rsb	r3, r3, r2
	mov	r0, r3
	bl	__aeabi_i2f(PLT)
	mov	r3, r0
	add	r2, sp, #1024
	add	r2, r2, #4
	mov	r0, r2
	mov	r1, #0
	mov	r2, r3
	bl	_ZN8CIwFVec2C1Eff(PLT)
	ldr	r3, .L165+104
	add	r2, sp, #1504
	ldrd	r0, [r2, r3]
	mov	r2, #0
	ldr	r3, .L165+52
	bl	__aeabi_dmul(PLT)
	mov	r2, r0
	mov	r3, r1
	mov	r0, r2
	mov	r1, r3
	bl	__aeabi_d2f(PLT)
	mov	r4, r0
	ldr	r2, [sp, #1096]
	mov	r3, r2
	mov	r3, r3, asl #3
	add	r3, r3, r2
	mov	r2, r3, asl #4
	rsb	r2, r3, r2
	mov	r3, r2, asl #1
	mov	r2, r3
	mov	r3, r2
	ldr	r2, .L165
	smull	r0, r2, r2, r3
	add	r2, r2, r3
	mov	r2, r2, asr #8
	mov	r3, r3, asr #31
	rsb	r3, r3, r2
	mov	r0, r3
	bl	__aeabi_i2f(PLT)
	mov	r3, r0
	add	r2, sp, #1024
	add	r2, r2, #12
	mov	r0, r2
	mov	r1, r4
	mov	r2, r3
	bl	_ZN8CIwFVec2C1Eff(PLT)
	ldr	r3, [sp, #1040]
	str	r3, [sp]
	ldr	r3, [sp, #1036]
	ldr	r0, [sp, #1224]
	add	r2, sp, #1024
	add	r2, r2, #4
	ldmia	r2, {r1, r2}
	bl	_Z13Iw2DDrawImageP10CIw2DImage8CIwFVec2S1_(PLT)
	.loc 14 397 0
	mov	r3, #1
	str	r3, [sp, #1444]
	.loc 14 398 0
	ldr	r3, .L165+60
	add	r1, sp, #1504
	ldrd	r2, [r3, r1]
	mov	r0, r2
	mov	r1, r3
	bl	__aeabi_dadd(PLT)
	mov	r2, r0
	mov	r3, r1
	mov	r0, r2
	mov	r1, r3
	bl	__aeabi_d2iz(PLT)
	mov	r3, r0
	mov	r0, r3
	bl	_Z17IwGxPrintSetScalei(PLT)
	.loc 14 399 0
	mov	r0, #255
	mov	r1, #255
	mov	r2, #255
	bl	_Z18IwGxPrintSetColourhhh(PLT)
	.loc 14 400 0
	ldr	r3, [sp, #1100]
	mov	r2, #50
	mul	r3, r2, r3
	ldr	r2, .L165+8
	smull	r0, r2, r2, r3
	mov	r2, r2, asr #7
	mov	r3, r3, asr #31
	rsb	r1, r3, r2
	ldr	r2, [sp, #1096]
	mov	r3, r2
	mov	r3, r3, asl #2
	add	r3, r3, r2
	mov	r2, r3, asl #5
	rsb	r3, r3, r2
	ldr	r2, .L165
	smull	r0, r2, r2, r3
	add	r2, r2, r3
	mov	r2, r2, asr #8
	mov	r3, r3, asr #31
	rsb	r3, r3, r2
	mov	r0, r1
	mov	r1, r3
	ldr	r3, .L165+112
.LPIC105:
	add	r3, pc, r3
	mov	r2, r3
	mov	r3, #0
	bl	_Z15IwGxPrintStringiiPKcb(PLT)
	.loc 14 401 0
	ldr	r3, [sp, #1100]
	mov	r2, #190
	mul	r3, r2, r3
	ldr	r2, .L165+8
	smull	r1, r2, r2, r3
	mov	r2, r2, asr #7
	mov	r3, r3, asr #31
	rsb	r1, r3, r2
	ldr	r2, [sp, #1096]
	mov	r3, r2
	mov	r3, r3, asl #2
	add	r3, r3, r2
	mov	r2, r3, asl #5
	rsb	r3, r3, r2
	ldr	r2, .L165
	smull	r0, r2, r2, r3
	add	r2, r2, r3
	mov	r2, r2, asr #8
	mov	r3, r3, asr #31
	rsb	r3, r3, r2
	mov	r0, r1
	mov	r1, r3
	ldr	r3, .L165+116
.LPIC106:
	add	r3, pc, r3
	mov	r2, r3
	mov	r3, #0
	bl	_Z15IwGxPrintStringiiPKcb(PLT)
.LBB30:
	.loc 14 402 0
	mov	r3, #1
	str	r3, [sp, #1440]
	b	.L153
.L156:
	.loc 14 403 0
	ldr	r3, [sp, #1440]
	cmp	r3, #10
	beq	.L154
	.loc 14 404 0
	ldr	r3, [sp, #1100]
	mov	r2, #70
	mul	r3, r2, r3
	ldr	r2, .L165+8
	smull	r1, r2, r2, r3
	mov	r2, r2, asr #7
	mov	r3, r3, asr #31
	rsb	r5, r3, r2
	ldr	r2, [sp, #1440]
	mov	r3, r2
	mov	r3, r3, asl #1
	add	r3, r3, r2
	mov	r3, r3, asl #3
	rsb	r3, r2, r3
	add	r3, r3, #160
	ldr	r2, [sp, #1096]
	mul	r3, r2, r3
	ldr	r2, .L165
	smull	r0, r2, r2, r3
	add	r2, r2, r3
	mov	r2, r2, asr #8
	mov	r3, r3, asr #31
	rsb	r4, r3, r2
	ldr	r0, [sp, #1440]
	bl	__aeabi_i2d(PLT)
	mov	r2, r0
	mov	r3, r1
	add	r1, sp, #1040
	add	r1, r1, #4
	mov	r0, r1
	bl	_Z11doubleToStrd(PLT)
	add	r3, sp, #1040
	add	r3, r3, #4
	mov	r0, r3
	bl	_ZNK4_STL12basic_stringIcNS_11char_traitsIcEENS_9allocatorIcEEE5c_strEv(PLT)
	mov	r3, r0
	mov	r0, r5
	mov	r1, r4
	mov	r2, r3
	mov	r3, #0
	bl	_Z15IwGxPrintStringiiPKcb(PLT)
	add	r3, sp, #1040
	add	r3, r3, #4
	mov	r0, r3
	bl	_ZN4_STL12basic_stringIcNS_11char_traitsIcEENS_9allocatorIcEEED1Ev(PLT)
	b	.L155
.L154:
	.loc 14 407 0
	ldr	r2, [sp, #1100]
	mov	r3, r2
	mov	r3, r3, asl #4
	rsb	r3, r2, r3
	mov	r3, r3, asl #2
	ldr	r2, .L165+8
	smull	r1, r2, r2, r3
	mov	r2, r2, asr #7
	mov	r3, r3, asr #31
	rsb	r5, r3, r2
	ldr	r2, [sp, #1440]
	mov	r3, r2
	mov	r3, r3, asl #1
	add	r3, r3, r2
	mov	r3, r3, asl #3
	rsb	r3, r2, r3
	add	r3, r3, #160
	ldr	r2, [sp, #1096]
	mul	r3, r2, r3
	ldr	r2, .L165
	smull	r0, r2, r2, r3
	add	r2, r2, r3
	mov	r2, r2, asr #8
	mov	r3, r3, asr #31
	rsb	r4, r3, r2
	ldr	r0, [sp, #1440]
	bl	__aeabi_i2d(PLT)
	mov	r2, r0
	mov	r3, r1
	add	r1, sp, #1056
	mov	r0, r1
	bl	_Z11doubleToStrd(PLT)
	add	r3, sp, #1056
	mov	r0, r3
	bl	_ZNK4_STL12basic_stringIcNS_11char_traitsIcEENS_9allocatorIcEEE5c_strEv(PLT)
	mov	r3, r0
	mov	r0, r5
	mov	r1, r4
	mov	r2, r3
	mov	r3, #0
	bl	_Z15IwGxPrintStringiiPKcb(PLT)
	add	r3, sp, #1056
	mov	r0, r3
	bl	_ZN4_STL12basic_stringIcNS_11char_traitsIcEENS_9allocatorIcEEED1Ev(PLT)
.L155:
	.loc 14 402 0
	ldr	r3, [sp, #1440]
	add	r3, r3, #1
	str	r3, [sp, #1440]
.L153:
	.loc 14 402 0 is_stmt 0 discriminator 1
	ldr	r3, [sp, #1440]
	cmp	r3, #10
	ble	.L156
.LBE30:
	.loc 14 410 0 is_stmt 1
	add	r3, sp, #1056
	add	r3, r3, #12
	mov	r0, r3
	ldr	r3, .L165+120
.LPIC107:
	add	r3, pc, r3
	mov	r1, r3
	bl	_ZN4_STL4listIdNS_9allocatorIdEEE5beginEv(PLT)
	ldr	r3, .L165+124
.LPIC108:
	add	r3, pc, r3
	ldr	r2, [sp, #1068]
	str	r2, [r3]
	b	.L157
.L160:
	.loc 14 411 0
	ldr	r3, .L165+128
.LPIC109:
	add	r3, pc, r3
	mov	r0, r3
	bl	_ZNK4_STL14_List_iteratorIdNS_16_Nonconst_traitsIdEEEdeEv(PLT)
	mov	r3, r0
	ldrd	r2, [r3]
	ldr	r1, .L165+132
.LPIC110:
	add	r1, pc, r1
	mov	r0, r1
	bl	printf(PLT)
	.loc 14 412 0
	ldr	r3, [sp, #1100]
	mov	r2, #190
	mul	r3, r2, r3
	ldr	r2, .L165+8
	smull	r1, r2, r2, r3
	mov	r2, r2, asr #7
	mov	r3, r3, asr #31
	rsb	r5, r3, r2
	ldr	r2, [sp, #1444]
	mov	r3, r2
	mov	r3, r3, asl #1
	add	r3, r3, r2
	mov	r3, r3, asl #3
	rsb	r3, r2, r3
	add	r3, r3, #160
	ldr	r2, [sp, #1096]
	mul	r3, r2, r3
	ldr	r2, .L165
	smull	r0, r2, r2, r3
	add	r2, r2, r3
	mov	r2, r2, asr #8
	mov	r3, r3, asr #31
	rsb	r4, r3, r2
	ldr	r3, .L165+136
.LPIC111:
	add	r3, pc, r3
	mov	r0, r3
	bl	_ZNK4_STL14_List_iteratorIdNS_16_Nonconst_traitsIdEEEdeEv(PLT)
	mov	r3, r0
	ldrd	r2, [r3]
	add	r1, sp, #1072
	mov	r0, r1
	bl	_Z11doubleToStrd(PLT)
	add	r3, sp, #1072
	mov	r0, r3
	bl	_ZNK4_STL12basic_stringIcNS_11char_traitsIcEENS_9allocatorIcEEE5c_strEv(PLT)
	mov	r3, r0
	mov	r0, r5
	mov	r1, r4
	mov	r2, r3
	mov	r3, #0
	bl	_Z15IwGxPrintStringiiPKcb(PLT)
	add	r3, sp, #1072
	mov	r0, r3
	bl	_ZN4_STL12basic_stringIcNS_11char_traitsIcEENS_9allocatorIcEEED1Ev(PLT)
	.loc 14 413 0
	ldr	r3, [sp, #1444]
	add	r3, r3, #1
	str	r3, [sp, #1444]
	.loc 14 414 0
	ldr	r3, [sp, #1444]
	cmp	r3, #10
	ble	.L158
	.loc 14 414 0 is_stmt 0 discriminator 1
	b	.L159
.L158:
	.loc 14 410 0 is_stmt 1
	ldr	r3, .L165+140
.LPIC112:
	add	r3, pc, r3
	mov	r0, r3
	bl	_ZN4_STL14_List_iteratorIdNS_16_Nonconst_traitsIdEEEppEv(PLT)
.L157:
	.loc 14 410 0 is_stmt 0 discriminator 1
	add	r3, sp, #1072
	add	r3, r3, #12
	mov	r0, r3
	ldr	r3, .L165+144
.LPIC113:
	add	r3, pc, r3
	mov	r1, r3
	bl	_ZN4_STL4listIdNS_9allocatorIdEEE3endEv(PLT)
	add	r3, sp, #1072
	add	r3, r3, #12
	ldr	r2, .L165+148
.LPIC114:
	add	r2, pc, r2
	mov	r0, r2
	mov	r1, r3
	bl	_ZNK4_STL19_List_iterator_baseneERKS0_(PLT)
	mov	r3, r0
	cmp	r3, #0
	bne	.L160
.L159:
	.loc 14 416 0 is_stmt 1
	bl	_Z15Iw2DSurfaceShowv(PLT)
.L152:
.LBE29:
.LBE28:
	.loc 14 422 0
	mov	r0, #0
	bl	s3eDeviceYield(PLT)
.L116:
.LBE13:
	.loc 14 178 0 discriminator 1
	bl	s3eDeviceCheckQuitRequest(PLT)
	mov	r3, r0
	cmp	r3, #0
	movne	r3, #0
	moveq	r3, #1
	uxtb	r3, r3
	cmp	r3, #0
	bne	.L161
	.loc 14 428 0
	bl	_Z13Iw2DTerminatev(PLT)
	.loc 14 173 0
	add	r3, sp, #788
	mov	r0, r3
	bl	_ZN4_STL12basic_stringIcNS_11char_traitsIcEENS_9allocatorIcEEED1Ev(PLT)
	.loc 14 88 0
	add	r3, sp, #528
	mov	r0, r3
	bl	_ZN4_STL14basic_ifstreamIcNS_11char_traitsIcEEED1Ev(PLT)
	.loc 14 79 0
	add	r3, sp, #304
	sub	r3, r3, #12
	mov	r0, r3
	bl	_ZN4_STL14basic_ifstreamIcNS_11char_traitsIcEEED1Ev(PLT)
	.loc 14 428 0
	add	r3, sp, #64
	sub	r3, r3, #8
	mov	r0, r3
	bl	_ZN4_STL14basic_ifstreamIcNS_11char_traitsIcEEED1Ev(PLT)
.LBE12:
	.loc 14 430 0
	mov	r3, #0
	mov	r0, r3
	add	sp, sp, #1504
	add	sp, sp, #4
	@ sp needed
	ldmfd	sp!, {r4, r5, pc}
.L166:
	.align	2
.L165:
	.word	-2004318071
	.word	.LC59-(.LPIC83+8)
	.word	1717986919
	.word	.LC60-(.LPIC84+8)
	.word	EasyScores-(.LPIC85+8)
	.word	it-(.LPIC86+8)
	.word	it-(.LPIC87+8)
	.word	.LC61-(.LPIC88+8)
	.word	it-(.LPIC89+8)
	.word	it-(.LPIC90+8)
	.word	EasyScores-(.LPIC91+8)
	.word	it-(.LPIC92+8)
	.word	-400
	.word	1081344000
	.word	.LC62-(.LPIC93+8)
	.word	-296
	.word	.LC59-(.LPIC94+8)
	.word	.LC60-(.LPIC95+8)
	.word	MediumScores-(.LPIC96+8)
	.word	it-(.LPIC97+8)
	.word	it-(.LPIC98+8)
	.word	.LC61-(.LPIC99+8)
	.word	it-(.LPIC100+8)
	.word	it-(.LPIC101+8)
	.word	MediumScores-(.LPIC102+8)
	.word	it-(.LPIC103+8)
	.word	-416
	.word	.LC63-(.LPIC104+8)
	.word	.LC59-(.LPIC105+8)
	.word	.LC60-(.LPIC106+8)
	.word	HardScores-(.LPIC107+8)
	.word	it-(.LPIC108+8)
	.word	it-(.LPIC109+8)
	.word	.LC61-(.LPIC110+8)
	.word	it-(.LPIC111+8)
	.word	it-(.LPIC112+8)
	.word	HardScores-(.LPIC113+8)
	.word	it-(.LPIC114+8)
	.cfi_endproc
.LFE3590:
	.size	main, .-main
	.section	.text._ZN4_STL3minIjEERKT_S3_S3_,"axG",%progbits,_ZN4_STL3minIjEERKT_S3_S3_,comdat
	.align	2
	.weak	_ZN4_STL3minIjEERKT_S3_S3_
	.hidden	_ZN4_STL3minIjEERKT_S3_S3_
	.type	_ZN4_STL3minIjEERKT_S3_S3_, %function
_ZN4_STL3minIjEERKT_S3_S3_:
.LFB3591:
	.loc 4 77 0
	.cfi_startproc
	@ args = 0, pretend = 0, frame = 8
	@ frame_needed = 0, uses_anonymous_args = 0
	@ link register save eliminated.
	sub	sp, sp, #8
.LCFI73:
	.cfi_def_cfa_offset 8
	str	r0, [sp, #4]
	str	r1, [sp]
	.loc 4 77 0
	ldr	r3, [sp]
	ldr	r2, [r3]
	ldr	r3, [sp, #4]
	ldr	r3, [r3]
	cmp	r2, r3
	bcs	.L168
	.loc 4 77 0 is_stmt 0 discriminator 1
	ldr	r3, [sp]
	b	.L169
.L168:
	.loc 4 77 0 discriminator 2
	ldr	r3, [sp, #4]
.L169:
	.loc 4 77 0 discriminator 3
	mov	r0, r3
	add	sp, sp, #8
	@ sp needed
	bx	lr
	.cfi_endproc
.LFE3591:
	.size	_ZN4_STL3minIjEERKT_S3_S3_, .-_ZN4_STL3minIjEERKT_S3_S3_
	.section	.text._ZN4_STL12basic_stringIcNS_11char_traitsIcEENS_9allocatorIcEEED2Ev,"axG",%progbits,_ZN4_STL12basic_stringIcNS_11char_traitsIcEENS_9allocatorIcEEED5Ev,comdat
	.align	2
	.weak	_ZN4_STL12basic_stringIcNS_11char_traitsIcEENS_9allocatorIcEEED2Ev
	.hidden	_ZN4_STL12basic_stringIcNS_11char_traitsIcEENS_9allocatorIcEEED2Ev
	.type	_ZN4_STL12basic_stringIcNS_11char_traitsIcEENS_9allocatorIcEEED2Ev, %function
_ZN4_STL12basic_stringIcNS_11char_traitsIcEENS_9allocatorIcEEED2Ev:
.LFB3594:
	.file 15 "c:/marmalade/7.5/s3e/h/std/c++/stl/_string.h"
	.loc 15 305 0 is_stmt 1
	.cfi_startproc
	@ args = 0, pretend = 0, frame = 8
	@ frame_needed = 0, uses_anonymous_args = 0
	str	lr, [sp, #-4]!
.LCFI74:
	.cfi_def_cfa_offset 4
	.cfi_offset 14, -4
	sub	sp, sp, #12
.LCFI75:
	.cfi_def_cfa_offset 16
	str	r0, [sp, #4]
.LBB31:
	.loc 15 305 0
	ldr	r3, [sp, #4]
	ldr	r2, [r3]
	ldr	r3, [sp, #4]
	ldr	r3, [r3, #4]
	add	r3, r3, #1
	mov	r0, r2
	mov	r1, r3
	bl	_ZN4_STL8_DestroyEPcS0_(PLT)
	ldr	r3, [sp, #4]
	mov	r0, r3
	bl	_ZN4_STL12_String_baseIcNS_9allocatorIcEEED2Ev(PLT)
.LBE31:
	ldr	r3, [sp, #4]
	mov	r0, r3
	add	sp, sp, #12
	@ sp needed
	ldr	pc, [sp], #4
	.cfi_endproc
.LFE3594:
	.size	_ZN4_STL12basic_stringIcNS_11char_traitsIcEENS_9allocatorIcEEED2Ev, .-_ZN4_STL12basic_stringIcNS_11char_traitsIcEENS_9allocatorIcEEED2Ev
	.weak	_ZN4_STL12basic_stringIcNS_11char_traitsIcEENS_9allocatorIcEEED1Ev
	.hidden	_ZN4_STL12basic_stringIcNS_11char_traitsIcEENS_9allocatorIcEEED1Ev
	.set	_ZN4_STL12basic_stringIcNS_11char_traitsIcEENS_9allocatorIcEEED1Ev,_ZN4_STL12basic_stringIcNS_11char_traitsIcEENS_9allocatorIcEEED2Ev
	.section	.text._ZN4_STL12basic_stringIcNS_11char_traitsIcEENS_9allocatorIcEEEC2ERKS5_,"axG",%progbits,_ZN4_STL12basic_stringIcNS_11char_traitsIcEENS_9allocatorIcEEEC5ERKS5_,comdat
	.align	2
	.weak	_ZN4_STL12basic_stringIcNS_11char_traitsIcEENS_9allocatorIcEEEC2ERKS5_
	.hidden	_ZN4_STL12basic_stringIcNS_11char_traitsIcEENS_9allocatorIcEEEC2ERKS5_
	.type	_ZN4_STL12basic_stringIcNS_11char_traitsIcEENS_9allocatorIcEEEC2ERKS5_, %function
_ZN4_STL12basic_stringIcNS_11char_traitsIcEENS_9allocatorIcEEEC2ERKS5_:
.LFB3597:
	.file 16 "c:/marmalade/7.5/s3e/h/std/c++/stl/_string.c"
	.loc 16 558 0
	.cfi_startproc
	@ args = 0, pretend = 0, frame = 16
	@ frame_needed = 0, uses_anonymous_args = 0
	stmfd	sp!, {r4, lr}
.LCFI76:
	.cfi_def_cfa_offset 8
	.cfi_offset 4, -8
	.cfi_offset 14, -4
	sub	sp, sp, #16
.LCFI77:
	.cfi_def_cfa_offset 24
	str	r0, [sp, #4]
	str	r1, [sp]
.LBB32:
	.loc 16 559 0
	ldr	r4, [sp, #4]
	add	r3, sp, #12
	mov	r0, r3
	ldr	r1, [sp]
	bl	_ZNK4_STL12basic_stringIcNS_11char_traitsIcEENS_9allocatorIcEEE13get_allocatorEv(PLT)
	add	r3, sp, #12
	mov	r0, r4
	mov	r1, r3
	bl	_ZN4_STL12_String_baseIcNS_9allocatorIcEEEC2ERKS2_(PLT)
	add	r3, sp, #12
	mov	r0, r3
	bl	_ZN4_STL9allocatorIcED1Ev(PLT)
	.loc 16 561 0
	ldr	r3, [sp]
	ldr	r2, [r3]
	ldr	r3, [sp]
	ldr	r3, [r3, #4]
	ldr	r0, [sp, #4]
	mov	r1, r2
	mov	r2, r3
	bl	_ZN4_STL12basic_stringIcNS_11char_traitsIcEENS_9allocatorIcEEE19_M_range_initializeIPcEEvT_S8_(PLT)
.LBE32:
	.loc 16 562 0
	ldr	r3, [sp, #4]
	mov	r0, r3
	add	sp, sp, #16
	@ sp needed
	ldmfd	sp!, {r4, pc}
	.cfi_endproc
.LFE3597:
	.size	_ZN4_STL12basic_stringIcNS_11char_traitsIcEENS_9allocatorIcEEEC2ERKS5_, .-_ZN4_STL12basic_stringIcNS_11char_traitsIcEENS_9allocatorIcEEEC2ERKS5_
	.weak	_ZN4_STL12basic_stringIcNS_11char_traitsIcEENS_9allocatorIcEEEC1ERKS5_
	.hidden	_ZN4_STL12basic_stringIcNS_11char_traitsIcEENS_9allocatorIcEEEC1ERKS5_
	.set	_ZN4_STL12basic_stringIcNS_11char_traitsIcEENS_9allocatorIcEEEC1ERKS5_,_ZN4_STL12basic_stringIcNS_11char_traitsIcEENS_9allocatorIcEEEC2ERKS5_
	.section	.text._ZN4_STL12basic_stringIcNS_11char_traitsIcEENS_9allocatorIcEEEaSERKS5_,"axG",%progbits,_ZN4_STL12basic_stringIcNS_11char_traitsIcEENS_9allocatorIcEEEaSERKS5_,comdat
	.align	2
	.weak	_ZN4_STL12basic_stringIcNS_11char_traitsIcEENS_9allocatorIcEEEaSERKS5_
	.hidden	_ZN4_STL12basic_stringIcNS_11char_traitsIcEENS_9allocatorIcEEEaSERKS5_
	.type	_ZN4_STL12basic_stringIcNS_11char_traitsIcEENS_9allocatorIcEEEaSERKS5_, %function
_ZN4_STL12basic_stringIcNS_11char_traitsIcEENS_9allocatorIcEEEaSERKS5_:
.LFB3673:
	.loc 15 307 0
	.cfi_startproc
	@ args = 0, pretend = 0, frame = 8
	@ frame_needed = 0, uses_anonymous_args = 0
	str	lr, [sp, #-4]!
.LCFI78:
	.cfi_def_cfa_offset 4
	.cfi_offset 14, -4
	sub	sp, sp, #12
.LCFI79:
	.cfi_def_cfa_offset 16
	str	r0, [sp, #4]
	str	r1, [sp]
	.loc 15 308 0
	ldr	r2, [sp]
	ldr	r3, [sp, #4]
	cmp	r2, r3
	beq	.L178
	.loc 15 309 0
	ldr	r3, [sp]
	ldr	r2, [r3]
	ldr	r3, [sp]
	ldr	r3, [r3, #4]
	ldr	r0, [sp, #4]
	mov	r1, r2
	mov	r2, r3
	bl	_ZN4_STL12basic_stringIcNS_11char_traitsIcEENS_9allocatorIcEEE6assignIPcEERS5_T_S9_(PLT)
.L178:
	.loc 15 310 0
	ldr	r3, [sp, #4]
	.loc 15 311 0
	mov	r0, r3
	add	sp, sp, #12
	@ sp needed
	ldr	pc, [sp], #4
	.cfi_endproc
.LFE3673:
	.size	_ZN4_STL12basic_stringIcNS_11char_traitsIcEENS_9allocatorIcEEEaSERKS5_, .-_ZN4_STL12basic_stringIcNS_11char_traitsIcEENS_9allocatorIcEEEaSERKS5_
	.section	.text._ZN4_STL5countIPccEENS_15iterator_traitsIT_E15difference_typeES3_S3_RKT0_,"axG",%progbits,_ZN4_STL5countIPccEENS_15iterator_traitsIT_E15difference_typeES3_S3_RKT0_,comdat
	.align	2
	.weak	_ZN4_STL5countIPccEENS_15iterator_traitsIT_E15difference_typeES3_S3_RKT0_
	.hidden	_ZN4_STL5countIPccEENS_15iterator_traitsIT_E15difference_typeES3_S3_RKT0_
	.type	_ZN4_STL5countIPccEENS_15iterator_traitsIT_E15difference_typeES3_S3_RKT0_, %function
_ZN4_STL5countIPccEENS_15iterator_traitsIT_E15difference_typeES3_S3_RKT0_:
.LFB3683:
	.loc 4 524 0
	.cfi_startproc
	@ args = 0, pretend = 0, frame = 24
	@ frame_needed = 0, uses_anonymous_args = 0
	@ link register save eliminated.
	sub	sp, sp, #24
.LCFI80:
	.cfi_def_cfa_offset 24
	str	r0, [sp, #12]
	str	r1, [sp, #8]
	str	r2, [sp, #4]
.LBB33:
	.loc 4 526 0
	mov	r3, #0
	str	r3, [sp, #20]
	.loc 4 527 0
	b	.L181
.L183:
	.loc 4 528 0
	ldr	r3, [sp, #12]
	ldrb	r2, [r3]	@ zero_extendqisi2
	ldr	r3, [sp, #4]
	ldrb	r3, [r3]	@ zero_extendqisi2
	cmp	r2, r3
	bne	.L182
	.loc 4 529 0
	ldr	r3, [sp, #20]
	add	r3, r3, #1
	str	r3, [sp, #20]
.L182:
	.loc 4 527 0
	ldr	r3, [sp, #12]
	add	r3, r3, #1
	str	r3, [sp, #12]
.L181:
	.loc 4 527 0 is_stmt 0 discriminator 1
	ldr	r2, [sp, #12]
	ldr	r3, [sp, #8]
	cmp	r2, r3
	bne	.L183
	.loc 4 530 0 is_stmt 1
	ldr	r3, [sp, #20]
.LBE33:
	.loc 4 531 0
	mov	r0, r3
	add	sp, sp, #24
	@ sp needed
	bx	lr
	.cfi_endproc
.LFE3683:
	.size	_ZN4_STL5countIPccEENS_15iterator_traitsIT_E15difference_typeES3_S3_RKT0_, .-_ZN4_STL5countIPccEENS_15iterator_traitsIT_E15difference_typeES3_S3_RKT0_
	.section	.text._ZN4_STL13basic_filebufIcNS_11char_traitsIcEEE8_M_writeEPci,"axG",%progbits,_ZN4_STL13basic_filebufIcNS_11char_traitsIcEEE8_M_writeEPci,comdat
	.align	2
	.weak	_ZN4_STL13basic_filebufIcNS_11char_traitsIcEEE8_M_writeEPci
	.hidden	_ZN4_STL13basic_filebufIcNS_11char_traitsIcEEE8_M_writeEPci
	.type	_ZN4_STL13basic_filebufIcNS_11char_traitsIcEEE8_M_writeEPci, %function
_ZN4_STL13basic_filebufIcNS_11char_traitsIcEEE8_M_writeEPci:
.LFB3684:
	.loc 13 351 0
	.cfi_startproc
	@ args = 0, pretend = 0, frame = 16
	@ frame_needed = 0, uses_anonymous_args = 0
	str	lr, [sp, #-4]!
.LCFI81:
	.cfi_def_cfa_offset 4
	.cfi_offset 14, -4
	sub	sp, sp, #20
.LCFI82:
	.cfi_def_cfa_offset 24
	str	r0, [sp, #12]
	str	r1, [sp, #8]
	str	r2, [sp, #4]
	.loc 13 351 0
	ldr	r3, [sp, #12]
	add	r3, r3, #36
	mov	r0, r3
	ldr	r1, [sp, #8]
	ldr	r2, [sp, #4]
	bl	_ZN4_STL13_Filebuf_base8_M_writeEPci(PLT)
	mov	r3, r0
	mov	r0, r3
	add	sp, sp, #20
	@ sp needed
	ldr	pc, [sp], #4
	.cfi_endproc
.LFE3684:
	.size	_ZN4_STL13basic_filebufIcNS_11char_traitsIcEEE8_M_writeEPci, .-_ZN4_STL13basic_filebufIcNS_11char_traitsIcEEE8_M_writeEPci
	.section	.text._ZN4_STL9allocatorIdEC2Ev,"axG",%progbits,_ZN4_STL9allocatorIdEC5Ev,comdat
	.align	2
	.weak	_ZN4_STL9allocatorIdEC2Ev
	.hidden	_ZN4_STL9allocatorIdEC2Ev
	.type	_ZN4_STL9allocatorIdEC2Ev, %function
_ZN4_STL9allocatorIdEC2Ev:
.LFB3687:
	.file 17 "c:/marmalade/7.5/s3e/h/std/c++/stl/_alloc.h"
	.loc 17 345 0
	.cfi_startproc
	@ args = 0, pretend = 0, frame = 8
	@ frame_needed = 0, uses_anonymous_args = 0
	@ link register save eliminated.
	sub	sp, sp, #8
.LCFI83:
	.cfi_def_cfa_offset 8
	str	r0, [sp, #4]
	.loc 17 345 0
	ldr	r3, [sp, #4]
	mov	r0, r3
	add	sp, sp, #8
	@ sp needed
	bx	lr
	.cfi_endproc
.LFE3687:
	.size	_ZN4_STL9allocatorIdEC2Ev, .-_ZN4_STL9allocatorIdEC2Ev
	.weak	_ZN4_STL9allocatorIdEC1Ev
	.hidden	_ZN4_STL9allocatorIdEC1Ev
	.set	_ZN4_STL9allocatorIdEC1Ev,_ZN4_STL9allocatorIdEC2Ev
	.section	.text._ZN4_STL9allocatorIdED2Ev,"axG",%progbits,_ZN4_STL9allocatorIdED5Ev,comdat
	.align	2
	.weak	_ZN4_STL9allocatorIdED2Ev
	.hidden	_ZN4_STL9allocatorIdED2Ev
	.type	_ZN4_STL9allocatorIdED2Ev, %function
_ZN4_STL9allocatorIdED2Ev:
.LFB3690:
	.loc 17 350 0
	.cfi_startproc
	@ args = 0, pretend = 0, frame = 8
	@ frame_needed = 0, uses_anonymous_args = 0
	@ link register save eliminated.
	sub	sp, sp, #8
.LCFI84:
	.cfi_def_cfa_offset 8
	str	r0, [sp, #4]
	.loc 17 350 0
	ldr	r3, [sp, #4]
	mov	r0, r3
	add	sp, sp, #8
	@ sp needed
	bx	lr
	.cfi_endproc
.LFE3690:
	.size	_ZN4_STL9allocatorIdED2Ev, .-_ZN4_STL9allocatorIdED2Ev
	.weak	_ZN4_STL9allocatorIdED1Ev
	.hidden	_ZN4_STL9allocatorIdED1Ev
	.set	_ZN4_STL9allocatorIdED1Ev,_ZN4_STL9allocatorIdED2Ev
	.section	.text._ZN4_STL4listIdNS_9allocatorIdEEEC2ERKS2_,"axG",%progbits,_ZN4_STL4listIdNS_9allocatorIdEEEC5ERKS2_,comdat
	.align	2
	.weak	_ZN4_STL4listIdNS_9allocatorIdEEEC2ERKS2_
	.hidden	_ZN4_STL4listIdNS_9allocatorIdEEEC2ERKS2_
	.type	_ZN4_STL4listIdNS_9allocatorIdEEEC2ERKS2_, %function
_ZN4_STL4listIdNS_9allocatorIdEEEC2ERKS2_:
.LFB3693:
	.loc 11 263 0
	.cfi_startproc
	@ args = 0, pretend = 0, frame = 8
	@ frame_needed = 0, uses_anonymous_args = 0
	str	lr, [sp, #-4]!
.LCFI85:
	.cfi_def_cfa_offset 4
	.cfi_offset 14, -4
	sub	sp, sp, #12
.LCFI86:
	.cfi_def_cfa_offset 16
	str	r0, [sp, #4]
	str	r1, [sp]
.LBB34:
	.loc 11 264 0
	ldr	r3, [sp, #4]
	mov	r0, r3
	ldr	r1, [sp]
	bl	_ZN4_STL10_List_baseIdNS_9allocatorIdEEEC2ERKS2_(PLT)
.LBE34:
	ldr	r3, [sp, #4]
	mov	r0, r3
	add	sp, sp, #12
	@ sp needed
	ldr	pc, [sp], #4
	.cfi_endproc
.LFE3693:
	.size	_ZN4_STL4listIdNS_9allocatorIdEEEC2ERKS2_, .-_ZN4_STL4listIdNS_9allocatorIdEEEC2ERKS2_
	.weak	_ZN4_STL4listIdNS_9allocatorIdEEEC1ERKS2_
	.hidden	_ZN4_STL4listIdNS_9allocatorIdEEEC1ERKS2_
	.set	_ZN4_STL4listIdNS_9allocatorIdEEEC1ERKS2_,_ZN4_STL4listIdNS_9allocatorIdEEEC2ERKS2_
	.section	.text._ZN4_STL14_List_iteratorIdNS_16_Nonconst_traitsIdEEEC2Ev,"axG",%progbits,_ZN4_STL14_List_iteratorIdNS_16_Nonconst_traitsIdEEEC5Ev,comdat
	.align	2
	.weak	_ZN4_STL14_List_iteratorIdNS_16_Nonconst_traitsIdEEEC2Ev
	.hidden	_ZN4_STL14_List_iteratorIdNS_16_Nonconst_traitsIdEEEC2Ev
	.type	_ZN4_STL14_List_iteratorIdNS_16_Nonconst_traitsIdEEEC2Ev, %function
_ZN4_STL14_List_iteratorIdNS_16_Nonconst_traitsIdEEEC2Ev:
.LFB3696:
	.loc 11 127 0
	.cfi_startproc
	@ args = 0, pretend = 0, frame = 8
	@ frame_needed = 0, uses_anonymous_args = 0
	str	lr, [sp, #-4]!
.LCFI87:
	.cfi_def_cfa_offset 4
	.cfi_offset 14, -4
	sub	sp, sp, #12
.LCFI88:
	.cfi_def_cfa_offset 16
	str	r0, [sp, #4]
.LBB35:
	.loc 11 127 0
	ldr	r3, [sp, #4]
	mov	r0, r3
	bl	_ZN4_STL19_List_iterator_baseC2Ev(PLT)
.LBE35:
	ldr	r3, [sp, #4]
	mov	r0, r3
	add	sp, sp, #12
	@ sp needed
	ldr	pc, [sp], #4
	.cfi_endproc
.LFE3696:
	.size	_ZN4_STL14_List_iteratorIdNS_16_Nonconst_traitsIdEEEC2Ev, .-_ZN4_STL14_List_iteratorIdNS_16_Nonconst_traitsIdEEEC2Ev
	.weak	_ZN4_STL14_List_iteratorIdNS_16_Nonconst_traitsIdEEEC1Ev
	.hidden	_ZN4_STL14_List_iteratorIdNS_16_Nonconst_traitsIdEEEC1Ev
	.set	_ZN4_STL14_List_iteratorIdNS_16_Nonconst_traitsIdEEEC1Ev,_ZN4_STL14_List_iteratorIdNS_16_Nonconst_traitsIdEEEC2Ev
	.section	.text._ZN4_STL18basic_stringstreamIcNS_11char_traitsIcEENS_9allocatorIcEEEC1Ei,"axG",%progbits,_ZN4_STL18basic_stringstreamIcNS_11char_traitsIcEENS_9allocatorIcEEEC1Ei,comdat
	.align	2
	.weak	_ZN4_STL18basic_stringstreamIcNS_11char_traitsIcEENS_9allocatorIcEEEC1Ei
	.hidden	_ZN4_STL18basic_stringstreamIcNS_11char_traitsIcEENS_9allocatorIcEEEC1Ei
	.type	_ZN4_STL18basic_stringstreamIcNS_11char_traitsIcEENS_9allocatorIcEEEC1Ei, %function
_ZN4_STL18basic_stringstreamIcNS_11char_traitsIcEENS_9allocatorIcEEEC1Ei:
.LFB3700:
	.file 18 "c:/marmalade/7.5/s3e/h/std/c++/stl/_sstream.c"
	.loc 18 517 0
	.cfi_startproc
	@ args = 0, pretend = 0, frame = 8
	@ frame_needed = 0, uses_anonymous_args = 0
	str	lr, [sp, #-4]!
.LCFI89:
	.cfi_def_cfa_offset 4
	.cfi_offset 14, -4
	sub	sp, sp, #12
.LCFI90:
	.cfi_def_cfa_offset 16
	str	r0, [sp, #4]
	str	r1, [sp]
.LBB36:
	.loc 18 519 0
	ldr	r3, [sp, #4]
	add	r3, r3, #72
	mov	r0, r3
	bl	_ZN4_STL9basic_iosIcNS_11char_traitsIcEEEC2Ev(PLT)
	ldr	r2, [sp, #4]
	ldr	r3, .L202
.LPIC115:
	add	r3, pc, r3
	add	r3, r3, #4
	mov	r0, r2
	mov	r1, r3
	mov	r2, #0
	bl	_ZN4_STL14basic_iostreamIcNS_11char_traitsIcEEEC2EPNS_15basic_streambufIcS2_EE(PLT)
	ldr	r3, .L202+4
.LPIC116:
	add	r3, pc, r3
	add	r2, r3, #12
	ldr	r3, [sp, #4]
	str	r2, [r3]
	mov	r3, #72
	ldr	r2, [sp, #4]
	add	r3, r2, r3
	ldr	r2, .L202+8
.LPIC117:
	add	r2, pc, r2
	add	r2, r2, #52
	str	r2, [r3]
	ldr	r3, .L202+12
.LPIC118:
	add	r3, pc, r3
	add	r2, r3, #32
	ldr	r3, [sp, #4]
	str	r2, [r3, #8]
	ldr	r3, [sp, #4]
	add	r3, r3, #12
	mov	r0, r3
	ldr	r1, [sp]
	bl	_ZN4_STL15basic_stringbufIcNS_11char_traitsIcEENS_9allocatorIcEEEC1Ei(PLT)
	.loc 18 521 0
	mov	r3, #72
	ldr	r2, [sp, #4]
	add	r2, r2, r3
	ldr	r3, [sp, #4]
	add	r3, r3, #12
	mov	r0, r2
	mov	r1, r3
	bl	_ZN4_STL9basic_iosIcNS_11char_traitsIcEEE4initEPNS_15basic_streambufIcS2_EE(PLT)
.LBE36:
	.loc 18 522 0
	ldr	r3, [sp, #4]
	mov	r0, r3
	add	sp, sp, #12
	@ sp needed
	ldr	pc, [sp], #4
.L203:
	.align	2
.L202:
	.word	_ZTTN4_STL18basic_stringstreamIcNS_11char_traitsIcEENS_9allocatorIcEEEE-(.LPIC115+8)
	.word	_ZTVN4_STL18basic_stringstreamIcNS_11char_traitsIcEENS_9allocatorIcEEEE-(.LPIC116+8)
	.word	_ZTVN4_STL18basic_stringstreamIcNS_11char_traitsIcEENS_9allocatorIcEEEE-(.LPIC117+8)
	.word	_ZTVN4_STL18basic_stringstreamIcNS_11char_traitsIcEENS_9allocatorIcEEEE-(.LPIC118+8)
	.cfi_endproc
.LFE3700:
	.size	_ZN4_STL18basic_stringstreamIcNS_11char_traitsIcEENS_9allocatorIcEEEC1Ei, .-_ZN4_STL18basic_stringstreamIcNS_11char_traitsIcEENS_9allocatorIcEEEC1Ei
	.section	.text._ZN4_STL18basic_stringstreamIcNS_11char_traitsIcEENS_9allocatorIcEEED1Ev,"axG",%progbits,_ZN4_STL18basic_stringstreamIcNS_11char_traitsIcEENS_9allocatorIcEEED1Ev,comdat
	.align	2
	.weak	_ZN4_STL18basic_stringstreamIcNS_11char_traitsIcEENS_9allocatorIcEEED1Ev
	.hidden	_ZN4_STL18basic_stringstreamIcNS_11char_traitsIcEENS_9allocatorIcEEED1Ev
	.type	_ZN4_STL18basic_stringstreamIcNS_11char_traitsIcEENS_9allocatorIcEEED1Ev, %function
_ZN4_STL18basic_stringstreamIcNS_11char_traitsIcEENS_9allocatorIcEEED1Ev:
.LFB3703:
	.loc 18 533 0
	.cfi_startproc
	@ args = 0, pretend = 0, frame = 8
	@ frame_needed = 0, uses_anonymous_args = 0
	str	lr, [sp, #-4]!
.LCFI91:
	.cfi_def_cfa_offset 4
	.cfi_offset 14, -4
	sub	sp, sp, #12
.LCFI92:
	.cfi_def_cfa_offset 16
	str	r0, [sp, #4]
.LBB37:
	.loc 18 534 0
	ldr	r3, .L208
.LPIC119:
	add	r3, pc, r3
	add	r2, r3, #12
	ldr	r3, [sp, #4]
	str	r2, [r3]
	mov	r3, #72
	ldr	r2, [sp, #4]
	add	r3, r2, r3
	ldr	r2, .L208+4
.LPIC120:
	add	r2, pc, r2
	add	r2, r2, #52
	str	r2, [r3]
	ldr	r3, .L208+8
.LPIC121:
	add	r3, pc, r3
	add	r2, r3, #32
	ldr	r3, [sp, #4]
	str	r2, [r3, #8]
	ldr	r3, [sp, #4]
	add	r3, r3, #12
	mov	r0, r3
	bl	_ZN4_STL15basic_stringbufIcNS_11char_traitsIcEENS_9allocatorIcEEED1Ev(PLT)
	ldr	r2, [sp, #4]
	ldr	r3, .L208+12
.LPIC122:
	add	r3, pc, r3
	add	r3, r3, #4
	mov	r0, r2
	mov	r1, r3
	bl	_ZN4_STL14basic_iostreamIcNS_11char_traitsIcEEED2Ev(PLT)
	mov	r3, #2
	cmp	r3, #0
	beq	.L205
	.loc 18 534 0 is_stmt 0 discriminator 16
	ldr	r3, [sp, #4]
	add	r3, r3, #72
	mov	r0, r3
	bl	_ZN4_STL9basic_iosIcNS_11char_traitsIcEEED2Ev(PLT)
.L205:
.LBE37:
	.loc 18 534 0 discriminator 17
	mov	r3, #0
	cmp	r3, #0
	beq	.L206
	.loc 18 534 0 discriminator 1
	ldr	r0, [sp, #4]
	bl	_ZdlPv(PLT)
.L206:
	.loc 18 534 0 discriminator 2
	ldr	r3, [sp, #4]
	mov	r0, r3
	add	sp, sp, #12
	@ sp needed
	ldr	pc, [sp], #4
.L209:
	.align	2
.L208:
	.word	_ZTVN4_STL18basic_stringstreamIcNS_11char_traitsIcEENS_9allocatorIcEEEE-(.LPIC119+8)
	.word	_ZTVN4_STL18basic_stringstreamIcNS_11char_traitsIcEENS_9allocatorIcEEEE-(.LPIC120+8)
	.word	_ZTVN4_STL18basic_stringstreamIcNS_11char_traitsIcEENS_9allocatorIcEEEE-(.LPIC121+8)
	.word	_ZTTN4_STL18basic_stringstreamIcNS_11char_traitsIcEENS_9allocatorIcEEEE-(.LPIC122+8)
	.cfi_endproc
.LFE3703:
	.size	_ZN4_STL18basic_stringstreamIcNS_11char_traitsIcEENS_9allocatorIcEEED1Ev, .-_ZN4_STL18basic_stringstreamIcNS_11char_traitsIcEENS_9allocatorIcEEED1Ev
	.set	.LTHUNK0,_ZN4_STL18basic_stringstreamIcNS_11char_traitsIcEENS_9allocatorIcEEED1Ev
	.set	.LTHUNK1,_ZN4_STL18basic_stringstreamIcNS_11char_traitsIcEENS_9allocatorIcEEED1Ev
	.align	2
	.weak	_ZThn8_N4_STL18basic_stringstreamIcNS_11char_traitsIcEENS_9allocatorIcEEED1Ev
	.hidden	_ZThn8_N4_STL18basic_stringstreamIcNS_11char_traitsIcEENS_9allocatorIcEEED1Ev
	.type	_ZThn8_N4_STL18basic_stringstreamIcNS_11char_traitsIcEENS_9allocatorIcEEED1Ev, %function
_ZThn8_N4_STL18basic_stringstreamIcNS_11char_traitsIcEENS_9allocatorIcEEED1Ev:
.LFB4249:
	.loc 18 533 0 is_stmt 1
	.cfi_startproc
	@ args = 0, pretend = 0, frame = 0
	@ frame_needed = 0, uses_anonymous_args = 0
	sub	r0, r0, #8
	b	.LTHUNK1(PLT)
	.cfi_endproc
.LFE4249:
	.size	_ZThn8_N4_STL18basic_stringstreamIcNS_11char_traitsIcEENS_9allocatorIcEEED1Ev, .-_ZThn8_N4_STL18basic_stringstreamIcNS_11char_traitsIcEENS_9allocatorIcEEED1Ev
	.section	.text._ZN4_STL18basic_stringstreamIcNS_11char_traitsIcEENS_9allocatorIcEEED0Ev,"axG",%progbits,_ZN4_STL18basic_stringstreamIcNS_11char_traitsIcEENS_9allocatorIcEEED0Ev,comdat
	.align	2
	.weak	_ZN4_STL18basic_stringstreamIcNS_11char_traitsIcEENS_9allocatorIcEEED0Ev
	.hidden	_ZN4_STL18basic_stringstreamIcNS_11char_traitsIcEENS_9allocatorIcEEED0Ev
	.type	_ZN4_STL18basic_stringstreamIcNS_11char_traitsIcEENS_9allocatorIcEEED0Ev, %function
_ZN4_STL18basic_stringstreamIcNS_11char_traitsIcEENS_9allocatorIcEEED0Ev:
.LFB3704:
	.loc 18 533 0
	.cfi_startproc
	@ args = 0, pretend = 0, frame = 8
	@ frame_needed = 0, uses_anonymous_args = 0
	str	lr, [sp, #-4]!
.LCFI93:
	.cfi_def_cfa_offset 4
	.cfi_offset 14, -4
	sub	sp, sp, #12
.LCFI94:
	.cfi_def_cfa_offset 16
	str	r0, [sp, #4]
	.loc 18 534 0
	ldr	r0, [sp, #4]
	bl	_ZN4_STL18basic_stringstreamIcNS_11char_traitsIcEENS_9allocatorIcEEED1Ev(PLT)
	ldr	r0, [sp, #4]
	bl	_ZdlPv(PLT)
	ldr	r3, [sp, #4]
	mov	r0, r3
	add	sp, sp, #12
	@ sp needed
	ldr	pc, [sp], #4
	.cfi_endproc
.LFE3704:
	.size	_ZN4_STL18basic_stringstreamIcNS_11char_traitsIcEENS_9allocatorIcEEED0Ev, .-_ZN4_STL18basic_stringstreamIcNS_11char_traitsIcEENS_9allocatorIcEEED0Ev
	.set	.LTHUNK2,_ZN4_STL18basic_stringstreamIcNS_11char_traitsIcEENS_9allocatorIcEEED0Ev
	.set	.LTHUNK3,_ZN4_STL18basic_stringstreamIcNS_11char_traitsIcEENS_9allocatorIcEEED0Ev
	.align	2
	.weak	_ZThn8_N4_STL18basic_stringstreamIcNS_11char_traitsIcEENS_9allocatorIcEEED0Ev
	.hidden	_ZThn8_N4_STL18basic_stringstreamIcNS_11char_traitsIcEENS_9allocatorIcEEED0Ev
	.type	_ZThn8_N4_STL18basic_stringstreamIcNS_11char_traitsIcEENS_9allocatorIcEEED0Ev, %function
_ZThn8_N4_STL18basic_stringstreamIcNS_11char_traitsIcEENS_9allocatorIcEEED0Ev:
.LFB4251:
	.loc 18 533 0
	.cfi_startproc
	@ args = 0, pretend = 0, frame = 0
	@ frame_needed = 0, uses_anonymous_args = 0
	sub	r0, r0, #8
	b	.LTHUNK3(PLT)
	.cfi_endproc
.LFE4251:
	.size	_ZThn8_N4_STL18basic_stringstreamIcNS_11char_traitsIcEENS_9allocatorIcEEED0Ev, .-_ZThn8_N4_STL18basic_stringstreamIcNS_11char_traitsIcEENS_9allocatorIcEEED0Ev
	.section	.text._ZN4_STL13basic_ostreamIcNS_11char_traitsIcEEElsEd,"axG",%progbits,_ZN4_STL13basic_ostreamIcNS_11char_traitsIcEEElsEd,comdat
	.align	2
	.weak	_ZN4_STL13basic_ostreamIcNS_11char_traitsIcEEElsEd
	.hidden	_ZN4_STL13basic_ostreamIcNS_11char_traitsIcEEElsEd
	.type	_ZN4_STL13basic_ostreamIcNS_11char_traitsIcEEElsEd, %function
_ZN4_STL13basic_ostreamIcNS_11char_traitsIcEEElsEd:
.LFB3705:
	.file 19 "c:/marmalade/7.5/s3e/h/std/c++/stl/_ostream.h"
	.loc 19 118 0
	.cfi_startproc
	@ args = 0, pretend = 0, frame = 16
	@ frame_needed = 0, uses_anonymous_args = 0
	str	lr, [sp, #-4]!
.LCFI95:
	.cfi_def_cfa_offset 4
	.cfi_offset 14, -4
	sub	sp, sp, #20
.LCFI96:
	.cfi_def_cfa_offset 24
	str	r0, [sp, #12]
	strd	r2, [sp]
	.loc 19 118 0
	ldr	r0, [sp, #12]
	ldrd	r2, [sp]
	bl	_ZN4_STL10_M_put_numIcNS_11char_traitsIcEEdEERNS_13basic_ostreamIT_T0_EES7_T1_(PLT)
	mov	r3, r0
	mov	r0, r3
	add	sp, sp, #20
	@ sp needed
	ldr	pc, [sp], #4
	.cfi_endproc
.LFE3705:
	.size	_ZN4_STL13basic_ostreamIcNS_11char_traitsIcEEElsEd, .-_ZN4_STL13basic_ostreamIcNS_11char_traitsIcEEElsEd
	.section	.text._ZNK4_STL18basic_stringstreamIcNS_11char_traitsIcEENS_9allocatorIcEEE3strEv,"axG",%progbits,_ZNK4_STL18basic_stringstreamIcNS_11char_traitsIcEENS_9allocatorIcEEE3strEv,comdat
	.align	2
	.weak	_ZNK4_STL18basic_stringstreamIcNS_11char_traitsIcEENS_9allocatorIcEEE3strEv
	.hidden	_ZNK4_STL18basic_stringstreamIcNS_11char_traitsIcEENS_9allocatorIcEEE3strEv
	.type	_ZNK4_STL18basic_stringstreamIcNS_11char_traitsIcEENS_9allocatorIcEEE3strEv, %function
_ZNK4_STL18basic_stringstreamIcNS_11char_traitsIcEENS_9allocatorIcEEE3strEv:
.LFB3706:
	.file 20 "c:/marmalade/7.5/s3e/h/std/c++/stl/_sstream.h"
	.loc 20 223 0
	.cfi_startproc
	@ args = 0, pretend = 0, frame = 8
	@ frame_needed = 0, uses_anonymous_args = 0
	str	lr, [sp, #-4]!
.LCFI97:
	.cfi_def_cfa_offset 4
	.cfi_offset 14, -4
	sub	sp, sp, #12
.LCFI98:
	.cfi_def_cfa_offset 16
	str	r0, [sp, #4]
	str	r1, [sp]
	.loc 20 223 0
	ldr	r3, [sp]
	add	r3, r3, #12
	ldr	r2, [sp, #4]
	mov	r0, r2
	mov	r1, r3
	bl	_ZNK4_STL15basic_stringbufIcNS_11char_traitsIcEENS_9allocatorIcEEE3strEv(PLT)
	ldr	r0, [sp, #4]
	add	sp, sp, #12
	@ sp needed
	ldr	pc, [sp], #4
	.cfi_endproc
.LFE3706:
	.size	_ZNK4_STL18basic_stringstreamIcNS_11char_traitsIcEENS_9allocatorIcEEE3strEv, .-_ZNK4_STL18basic_stringstreamIcNS_11char_traitsIcEENS_9allocatorIcEEE3strEv
	.section	.text._ZN4_STL14basic_ifstreamIcNS_11char_traitsIcEEEC1EPKci,"axG",%progbits,_ZN4_STL14basic_ifstreamIcNS_11char_traitsIcEEEC1EPKci,comdat
	.align	2
	.weak	_ZN4_STL14basic_ifstreamIcNS_11char_traitsIcEEEC1EPKci
	.hidden	_ZN4_STL14basic_ifstreamIcNS_11char_traitsIcEEEC1EPKci
	.type	_ZN4_STL14basic_ifstreamIcNS_11char_traitsIcEEEC1EPKci, %function
_ZN4_STL14basic_ifstreamIcNS_11char_traitsIcEEEC1EPKci:
.LFB3709:
	.loc 13 520 0
	.cfi_startproc
	@ args = 0, pretend = 0, frame = 16
	@ frame_needed = 0, uses_anonymous_args = 0
	str	lr, [sp, #-4]!
.LCFI99:
	.cfi_def_cfa_offset 4
	.cfi_offset 14, -4
	sub	sp, sp, #20
.LCFI100:
	.cfi_def_cfa_offset 24
	str	r0, [sp, #12]
	str	r1, [sp, #8]
	str	r2, [sp, #4]
.LBB38:
	.loc 13 522 0
	ldr	r3, [sp, #12]
	add	r3, r3, #140
	mov	r0, r3
	bl	_ZN4_STL9basic_iosIcNS_11char_traitsIcEEEC2Ev(PLT)
	ldr	r2, [sp, #12]
	ldr	r3, .L220
.LPIC123:
	add	r3, pc, r3
	add	r3, r3, #4
	mov	r0, r2
	mov	r1, r3
	mov	r2, #0
	bl	_ZN4_STL13basic_istreamIcNS_11char_traitsIcEEEC2EPNS_15basic_streambufIcS2_EE(PLT)
	ldr	r3, .L220+4
.LPIC124:
	add	r3, pc, r3
	add	r2, r3, #12
	ldr	r3, [sp, #12]
	str	r2, [r3]
	mov	r3, #140
	ldr	r2, [sp, #12]
	add	r3, r2, r3
	ldr	r2, .L220+8
.LPIC125:
	add	r2, pc, r2
	add	r2, r2, #32
	str	r2, [r3]
	ldr	r3, [sp, #12]
	add	r3, r3, #8
	mov	r0, r3
	bl	_ZN4_STL13basic_filebufIcNS_11char_traitsIcEEEC1Ev(PLT)
	.loc 13 523 0
	mov	r3, #140
	ldr	r2, [sp, #12]
	add	r2, r2, r3
	ldr	r3, [sp, #12]
	add	r3, r3, #8
	mov	r0, r2
	mov	r1, r3
	bl	_ZN4_STL9basic_iosIcNS_11char_traitsIcEEE4initEPNS_15basic_streambufIcS2_EE(PLT)
	.loc 13 524 0
	ldr	r3, [sp, #12]
	add	r2, r3, #8
	ldr	r3, [sp, #4]
	orr	r3, r3, #8
	mov	r0, r2
	ldr	r1, [sp, #8]
	mov	r2, r3
	bl	_ZN4_STL13basic_filebufIcNS_11char_traitsIcEEE4openEPKci(PLT)
	mov	r3, r0
	cmp	r3, #0
	movne	r3, #0
	moveq	r3, #1
	uxtb	r3, r3
	cmp	r3, #0
	beq	.L218
	.loc 13 525 0 discriminator 2
	mov	r3, #140
	ldr	r2, [sp, #12]
	add	r3, r2, r3
	mov	r0, r3
	mov	r1, #4
	bl	_ZN4_STL9basic_iosIcNS_11char_traitsIcEEE8setstateEi(PLT)
.L218:
.LBE38:
	.loc 13 526 0
	ldr	r3, [sp, #12]
	mov	r0, r3
	add	sp, sp, #20
	@ sp needed
	ldr	pc, [sp], #4
.L221:
	.align	2
.L220:
	.word	_ZTTN4_STL14basic_ifstreamIcNS_11char_traitsIcEEEE-(.LPIC123+8)
	.word	_ZTVN4_STL14basic_ifstreamIcNS_11char_traitsIcEEEE-(.LPIC124+8)
	.word	_ZTVN4_STL14basic_ifstreamIcNS_11char_traitsIcEEEE-(.LPIC125+8)
	.cfi_endproc
.LFE3709:
	.size	_ZN4_STL14basic_ifstreamIcNS_11char_traitsIcEEEC1EPKci, .-_ZN4_STL14basic_ifstreamIcNS_11char_traitsIcEEEC1EPKci
	.section	.text._ZN4_STL14basic_ifstreamIcNS_11char_traitsIcEEED1Ev,"axG",%progbits,_ZN4_STL14basic_ifstreamIcNS_11char_traitsIcEEED1Ev,comdat
	.align	2
	.weak	_ZN4_STL14basic_ifstreamIcNS_11char_traitsIcEEED1Ev
	.hidden	_ZN4_STL14basic_ifstreamIcNS_11char_traitsIcEEED1Ev
	.type	_ZN4_STL14basic_ifstreamIcNS_11char_traitsIcEEED1Ev, %function
_ZN4_STL14basic_ifstreamIcNS_11char_traitsIcEEED1Ev:
.LFB3712:
	.loc 13 545 0
	.cfi_startproc
	@ args = 0, pretend = 0, frame = 8
	@ frame_needed = 0, uses_anonymous_args = 0
	str	lr, [sp, #-4]!
.LCFI101:
	.cfi_def_cfa_offset 4
	.cfi_offset 14, -4
	sub	sp, sp, #12
.LCFI102:
	.cfi_def_cfa_offset 16
	str	r0, [sp, #4]
.LBB39:
	.loc 13 545 0
	ldr	r3, .L226
.LPIC126:
	add	r3, pc, r3
	add	r2, r3, #12
	ldr	r3, [sp, #4]
	str	r2, [r3]
	mov	r3, #140
	ldr	r2, [sp, #4]
	add	r3, r2, r3
	ldr	r2, .L226+4
.LPIC127:
	add	r2, pc, r2
	add	r2, r2, #32
	str	r2, [r3]
	ldr	r3, [sp, #4]
	add	r3, r3, #8
	mov	r0, r3
	bl	_ZN4_STL13basic_filebufIcNS_11char_traitsIcEEED1Ev(PLT)
	ldr	r2, [sp, #4]
	ldr	r3, .L226+8
.LPIC128:
	add	r3, pc, r3
	add	r3, r3, #4
	mov	r0, r2
	mov	r1, r3
	bl	_ZN4_STL13basic_istreamIcNS_11char_traitsIcEEED2Ev(PLT)
	mov	r3, #2
	cmp	r3, #0
	beq	.L223
	.loc 13 545 0 is_stmt 0 discriminator 13
	ldr	r3, [sp, #4]
	add	r3, r3, #140
	mov	r0, r3
	bl	_ZN4_STL9basic_iosIcNS_11char_traitsIcEEED2Ev(PLT)
.L223:
.LBE39:
	.loc 13 545 0 discriminator 14
	mov	r3, #0
	cmp	r3, #0
	beq	.L224
	.loc 13 545 0 discriminator 1
	ldr	r0, [sp, #4]
	bl	_ZdlPv(PLT)
.L224:
	.loc 13 545 0 discriminator 2
	ldr	r3, [sp, #4]
	mov	r0, r3
	add	sp, sp, #12
	@ sp needed
	ldr	pc, [sp], #4
.L227:
	.align	2
.L226:
	.word	_ZTVN4_STL14basic_ifstreamIcNS_11char_traitsIcEEEE-(.LPIC126+8)
	.word	_ZTVN4_STL14basic_ifstreamIcNS_11char_traitsIcEEEE-(.LPIC127+8)
	.word	_ZTTN4_STL14basic_ifstreamIcNS_11char_traitsIcEEEE-(.LPIC128+8)
	.cfi_endproc
.LFE3712:
	.size	_ZN4_STL14basic_ifstreamIcNS_11char_traitsIcEEED1Ev, .-_ZN4_STL14basic_ifstreamIcNS_11char_traitsIcEEED1Ev
	.set	.LTHUNK4,_ZN4_STL14basic_ifstreamIcNS_11char_traitsIcEEED1Ev
	.section	.text._ZN4_STL14basic_ifstreamIcNS_11char_traitsIcEEED0Ev,"axG",%progbits,_ZN4_STL14basic_ifstreamIcNS_11char_traitsIcEEED0Ev,comdat
	.align	2
	.weak	_ZN4_STL14basic_ifstreamIcNS_11char_traitsIcEEED0Ev
	.hidden	_ZN4_STL14basic_ifstreamIcNS_11char_traitsIcEEED0Ev
	.type	_ZN4_STL14basic_ifstreamIcNS_11char_traitsIcEEED0Ev, %function
_ZN4_STL14basic_ifstreamIcNS_11char_traitsIcEEED0Ev:
.LFB3713:
	.loc 13 545 0 is_stmt 1
	.cfi_startproc
	@ args = 0, pretend = 0, frame = 8
	@ frame_needed = 0, uses_anonymous_args = 0
	str	lr, [sp, #-4]!
.LCFI103:
	.cfi_def_cfa_offset 4
	.cfi_offset 14, -4
	sub	sp, sp, #12
.LCFI104:
	.cfi_def_cfa_offset 16
	str	r0, [sp, #4]
	.loc 13 545 0
	ldr	r0, [sp, #4]
	bl	_ZN4_STL14basic_ifstreamIcNS_11char_traitsIcEEED1Ev(PLT)
	ldr	r0, [sp, #4]
	bl	_ZdlPv(PLT)
	ldr	r3, [sp, #4]
	mov	r0, r3
	add	sp, sp, #12
	@ sp needed
	ldr	pc, [sp], #4
	.cfi_endproc
.LFE3713:
	.size	_ZN4_STL14basic_ifstreamIcNS_11char_traitsIcEEED0Ev, .-_ZN4_STL14basic_ifstreamIcNS_11char_traitsIcEEED0Ev
	.set	.LTHUNK5,_ZN4_STL14basic_ifstreamIcNS_11char_traitsIcEEED0Ev
	.section	.text._ZN4_STL13basic_istreamIcNS_11char_traitsIcEEErsERd,"axG",%progbits,_ZN4_STL13basic_istreamIcNS_11char_traitsIcEEErsERd,comdat
	.align	2
	.weak	_ZN4_STL13basic_istreamIcNS_11char_traitsIcEEErsERd
	.hidden	_ZN4_STL13basic_istreamIcNS_11char_traitsIcEEErsERd
	.type	_ZN4_STL13basic_istreamIcNS_11char_traitsIcEEErsERd, %function
_ZN4_STL13basic_istreamIcNS_11char_traitsIcEEErsERd:
.LFB3714:
	.file 21 "c:/marmalade/7.5/s3e/h/std/c++/stl/_istream.h"
	.loc 21 131 0
	.cfi_startproc
	@ args = 0, pretend = 0, frame = 8
	@ frame_needed = 0, uses_anonymous_args = 0
	str	lr, [sp, #-4]!
.LCFI105:
	.cfi_def_cfa_offset 4
	.cfi_offset 14, -4
	sub	sp, sp, #12
.LCFI106:
	.cfi_def_cfa_offset 16
	str	r0, [sp, #4]
	str	r1, [sp]
	.loc 21 131 0
	ldr	r0, [sp, #4]
	ldr	r1, [sp]
	bl	_ZN4_STL10_M_get_numIcNS_11char_traitsIcEEdEEiRNS_13basic_istreamIT_T0_EERT1_(PLT)
	ldr	r3, [sp, #4]
	mov	r0, r3
	add	sp, sp, #12
	@ sp needed
	ldr	pc, [sp], #4
	.cfi_endproc
.LFE3714:
	.size	_ZN4_STL13basic_istreamIcNS_11char_traitsIcEEErsERd, .-_ZN4_STL13basic_istreamIcNS_11char_traitsIcEEErsERd
	.section	.text._ZN4_STL4listIdNS_9allocatorIdEEE9push_backERKd,"axG",%progbits,_ZN4_STL4listIdNS_9allocatorIdEEE9push_backERKd,comdat
	.align	2
	.weak	_ZN4_STL4listIdNS_9allocatorIdEEE9push_backERKd
	.hidden	_ZN4_STL4listIdNS_9allocatorIdEEE9push_backERKd
	.type	_ZN4_STL4listIdNS_9allocatorIdEEE9push_backERKd, %function
_ZN4_STL4listIdNS_9allocatorIdEEE9push_backERKd:
.LFB3715:
	.loc 11 345 0
	.cfi_startproc
	@ args = 0, pretend = 0, frame = 24
	@ frame_needed = 0, uses_anonymous_args = 0
	str	lr, [sp, #-4]!
.LCFI107:
	.cfi_def_cfa_offset 4
	.cfi_offset 14, -4
	sub	sp, sp, #28
.LCFI108:
	.cfi_def_cfa_offset 32
	str	r0, [sp, #12]
	str	r1, [sp, #8]
	.loc 11 345 0
	add	r3, sp, #20
	mov	r0, r3
	ldr	r1, [sp, #12]
	bl	_ZN4_STL4listIdNS_9allocatorIdEEE3endEv(PLT)
	mov	r2, sp
	add	r3, sp, #20
	mov	r0, r2
	ldr	r1, [sp, #12]
	mov	r2, r3
	ldr	r3, [sp, #8]
	bl	_ZN4_STL4listIdNS_9allocatorIdEEE6insertENS_14_List_iteratorIdNS_16_Nonconst_traitsIdEEEERKd(PLT)
	add	sp, sp, #28
	@ sp needed
	ldr	pc, [sp], #4
	.cfi_endproc
.LFE3715:
	.size	_ZN4_STL4listIdNS_9allocatorIdEEE9push_backERKd, .-_ZN4_STL4listIdNS_9allocatorIdEEE9push_backERKd
	.section	.text._ZN4_STL4listIdNS_9allocatorIdEEE4sortEv,"axG",%progbits,_ZN4_STL4listIdNS_9allocatorIdEEE4sortEv,comdat
	.align	2
	.weak	_ZN4_STL4listIdNS_9allocatorIdEEE4sortEv
	.hidden	_ZN4_STL4listIdNS_9allocatorIdEEE4sortEv
	.type	_ZN4_STL4listIdNS_9allocatorIdEEE4sortEv, %function
_ZN4_STL4listIdNS_9allocatorIdEEE4sortEv:
.LFB3716:
	.loc 11 501 0
	.cfi_startproc
	@ args = 0, pretend = 0, frame = 16
	@ frame_needed = 0, uses_anonymous_args = 0
	str	lr, [sp, #-4]!
.LCFI109:
	.cfi_def_cfa_offset 4
	.cfi_offset 14, -4
	sub	sp, sp, #20
.LCFI110:
	.cfi_def_cfa_offset 24
	str	r0, [sp, #4]
	.loc 11 502 0
	ldr	r0, [sp, #4]
	mov	r1, r3
	bl	_ZN4_STL7_S_sortIdNS_9allocatorIdEENS_4lessIdEEEEvRNS_4listIT_T0_EET1_(PLT)
	.loc 11 503 0
	add	sp, sp, #20
	@ sp needed
	ldr	pc, [sp], #4
	.cfi_endproc
.LFE3716:
	.size	_ZN4_STL4listIdNS_9allocatorIdEEE4sortEv, .-_ZN4_STL4listIdNS_9allocatorIdEEE4sortEv
	.section	.text._ZN4_STL12basic_stringIcNS_11char_traitsIcEENS_9allocatorIcEEEC2Ev,"axG",%progbits,_ZN4_STL12basic_stringIcNS_11char_traitsIcEENS_9allocatorIcEEEC5Ev,comdat
	.align	2
	.weak	_ZN4_STL12basic_stringIcNS_11char_traitsIcEENS_9allocatorIcEEEC2Ev
	.hidden	_ZN4_STL12basic_stringIcNS_11char_traitsIcEENS_9allocatorIcEEEC2Ev
	.type	_ZN4_STL12basic_stringIcNS_11char_traitsIcEENS_9allocatorIcEEEC2Ev, %function
_ZN4_STL12basic_stringIcNS_11char_traitsIcEENS_9allocatorIcEEEC2Ev:
.LFB3718:
	.loc 16 540 0
	.cfi_startproc
	@ args = 0, pretend = 0, frame = 16
	@ frame_needed = 0, uses_anonymous_args = 0
	stmfd	sp!, {r4, lr}
.LCFI111:
	.cfi_def_cfa_offset 8
	.cfi_offset 4, -8
	.cfi_offset 14, -4
	sub	sp, sp, #16
.LCFI112:
	.cfi_def_cfa_offset 24
	str	r0, [sp, #4]
.LBB40:
	.loc 16 541 0
	ldr	r4, [sp, #4]
	add	r3, sp, #12
	mov	r0, r3
	bl	_ZN4_STL9allocatorIcEC1Ev(PLT)
	add	r3, sp, #12
	mov	r0, r4
	mov	r1, r3
	bl	_ZN4_STL12_String_baseIcNS_9allocatorIcEEEC2ERKS2_(PLT)
	add	r3, sp, #12
	mov	r0, r3
	bl	_ZN4_STL9allocatorIcED1Ev(PLT)
	.loc 16 542 0
	ldr	r3, [sp, #4]
	add	r3, r3, #8
	mov	r0, r3
	mov	r1, #8
	mov	r2, #0
	bl	_ZN4_STL9allocatorIcE8allocateEjPKv(PLT)
	mov	r2, r0
	ldr	r3, [sp, #4]
	str	r2, [r3]
	.loc 16 543 0
	ldr	r3, [sp, #4]
	ldr	r2, [r3]
	ldr	r3, [sp, #4]
	str	r2, [r3, #4]
	.loc 16 544 0
	ldr	r3, [sp, #4]
	ldr	r3, [r3]
	add	r2, r3, #8
	ldr	r3, [sp, #4]
	str	r2, [r3, #8]
	.loc 16 545 0
	ldr	r0, [sp, #4]
	bl	_ZN4_STL12basic_stringIcNS_11char_traitsIcEENS_9allocatorIcEEE19_M_terminate_stringEv(PLT)
.LBE40:
	.loc 16 546 0
	ldr	r3, [sp, #4]
	mov	r0, r3
	add	sp, sp, #16
	@ sp needed
	ldmfd	sp!, {r4, pc}
	.cfi_endproc
.LFE3718:
	.size	_ZN4_STL12basic_stringIcNS_11char_traitsIcEENS_9allocatorIcEEEC2Ev, .-_ZN4_STL12basic_stringIcNS_11char_traitsIcEENS_9allocatorIcEEEC2Ev
	.weak	_ZN4_STL12basic_stringIcNS_11char_traitsIcEENS_9allocatorIcEEEC1Ev
	.hidden	_ZN4_STL12basic_stringIcNS_11char_traitsIcEENS_9allocatorIcEEEC1Ev
	.set	_ZN4_STL12basic_stringIcNS_11char_traitsIcEENS_9allocatorIcEEEC1Ev,_ZN4_STL12basic_stringIcNS_11char_traitsIcEENS_9allocatorIcEEEC2Ev
	.section	.text._ZNK4_STL12basic_stringIcNS_11char_traitsIcEENS_9allocatorIcEEE5c_strEv,"axG",%progbits,_ZNK4_STL12basic_stringIcNS_11char_traitsIcEENS_9allocatorIcEEE5c_strEv,comdat
	.align	2
	.weak	_ZNK4_STL12basic_stringIcNS_11char_traitsIcEENS_9allocatorIcEEE5c_strEv
	.hidden	_ZNK4_STL12basic_stringIcNS_11char_traitsIcEENS_9allocatorIcEEE5c_strEv
	.type	_ZNK4_STL12basic_stringIcNS_11char_traitsIcEENS_9allocatorIcEEE5c_strEv, %function
_ZNK4_STL12basic_stringIcNS_11char_traitsIcEENS_9allocatorIcEEE5c_strEv:
.LFB3720:
	.loc 15 1065 0
	.cfi_startproc
	@ args = 0, pretend = 0, frame = 8
	@ frame_needed = 0, uses_anonymous_args = 0
	@ link register save eliminated.
	sub	sp, sp, #8
.LCFI113:
	.cfi_def_cfa_offset 8
	str	r0, [sp, #4]
	.loc 15 1065 0
	ldr	r3, [sp, #4]
	ldr	r3, [r3]
	mov	r0, r3
	add	sp, sp, #8
	@ sp needed
	bx	lr
	.cfi_endproc
.LFE3720:
	.size	_ZNK4_STL12basic_stringIcNS_11char_traitsIcEENS_9allocatorIcEEE5c_strEv, .-_ZNK4_STL12basic_stringIcNS_11char_traitsIcEENS_9allocatorIcEEE5c_strEv
	.section	.text._ZN4_STL4listIdNS_9allocatorIdEEE5beginEv,"axG",%progbits,_ZN4_STL4listIdNS_9allocatorIdEEE5beginEv,comdat
	.align	2
	.weak	_ZN4_STL4listIdNS_9allocatorIdEEE5beginEv
	.hidden	_ZN4_STL4listIdNS_9allocatorIdEEE5beginEv
	.type	_ZN4_STL4listIdNS_9allocatorIdEEE5beginEv, %function
_ZN4_STL4listIdNS_9allocatorIdEEE5beginEv:
.LFB3721:
	.loc 11 266 0
	.cfi_startproc
	@ args = 0, pretend = 0, frame = 8
	@ frame_needed = 0, uses_anonymous_args = 0
	str	lr, [sp, #-4]!
.LCFI114:
	.cfi_def_cfa_offset 4
	.cfi_offset 14, -4
	sub	sp, sp, #12
.LCFI115:
	.cfi_def_cfa_offset 16
	str	r0, [sp, #4]
	str	r1, [sp]
	.loc 11 266 0
	ldr	r3, [sp]
	ldr	r3, [r3]
	ldr	r3, [r3]
	ldr	r0, [sp, #4]
	mov	r1, r3
	bl	_ZN4_STL14_List_iteratorIdNS_16_Nonconst_traitsIdEEEC1EPNS_10_List_nodeIdEE(PLT)
	ldr	r0, [sp, #4]
	add	sp, sp, #12
	@ sp needed
	ldr	pc, [sp], #4
	.cfi_endproc
.LFE3721:
	.size	_ZN4_STL4listIdNS_9allocatorIdEEE5beginEv, .-_ZN4_STL4listIdNS_9allocatorIdEEE5beginEv
	.section	.text._ZN4_STL4listIdNS_9allocatorIdEEE3endEv,"axG",%progbits,_ZN4_STL4listIdNS_9allocatorIdEEE3endEv,comdat
	.align	2
	.weak	_ZN4_STL4listIdNS_9allocatorIdEEE3endEv
	.hidden	_ZN4_STL4listIdNS_9allocatorIdEEE3endEv
	.type	_ZN4_STL4listIdNS_9allocatorIdEEE3endEv, %function
_ZN4_STL4listIdNS_9allocatorIdEEE3endEv:
.LFB3722:
	.loc 11 269 0
	.cfi_startproc
	@ args = 0, pretend = 0, frame = 8
	@ frame_needed = 0, uses_anonymous_args = 0
	str	lr, [sp, #-4]!
.LCFI116:
	.cfi_def_cfa_offset 4
	.cfi_offset 14, -4
	sub	sp, sp, #12
.LCFI117:
	.cfi_def_cfa_offset 16
	str	r0, [sp, #4]
	str	r1, [sp]
	.loc 11 269 0
	ldr	r3, [sp]
	ldr	r3, [r3]
	ldr	r0, [sp, #4]
	mov	r1, r3
	bl	_ZN4_STL14_List_iteratorIdNS_16_Nonconst_traitsIdEEEC1EPNS_10_List_nodeIdEE(PLT)
	ldr	r0, [sp, #4]
	add	sp, sp, #12
	@ sp needed
	ldr	pc, [sp], #4
	.cfi_endproc
.LFE3722:
	.size	_ZN4_STL4listIdNS_9allocatorIdEEE3endEv, .-_ZN4_STL4listIdNS_9allocatorIdEEE3endEv
	.section	.text._ZN4_STL14_List_iteratorIdNS_16_Nonconst_traitsIdEEEppEv,"axG",%progbits,_ZN4_STL14_List_iteratorIdNS_16_Nonconst_traitsIdEEEppEv,comdat
	.align	2
	.weak	_ZN4_STL14_List_iteratorIdNS_16_Nonconst_traitsIdEEEppEv
	.hidden	_ZN4_STL14_List_iteratorIdNS_16_Nonconst_traitsIdEEEppEv
	.type	_ZN4_STL14_List_iteratorIdNS_16_Nonconst_traitsIdEEEppEv, %function
_ZN4_STL14_List_iteratorIdNS_16_Nonconst_traitsIdEEEppEv:
.LFB3723:
	.loc 11 134 0
	.cfi_startproc
	@ args = 0, pretend = 0, frame = 8
	@ frame_needed = 0, uses_anonymous_args = 0
	str	lr, [sp, #-4]!
.LCFI118:
	.cfi_def_cfa_offset 4
	.cfi_offset 14, -4
	sub	sp, sp, #12
.LCFI119:
	.cfi_def_cfa_offset 16
	str	r0, [sp, #4]
	.loc 11 135 0
	ldr	r3, [sp, #4]
	mov	r0, r3
	bl	_ZN4_STL19_List_iterator_base7_M_incrEv(PLT)
	.loc 11 136 0
	ldr	r3, [sp, #4]
	.loc 11 137 0
	mov	r0, r3
	add	sp, sp, #12
	@ sp needed
	ldr	pc, [sp], #4
	.cfi_endproc
.LFE3723:
	.size	_ZN4_STL14_List_iteratorIdNS_16_Nonconst_traitsIdEEEppEv, .-_ZN4_STL14_List_iteratorIdNS_16_Nonconst_traitsIdEEEppEv
	.section	.text._ZNK4_STL14_List_iteratorIdNS_16_Nonconst_traitsIdEEEdeEv,"axG",%progbits,_ZNK4_STL14_List_iteratorIdNS_16_Nonconst_traitsIdEEEdeEv,comdat
	.align	2
	.weak	_ZNK4_STL14_List_iteratorIdNS_16_Nonconst_traitsIdEEEdeEv
	.hidden	_ZNK4_STL14_List_iteratorIdNS_16_Nonconst_traitsIdEEEdeEv
	.type	_ZNK4_STL14_List_iteratorIdNS_16_Nonconst_traitsIdEEEdeEv, %function
_ZNK4_STL14_List_iteratorIdNS_16_Nonconst_traitsIdEEEdeEv:
.LFB3724:
	.loc 11 130 0
	.cfi_startproc
	@ args = 0, pretend = 0, frame = 8
	@ frame_needed = 0, uses_anonymous_args = 0
	@ link register save eliminated.
	sub	sp, sp, #8
.LCFI120:
	.cfi_def_cfa_offset 8
	str	r0, [sp, #4]
	.loc 11 130 0
	ldr	r3, [sp, #4]
	ldr	r3, [r3]
	add	r3, r3, #8
	mov	r0, r3
	add	sp, sp, #8
	@ sp needed
	bx	lr
	.cfi_endproc
.LFE3724:
	.size	_ZNK4_STL14_List_iteratorIdNS_16_Nonconst_traitsIdEEEdeEv, .-_ZNK4_STL14_List_iteratorIdNS_16_Nonconst_traitsIdEEEdeEv
	.section	.text._ZN4_STL17_STLP_alloc_proxyIPccNS_9allocatorIcEEED2Ev,"axG",%progbits,_ZN4_STL17_STLP_alloc_proxyIPccNS_9allocatorIcEEED5Ev,comdat
	.align	2
	.weak	_ZN4_STL17_STLP_alloc_proxyIPccNS_9allocatorIcEEED2Ev
	.hidden	_ZN4_STL17_STLP_alloc_proxyIPccNS_9allocatorIcEEED2Ev
	.type	_ZN4_STL17_STLP_alloc_proxyIPccNS_9allocatorIcEEED2Ev, %function
_ZN4_STL17_STLP_alloc_proxyIPccNS_9allocatorIcEEED2Ev:
.LFB3727:
	.loc 17 481 0
	.cfi_startproc
	@ args = 0, pretend = 0, frame = 8
	@ frame_needed = 0, uses_anonymous_args = 0
	str	lr, [sp, #-4]!
.LCFI121:
	.cfi_def_cfa_offset 4
	.cfi_offset 14, -4
	sub	sp, sp, #12
.LCFI122:
	.cfi_def_cfa_offset 16
	str	r0, [sp, #4]
.LBB41:
	.loc 17 481 0
	ldr	r0, [sp, #4]
	bl	_ZN4_STL9allocatorIcED2Ev(PLT)
.LBE41:
	ldr	r3, [sp, #4]
	mov	r0, r3
	add	sp, sp, #12
	@ sp needed
	ldr	pc, [sp], #4
	.cfi_endproc
.LFE3727:
	.size	_ZN4_STL17_STLP_alloc_proxyIPccNS_9allocatorIcEEED2Ev, .-_ZN4_STL17_STLP_alloc_proxyIPccNS_9allocatorIcEEED2Ev
	.weak	_ZN4_STL17_STLP_alloc_proxyIPccNS_9allocatorIcEEED1Ev
	.hidden	_ZN4_STL17_STLP_alloc_proxyIPccNS_9allocatorIcEEED1Ev
	.set	_ZN4_STL17_STLP_alloc_proxyIPccNS_9allocatorIcEEED1Ev,_ZN4_STL17_STLP_alloc_proxyIPccNS_9allocatorIcEEED2Ev
	.section	.text._ZN4_STL12_String_baseIcNS_9allocatorIcEEED2Ev,"axG",%progbits,_ZN4_STL12_String_baseIcNS_9allocatorIcEEED5Ev,comdat
	.align	2
	.weak	_ZN4_STL12_String_baseIcNS_9allocatorIcEEED2Ev
	.hidden	_ZN4_STL12_String_baseIcNS_9allocatorIcEEED2Ev
	.type	_ZN4_STL12_String_baseIcNS_9allocatorIcEEED2Ev, %function
_ZN4_STL12_String_baseIcNS_9allocatorIcEEED2Ev:
.LFB3729:
	.loc 15 135 0
	.cfi_startproc
	@ args = 0, pretend = 0, frame = 8
	@ frame_needed = 0, uses_anonymous_args = 0
	str	lr, [sp, #-4]!
.LCFI123:
	.cfi_def_cfa_offset 4
	.cfi_offset 14, -4
	sub	sp, sp, #12
.LCFI124:
	.cfi_def_cfa_offset 16
	str	r0, [sp, #4]
.LBB42:
	.loc 15 135 0
	ldr	r0, [sp, #4]
	bl	_ZN4_STL12_String_baseIcNS_9allocatorIcEEE19_M_deallocate_blockEv(PLT)
	ldr	r3, [sp, #4]
	add	r3, r3, #8
	mov	r0, r3
	bl	_ZN4_STL17_STLP_alloc_proxyIPccNS_9allocatorIcEEED1Ev(PLT)
.LBE42:
	ldr	r3, [sp, #4]
	mov	r0, r3
	add	sp, sp, #12
	@ sp needed
	ldr	pc, [sp], #4
	.cfi_endproc
.LFE3729:
	.size	_ZN4_STL12_String_baseIcNS_9allocatorIcEEED2Ev, .-_ZN4_STL12_String_baseIcNS_9allocatorIcEEED2Ev
	.weak	_ZN4_STL12_String_baseIcNS_9allocatorIcEEED1Ev
	.hidden	_ZN4_STL12_String_baseIcNS_9allocatorIcEEED1Ev
	.set	_ZN4_STL12_String_baseIcNS_9allocatorIcEEED1Ev,_ZN4_STL12_String_baseIcNS_9allocatorIcEEED2Ev
	.section	.text._ZNK4_STL12basic_stringIcNS_11char_traitsIcEENS_9allocatorIcEEE13get_allocatorEv,"axG",%progbits,_ZNK4_STL12basic_stringIcNS_11char_traitsIcEENS_9allocatorIcEEE13get_allocatorEv,comdat
	.align	2
	.weak	_ZNK4_STL12basic_stringIcNS_11char_traitsIcEENS_9allocatorIcEEE13get_allocatorEv
	.hidden	_ZNK4_STL12basic_stringIcNS_11char_traitsIcEENS_9allocatorIcEEE13get_allocatorEv
	.type	_ZNK4_STL12basic_stringIcNS_11char_traitsIcEENS_9allocatorIcEEE13get_allocatorEv, %function
_ZNK4_STL12basic_stringIcNS_11char_traitsIcEENS_9allocatorIcEEE13get_allocatorEv:
.LFB3731:
	.loc 15 215 0
	.cfi_startproc
	@ args = 0, pretend = 0, frame = 8
	@ frame_needed = 0, uses_anonymous_args = 0
	str	lr, [sp, #-4]!
.LCFI125:
	.cfi_def_cfa_offset 4
	.cfi_offset 14, -4
	sub	sp, sp, #12
.LCFI126:
	.cfi_def_cfa_offset 16
	str	r0, [sp, #4]
	str	r1, [sp]
	.loc 15 216 0
	ldr	r3, [sp]
	add	r3, r3, #8
	ldr	r0, [sp, #4]
	mov	r1, r3
	bl	_ZN4_STL9allocatorIcEC1ERKS1_(PLT)
	.loc 15 217 0
	ldr	r0, [sp, #4]
	add	sp, sp, #12
	@ sp needed
	ldr	pc, [sp], #4
	.cfi_endproc
.LFE3731:
	.size	_ZNK4_STL12basic_stringIcNS_11char_traitsIcEENS_9allocatorIcEEE13get_allocatorEv, .-_ZNK4_STL12basic_stringIcNS_11char_traitsIcEENS_9allocatorIcEEE13get_allocatorEv
	.section	.text._ZN4_STL9allocatorIcED2Ev,"axG",%progbits,_ZN4_STL9allocatorIcED5Ev,comdat
	.align	2
	.weak	_ZN4_STL9allocatorIcED2Ev
	.hidden	_ZN4_STL9allocatorIcED2Ev
	.type	_ZN4_STL9allocatorIcED2Ev, %function
_ZN4_STL9allocatorIcED2Ev:
.LFB3733:
	.loc 17 350 0
	.cfi_startproc
	@ args = 0, pretend = 0, frame = 8
	@ frame_needed = 0, uses_anonymous_args = 0
	@ link register save eliminated.
	sub	sp, sp, #8
.LCFI127:
	.cfi_def_cfa_offset 8
	str	r0, [sp, #4]
	.loc 17 350 0
	ldr	r3, [sp, #4]
	mov	r0, r3
	add	sp, sp, #8
	@ sp needed
	bx	lr
	.cfi_endproc
.LFE3733:
	.size	_ZN4_STL9allocatorIcED2Ev, .-_ZN4_STL9allocatorIcED2Ev
	.weak	_ZN4_STL9allocatorIcED1Ev
	.hidden	_ZN4_STL9allocatorIcED1Ev
	.set	_ZN4_STL9allocatorIcED1Ev,_ZN4_STL9allocatorIcED2Ev
	.section	.text._ZN4_STL12_String_baseIcNS_9allocatorIcEEEC2ERKS2_,"axG",%progbits,_ZN4_STL12_String_baseIcNS_9allocatorIcEEEC5ERKS2_,comdat
	.align	2
	.weak	_ZN4_STL12_String_baseIcNS_9allocatorIcEEEC2ERKS2_
	.hidden	_ZN4_STL12_String_baseIcNS_9allocatorIcEEEC2ERKS2_
	.type	_ZN4_STL12_String_baseIcNS_9allocatorIcEEEC2ERKS2_, %function
_ZN4_STL12_String_baseIcNS_9allocatorIcEEEC2ERKS2_:
.LFB3736:
	.loc 15 128 0
	.cfi_startproc
	@ args = 0, pretend = 0, frame = 8
	@ frame_needed = 0, uses_anonymous_args = 0
	str	lr, [sp, #-4]!
.LCFI128:
	.cfi_def_cfa_offset 4
	.cfi_offset 14, -4
	sub	sp, sp, #12
.LCFI129:
	.cfi_def_cfa_offset 16
	str	r0, [sp, #4]
	str	r1, [sp]
.LBB43:
	.loc 15 129 0
	ldr	r3, [sp, #4]
	mov	r2, #0
	str	r2, [r3]
	ldr	r3, [sp, #4]
	mov	r2, #0
	str	r2, [r3, #4]
	ldr	r3, [sp, #4]
	add	r3, r3, #8
	mov	r0, r3
	ldr	r1, [sp]
	mov	r2, #0
	bl	_ZN4_STL17_STLP_alloc_proxyIPccNS_9allocatorIcEEEC1ERKS3_S1_(PLT)
.LBE43:
	ldr	r3, [sp, #4]
	mov	r0, r3
	add	sp, sp, #12
	@ sp needed
	ldr	pc, [sp], #4
	.cfi_endproc
.LFE3736:
	.size	_ZN4_STL12_String_baseIcNS_9allocatorIcEEEC2ERKS2_, .-_ZN4_STL12_String_baseIcNS_9allocatorIcEEEC2ERKS2_
	.weak	_ZN4_STL12_String_baseIcNS_9allocatorIcEEEC1ERKS2_
	.hidden	_ZN4_STL12_String_baseIcNS_9allocatorIcEEEC1ERKS2_
	.set	_ZN4_STL12_String_baseIcNS_9allocatorIcEEEC1ERKS2_,_ZN4_STL12_String_baseIcNS_9allocatorIcEEEC2ERKS2_
	.section	.text._ZN4_STL12basic_stringIcNS_11char_traitsIcEENS_9allocatorIcEEE19_M_range_initializeIPcEEvT_S8_,"axG",%progbits,_ZN4_STL12basic_stringIcNS_11char_traitsIcEENS_9allocatorIcEEE19_M_range_initializeIPcEEvT_S8_,comdat
	.align	2
	.weak	_ZN4_STL12basic_stringIcNS_11char_traitsIcEENS_9allocatorIcEEE19_M_range_initializeIPcEEvT_S8_
	.hidden	_ZN4_STL12basic_stringIcNS_11char_traitsIcEENS_9allocatorIcEEE19_M_range_initializeIPcEEvT_S8_
	.type	_ZN4_STL12basic_stringIcNS_11char_traitsIcEENS_9allocatorIcEEE19_M_range_initializeIPcEEvT_S8_, %function
_ZN4_STL12basic_stringIcNS_11char_traitsIcEENS_9allocatorIcEEE19_M_range_initializeIPcEEvT_S8_:
.LFB3738:
	.loc 15 390 0
	.cfi_startproc
	@ args = 0, pretend = 0, frame = 24
	@ frame_needed = 0, uses_anonymous_args = 0
	str	lr, [sp, #-4]!
.LCFI130:
	.cfi_def_cfa_offset 4
	.cfi_offset 14, -4
	sub	sp, sp, #28
.LCFI131:
	.cfi_def_cfa_offset 32
	str	r0, [sp, #12]
	str	r1, [sp, #8]
	str	r2, [sp, #4]
	.loc 15 391 0
	add	r3, sp, #20
	ldr	r0, [sp, #12]
	ldr	r1, [sp, #8]
	ldr	r2, [sp, #4]
	bl	_ZN4_STL12basic_stringIcNS_11char_traitsIcEENS_9allocatorIcEEE19_M_range_initializeIPcEEvT_S8_RKNS_20forward_iterator_tagE(PLT)
	.loc 15 392 0
	add	sp, sp, #28
	@ sp needed
	ldr	pc, [sp], #4
	.cfi_endproc
.LFE3738:
	.size	_ZN4_STL12basic_stringIcNS_11char_traitsIcEENS_9allocatorIcEEE19_M_range_initializeIPcEEvT_S8_, .-_ZN4_STL12basic_stringIcNS_11char_traitsIcEENS_9allocatorIcEEE19_M_range_initializeIPcEEvT_S8_
	.section	.text._ZN4_STL12basic_stringIcNS_11char_traitsIcEENS_9allocatorIcEEE6assignIPcEERS5_T_S9_,"axG",%progbits,_ZN4_STL12basic_stringIcNS_11char_traitsIcEENS_9allocatorIcEEE6assignIPcEERS5_T_S9_,comdat
	.align	2
	.weak	_ZN4_STL12basic_stringIcNS_11char_traitsIcEENS_9allocatorIcEEE6assignIPcEERS5_T_S9_
	.hidden	_ZN4_STL12basic_stringIcNS_11char_traitsIcEENS_9allocatorIcEEE6assignIPcEERS5_T_S9_
	.type	_ZN4_STL12basic_stringIcNS_11char_traitsIcEENS_9allocatorIcEEE6assignIPcEERS5_T_S9_, %function
_ZN4_STL12basic_stringIcNS_11char_traitsIcEENS_9allocatorIcEEE6assignIPcEERS5_T_S9_:
.LFB3780:
	.loc 15 642 0
	.cfi_startproc
	@ args = 0, pretend = 0, frame = 24
	@ frame_needed = 0, uses_anonymous_args = 0
	str	lr, [sp, #-4]!
.LCFI132:
	.cfi_def_cfa_offset 4
	.cfi_offset 14, -4
	sub	sp, sp, #28
.LCFI133:
	.cfi_def_cfa_offset 32
	str	r0, [sp, #12]
	str	r1, [sp, #8]
	str	r2, [sp, #4]
.LBB44:
	.loc 15 644 0
	add	r3, sp, #20
	ldr	r0, [sp, #12]
	ldr	r1, [sp, #8]
	ldr	r2, [sp, #4]
	bl	_ZN4_STL12basic_stringIcNS_11char_traitsIcEENS_9allocatorIcEEE18_M_assign_dispatchIPcEERS5_T_S9_RKNS_12__false_typeE(PLT)
	mov	r3, r0
.LBE44:
	.loc 15 645 0
	mov	r0, r3
	add	sp, sp, #28
	@ sp needed
	ldr	pc, [sp], #4
	.cfi_endproc
.LFE3780:
	.size	_ZN4_STL12basic_stringIcNS_11char_traitsIcEENS_9allocatorIcEEE6assignIPcEERS5_T_S9_, .-_ZN4_STL12basic_stringIcNS_11char_traitsIcEENS_9allocatorIcEEE6assignIPcEERS5_T_S9_
	.section	.text._ZN4_STL15basic_streambufIcNS_11char_traitsIcEEE4setgEPcS4_S4_,"axG",%progbits,_ZN4_STL15basic_streambufIcNS_11char_traitsIcEEE4setgEPcS4_S4_,comdat
	.align	2
	.weak	_ZN4_STL15basic_streambufIcNS_11char_traitsIcEEE4setgEPcS4_S4_
	.hidden	_ZN4_STL15basic_streambufIcNS_11char_traitsIcEEE4setgEPcS4_S4_
	.type	_ZN4_STL15basic_streambufIcNS_11char_traitsIcEEE4setgEPcS4_S4_, %function
_ZN4_STL15basic_streambufIcNS_11char_traitsIcEEE4setgEPcS4_S4_:
.LFB3785:
	.file 22 "c:/marmalade/7.5/s3e/h/std/c++/stl/_streambuf.h"
	.loc 22 95 0
	.cfi_startproc
	@ args = 0, pretend = 0, frame = 16
	@ frame_needed = 0, uses_anonymous_args = 0
	@ link register save eliminated.
	sub	sp, sp, #16
.LCFI134:
	.cfi_def_cfa_offset 16
	str	r0, [sp, #12]
	str	r1, [sp, #8]
	str	r2, [sp, #4]
	str	r3, [sp]
	.loc 22 96 0
	ldr	r3, [sp, #12]
	ldr	r2, [sp, #8]
	str	r2, [r3, #4]
	.loc 22 97 0
	ldr	r3, [sp, #12]
	ldr	r2, [sp, #4]
	str	r2, [r3, #8]
	.loc 22 98 0
	ldr	r3, [sp, #12]
	ldr	r2, [sp]
	str	r2, [r3, #12]
	.loc 22 99 0
	add	sp, sp, #16
	@ sp needed
	bx	lr
	.cfi_endproc
.LFE3785:
	.size	_ZN4_STL15basic_streambufIcNS_11char_traitsIcEEE4setgEPcS4_S4_, .-_ZN4_STL15basic_streambufIcNS_11char_traitsIcEEE4setgEPcS4_S4_
	.section	.text._ZN4_STL17_STLP_alloc_proxyIPNS_10_List_nodeIdEES2_NS_9allocatorIS2_EEED2Ev,"axG",%progbits,_ZN4_STL17_STLP_alloc_proxyIPNS_10_List_nodeIdEES2_NS_9allocatorIS2_EEED5Ev,comdat
	.align	2
	.weak	_ZN4_STL17_STLP_alloc_proxyIPNS_10_List_nodeIdEES2_NS_9allocatorIS2_EEED2Ev
	.hidden	_ZN4_STL17_STLP_alloc_proxyIPNS_10_List_nodeIdEES2_NS_9allocatorIS2_EEED2Ev
	.type	_ZN4_STL17_STLP_alloc_proxyIPNS_10_List_nodeIdEES2_NS_9allocatorIS2_EEED2Ev, %function
_ZN4_STL17_STLP_alloc_proxyIPNS_10_List_nodeIdEES2_NS_9allocatorIS2_EEED2Ev:
.LFB3788:
	.loc 17 481 0
	.cfi_startproc
	@ args = 0, pretend = 0, frame = 8
	@ frame_needed = 0, uses_anonymous_args = 0
	str	lr, [sp, #-4]!
.LCFI135:
	.cfi_def_cfa_offset 4
	.cfi_offset 14, -4
	sub	sp, sp, #12
.LCFI136:
	.cfi_def_cfa_offset 16
	str	r0, [sp, #4]
.LBB45:
	.loc 17 481 0
	ldr	r0, [sp, #4]
	bl	_ZN4_STL9allocatorINS_10_List_nodeIdEEED2Ev(PLT)
.LBE45:
	ldr	r3, [sp, #4]
	mov	r0, r3
	add	sp, sp, #12
	@ sp needed
	ldr	pc, [sp], #4
	.cfi_endproc
.LFE3788:
	.size	_ZN4_STL17_STLP_alloc_proxyIPNS_10_List_nodeIdEES2_NS_9allocatorIS2_EEED2Ev, .-_ZN4_STL17_STLP_alloc_proxyIPNS_10_List_nodeIdEES2_NS_9allocatorIS2_EEED2Ev
	.weak	_ZN4_STL17_STLP_alloc_proxyIPNS_10_List_nodeIdEES2_NS_9allocatorIS2_EEED1Ev
	.hidden	_ZN4_STL17_STLP_alloc_proxyIPNS_10_List_nodeIdEES2_NS_9allocatorIS2_EEED1Ev
	.set	_ZN4_STL17_STLP_alloc_proxyIPNS_10_List_nodeIdEES2_NS_9allocatorIS2_EEED1Ev,_ZN4_STL17_STLP_alloc_proxyIPNS_10_List_nodeIdEES2_NS_9allocatorIS2_EEED2Ev
	.section	.text._ZN4_STL10_List_baseIdNS_9allocatorIdEEEC2ERKS2_,"axG",%progbits,_ZN4_STL10_List_baseIdNS_9allocatorIdEEEC5ERKS2_,comdat
	.align	2
	.weak	_ZN4_STL10_List_baseIdNS_9allocatorIdEEEC2ERKS2_
	.hidden	_ZN4_STL10_List_baseIdNS_9allocatorIdEEEC2ERKS2_
	.type	_ZN4_STL10_List_baseIdNS_9allocatorIdEEEC2ERKS2_, %function
_ZN4_STL10_List_baseIdNS_9allocatorIdEEEC2ERKS2_:
.LFB3790:
	.loc 11 182 0
	.cfi_startproc
	@ args = 0, pretend = 0, frame = 16
	@ frame_needed = 0, uses_anonymous_args = 0
	stmfd	sp!, {r4, lr}
.LCFI137:
	.cfi_def_cfa_offset 8
	.cfi_offset 4, -8
	.cfi_offset 14, -4
	sub	sp, sp, #16
.LCFI138:
	.cfi_def_cfa_offset 24
	str	r0, [sp, #4]
	str	r1, [sp]
.LBB46:
	.loc 11 182 0
	ldr	r4, [sp, #4]
	add	r3, sp, #8
	mov	r0, r3
	ldr	r1, [sp]
	bl	_ZN4_STL9allocatorINS_10_List_nodeIdEEEC1IdEERKNS0_IT_EE(PLT)
	add	r3, sp, #8
	mov	r0, r4
	mov	r1, r3
	mov	r2, #0
	bl	_ZN4_STL17_STLP_alloc_proxyIPNS_10_List_nodeIdEES2_NS_9allocatorIS2_EEEC1ERKS5_S3_(PLT)
	add	r3, sp, #8
	mov	r0, r3
	bl	_ZN4_STL9allocatorINS_10_List_nodeIdEEED1Ev(PLT)
.LBB47:
	.loc 11 183 0
	ldr	r3, [sp, #4]
	mov	r0, r3
	mov	r1, #1
	mov	r2, #0
	bl	_ZN4_STL9allocatorINS_10_List_nodeIdEEE8allocateEjPKv(PLT)
	str	r0, [sp, #12]
	.loc 11 184 0
	ldr	r3, [sp, #12]
	ldr	r2, [sp, #12]
	str	r2, [r3]
	.loc 11 185 0
	ldr	r3, [sp, #12]
	ldr	r2, [sp, #12]
	str	r2, [r3, #4]
	.loc 11 186 0
	ldr	r3, [sp, #4]
	ldr	r2, [sp, #12]
	str	r2, [r3]
.LBE47:
.LBE46:
	.loc 11 187 0
	ldr	r3, [sp, #4]
	mov	r0, r3
	add	sp, sp, #16
	@ sp needed
	ldmfd	sp!, {r4, pc}
	.cfi_endproc
.LFE3790:
	.size	_ZN4_STL10_List_baseIdNS_9allocatorIdEEEC2ERKS2_, .-_ZN4_STL10_List_baseIdNS_9allocatorIdEEEC2ERKS2_
	.weak	_ZN4_STL10_List_baseIdNS_9allocatorIdEEEC1ERKS2_
	.hidden	_ZN4_STL10_List_baseIdNS_9allocatorIdEEEC1ERKS2_
	.set	_ZN4_STL10_List_baseIdNS_9allocatorIdEEEC1ERKS2_,_ZN4_STL10_List_baseIdNS_9allocatorIdEEEC2ERKS2_
	.section	.text._ZN4_STL10_List_baseIdNS_9allocatorIdEEED2Ev,"axG",%progbits,_ZN4_STL10_List_baseIdNS_9allocatorIdEEED5Ev,comdat
	.align	2
	.weak	_ZN4_STL10_List_baseIdNS_9allocatorIdEEED2Ev
	.hidden	_ZN4_STL10_List_baseIdNS_9allocatorIdEEED2Ev
	.type	_ZN4_STL10_List_baseIdNS_9allocatorIdEEED2Ev, %function
_ZN4_STL10_List_baseIdNS_9allocatorIdEEED2Ev:
.LFB3793:
	.loc 11 188 0
	.cfi_startproc
	@ args = 0, pretend = 0, frame = 8
	@ frame_needed = 0, uses_anonymous_args = 0
	str	lr, [sp, #-4]!
.LCFI139:
	.cfi_def_cfa_offset 4
	.cfi_offset 14, -4
	sub	sp, sp, #12
.LCFI140:
	.cfi_def_cfa_offset 16
	str	r0, [sp, #4]
.LBB48:
	.loc 11 189 0
	ldr	r0, [sp, #4]
	bl	_ZN4_STL10_List_baseIdNS_9allocatorIdEEE5clearEv(PLT)
	.loc 11 190 0
	ldr	r2, [sp, #4]
	ldr	r3, [sp, #4]
	ldr	r3, [r3]
	mov	r0, r2
	mov	r1, r3
	mov	r2, #1
	bl	_ZN4_STL9allocatorINS_10_List_nodeIdEEE10deallocateEPS2_j(PLT)
	.loc 11 191 0
	ldr	r3, [sp, #4]
	mov	r0, r3
	bl	_ZN4_STL17_STLP_alloc_proxyIPNS_10_List_nodeIdEES2_NS_9allocatorIS2_EEED1Ev(PLT)
.LBE48:
	ldr	r3, [sp, #4]
	mov	r0, r3
	add	sp, sp, #12
	@ sp needed
	ldr	pc, [sp], #4
	.cfi_endproc
.LFE3793:
	.size	_ZN4_STL10_List_baseIdNS_9allocatorIdEEED2Ev, .-_ZN4_STL10_List_baseIdNS_9allocatorIdEEED2Ev
	.weak	_ZN4_STL10_List_baseIdNS_9allocatorIdEEED1Ev
	.hidden	_ZN4_STL10_List_baseIdNS_9allocatorIdEEED1Ev
	.set	_ZN4_STL10_List_baseIdNS_9allocatorIdEEED1Ev,_ZN4_STL10_List_baseIdNS_9allocatorIdEEED2Ev
	.section	.text._ZN4_STL9basic_iosIcNS_11char_traitsIcEEEC2Ev,"axG",%progbits,_ZN4_STL9basic_iosIcNS_11char_traitsIcEEEC5Ev,comdat
	.align	2
	.weak	_ZN4_STL9basic_iosIcNS_11char_traitsIcEEEC2Ev
	.hidden	_ZN4_STL9basic_iosIcNS_11char_traitsIcEEEC2Ev
	.type	_ZN4_STL9basic_iosIcNS_11char_traitsIcEEEC2Ev, %function
_ZN4_STL9basic_iosIcNS_11char_traitsIcEEEC2Ev:
.LFB3796:
	.file 23 "c:/marmalade/7.5/s3e/h/std/c++/stl/_ios.c"
	.loc 23 92 0
	.cfi_startproc
	@ args = 0, pretend = 0, frame = 8
	@ frame_needed = 0, uses_anonymous_args = 0
	str	lr, [sp, #-4]!
.LCFI141:
	.cfi_def_cfa_offset 4
	.cfi_offset 14, -4
	sub	sp, sp, #12
.LCFI142:
	.cfi_def_cfa_offset 16
	str	r0, [sp, #4]
.LBB49:
	.loc 23 94 0
	ldr	r3, [sp, #4]
	mov	r0, r3
	bl	_ZN4_STL8ios_baseC2Ev(PLT)
	ldr	r3, [sp, #4]
	ldr	r2, .L278
.LPIC129:
	add	r2, pc, r2
	add	r2, r2, #8
	str	r2, [r3]
	ldr	r3, [sp, #4]
	mov	r2, #0
	strb	r2, [r3, #84]
	ldr	r3, [sp, #4]
	mov	r2, #0
	str	r2, [r3, #88]
	ldr	r3, [sp, #4]
	mov	r2, #0
	str	r2, [r3, #92]
.LBE49:
	.loc 23 95 0
	ldr	r3, [sp, #4]
	mov	r0, r3
	add	sp, sp, #12
	@ sp needed
	ldr	pc, [sp], #4
.L279:
	.align	2
.L278:
	.word	_ZTVN4_STL9basic_iosIcNS_11char_traitsIcEEEE-(.LPIC129+8)
	.cfi_endproc
.LFE3796:
	.size	_ZN4_STL9basic_iosIcNS_11char_traitsIcEEEC2Ev, .-_ZN4_STL9basic_iosIcNS_11char_traitsIcEEEC2Ev
	.weak	_ZN4_STL9basic_iosIcNS_11char_traitsIcEEEC1Ev
	.hidden	_ZN4_STL9basic_iosIcNS_11char_traitsIcEEEC1Ev
	.set	_ZN4_STL9basic_iosIcNS_11char_traitsIcEEEC1Ev,_ZN4_STL9basic_iosIcNS_11char_traitsIcEEEC2Ev
	.section	.text._ZN4_STL9basic_iosIcNS_11char_traitsIcEEED2Ev,"axG",%progbits,_ZN4_STL9basic_iosIcNS_11char_traitsIcEEED5Ev,comdat
	.align	2
	.weak	_ZN4_STL9basic_iosIcNS_11char_traitsIcEEED2Ev
	.hidden	_ZN4_STL9basic_iosIcNS_11char_traitsIcEEED2Ev
	.type	_ZN4_STL9basic_iosIcNS_11char_traitsIcEEED2Ev, %function
_ZN4_STL9basic_iosIcNS_11char_traitsIcEEED2Ev:
.LFB3799:
	.file 24 "c:/marmalade/7.5/s3e/h/std/c++/stl/_ios.h"
	.loc 24 58 0
	.cfi_startproc
	@ args = 0, pretend = 0, frame = 8
	@ frame_needed = 0, uses_anonymous_args = 0
	str	lr, [sp, #-4]!
.LCFI143:
	.cfi_def_cfa_offset 4
	.cfi_offset 14, -4
	sub	sp, sp, #12
.LCFI144:
	.cfi_def_cfa_offset 16
	str	r0, [sp, #4]
.LBB50:
	.loc 24 58 0
	ldr	r3, [sp, #4]
	ldr	r2, .L284
.LPIC130:
	add	r2, pc, r2
	add	r2, r2, #8
	str	r2, [r3]
	ldr	r3, [sp, #4]
	mov	r0, r3
	bl	_ZN4_STL8ios_baseD2Ev(PLT)
.LBE50:
	mov	r3, #0
	cmp	r3, #0
	beq	.L282
	.loc 24 58 0 is_stmt 0 discriminator 1
	ldr	r0, [sp, #4]
	bl	_ZdlPv(PLT)
.L282:
	.loc 24 58 0 discriminator 2
	ldr	r3, [sp, #4]
	mov	r0, r3
	add	sp, sp, #12
	@ sp needed
	ldr	pc, [sp], #4
.L285:
	.align	2
.L284:
	.word	_ZTVN4_STL9basic_iosIcNS_11char_traitsIcEEEE-(.LPIC130+8)
	.cfi_endproc
.LFE3799:
	.size	_ZN4_STL9basic_iosIcNS_11char_traitsIcEEED2Ev, .-_ZN4_STL9basic_iosIcNS_11char_traitsIcEEED2Ev
	.weak	_ZN4_STL9basic_iosIcNS_11char_traitsIcEEED1Ev
	.hidden	_ZN4_STL9basic_iosIcNS_11char_traitsIcEEED1Ev
	.set	_ZN4_STL9basic_iosIcNS_11char_traitsIcEEED1Ev,_ZN4_STL9basic_iosIcNS_11char_traitsIcEEED2Ev
	.section	.text._ZN4_STL9basic_iosIcNS_11char_traitsIcEEED0Ev,"axG",%progbits,_ZN4_STL9basic_iosIcNS_11char_traitsIcEEED0Ev,comdat
	.align	2
	.weak	_ZN4_STL9basic_iosIcNS_11char_traitsIcEEED0Ev
	.hidden	_ZN4_STL9basic_iosIcNS_11char_traitsIcEEED0Ev
	.type	_ZN4_STL9basic_iosIcNS_11char_traitsIcEEED0Ev, %function
_ZN4_STL9basic_iosIcNS_11char_traitsIcEEED0Ev:
.LFB3801:
	.loc 24 58 0 is_stmt 1
	.cfi_startproc
	@ args = 0, pretend = 0, frame = 8
	@ frame_needed = 0, uses_anonymous_args = 0
	str	lr, [sp, #-4]!
.LCFI145:
	.cfi_def_cfa_offset 4
	.cfi_offset 14, -4
	sub	sp, sp, #12
.LCFI146:
	.cfi_def_cfa_offset 16
	str	r0, [sp, #4]
	.loc 24 58 0
	ldr	r0, [sp, #4]
	bl	_ZN4_STL9basic_iosIcNS_11char_traitsIcEEED1Ev(PLT)
	ldr	r0, [sp, #4]
	bl	_ZdlPv(PLT)
	ldr	r3, [sp, #4]
	mov	r0, r3
	add	sp, sp, #12
	@ sp needed
	ldr	pc, [sp], #4
	.cfi_endproc
.LFE3801:
	.size	_ZN4_STL9basic_iosIcNS_11char_traitsIcEEED0Ev, .-_ZN4_STL9basic_iosIcNS_11char_traitsIcEEED0Ev
	.section	.text._ZN4_STL14basic_iostreamIcNS_11char_traitsIcEEEC2EPNS_15basic_streambufIcS2_EE,"axG",%progbits,_ZN4_STL14basic_iostreamIcNS_11char_traitsIcEEEC2EPNS_15basic_streambufIcS2_EE,comdat
	.align	2
	.weak	_ZN4_STL14basic_iostreamIcNS_11char_traitsIcEEEC2EPNS_15basic_streambufIcS2_EE
	.hidden	_ZN4_STL14basic_iostreamIcNS_11char_traitsIcEEEC2EPNS_15basic_streambufIcS2_EE
	.type	_ZN4_STL14basic_iostreamIcNS_11char_traitsIcEEEC2EPNS_15basic_streambufIcS2_EE, %function
_ZN4_STL14basic_iostreamIcNS_11char_traitsIcEEEC2EPNS_15basic_streambufIcS2_EE:
.LFB3803:
	.file 25 "c:/marmalade/7.5/s3e/h/std/c++/stl/_istream.c"
	.loc 25 1408 0
	.cfi_startproc
	@ args = 0, pretend = 0, frame = 16
	@ frame_needed = 0, uses_anonymous_args = 0
	str	lr, [sp, #-4]!
.LCFI147:
	.cfi_def_cfa_offset 4
	.cfi_offset 14, -4
	sub	sp, sp, #20
.LCFI148:
	.cfi_def_cfa_offset 24
	str	r0, [sp, #12]
	str	r1, [sp, #8]
	str	r2, [sp, #4]
.LBB51:
	.loc 25 1412 0
	ldr	r2, [sp, #12]
	ldr	r3, [sp, #8]
	add	r3, r3, #4
	mov	r0, r2
	mov	r1, r3
	ldr	r2, [sp, #4]
	bl	_ZN4_STL13basic_istreamIcNS_11char_traitsIcEEEC2EPNS_15basic_streambufIcS2_EE(PLT)
	ldr	r3, [sp, #12]
	add	r2, r3, #8
	ldr	r3, [sp, #8]
	add	r3, r3, #12
	mov	r0, r2
	mov	r1, r3
	ldr	r2, [sp, #4]
	bl	_ZN4_STL13basic_ostreamIcNS_11char_traitsIcEEEC2EPNS_15basic_streambufIcS2_EE(PLT)
	ldr	r3, [sp, #8]
	ldr	r2, [r3]
	ldr	r3, [sp, #12]
	str	r2, [r3]
	ldr	r3, [sp, #12]
	ldr	r3, [r3]
	sub	r3, r3, #12
	ldr	r3, [r3]
	ldr	r2, [sp, #12]
	add	r3, r2, r3
	ldr	r2, [sp, #8]
	ldr	r2, [r2, #20]
	str	r2, [r3]
	ldr	r3, [sp, #8]
	ldr	r2, [r3, #24]
	ldr	r3, [sp, #12]
	str	r2, [r3, #8]
	.loc 25 1414 0
	ldr	r3, [sp, #12]
	ldr	r3, [r3]
	sub	r3, r3, #12
	ldr	r3, [r3]
	ldr	r2, [sp, #12]
	add	r3, r2, r3
	mov	r0, r3
	ldr	r1, [sp, #4]
	bl	_ZN4_STL9basic_iosIcNS_11char_traitsIcEEE4initEPNS_15basic_streambufIcS2_EE(PLT)
.LBE51:
	.loc 25 1415 0
	ldr	r3, [sp, #12]
	mov	r0, r3
	add	sp, sp, #20
	@ sp needed
	ldr	pc, [sp], #4
	.cfi_endproc
.LFE3803:
	.size	_ZN4_STL14basic_iostreamIcNS_11char_traitsIcEEEC2EPNS_15basic_streambufIcS2_EE, .-_ZN4_STL14basic_iostreamIcNS_11char_traitsIcEEEC2EPNS_15basic_streambufIcS2_EE
	.section	.text._ZN4_STL14basic_iostreamIcNS_11char_traitsIcEEED2Ev,"axG",%progbits,_ZN4_STL14basic_iostreamIcNS_11char_traitsIcEEED2Ev,comdat
	.align	2
	.weak	_ZN4_STL14basic_iostreamIcNS_11char_traitsIcEEED2Ev
	.hidden	_ZN4_STL14basic_iostreamIcNS_11char_traitsIcEEED2Ev
	.type	_ZN4_STL14basic_iostreamIcNS_11char_traitsIcEEED2Ev, %function
_ZN4_STL14basic_iostreamIcNS_11char_traitsIcEEED2Ev:
.LFB3806:
	.loc 25 1418 0
	.cfi_startproc
	@ args = 0, pretend = 0, frame = 8
	@ frame_needed = 0, uses_anonymous_args = 0
	str	lr, [sp, #-4]!
.LCFI149:
	.cfi_def_cfa_offset 4
	.cfi_offset 14, -4
	sub	sp, sp, #12
.LCFI150:
	.cfi_def_cfa_offset 16
	str	r0, [sp, #4]
	str	r1, [sp]
.LBB52:
	.loc 25 1419 0
	ldr	r3, [sp]
	ldr	r2, [r3]
	ldr	r3, [sp, #4]
	str	r2, [r3]
	ldr	r3, [sp, #4]
	ldr	r3, [r3]
	sub	r3, r3, #12
	ldr	r3, [r3]
	ldr	r2, [sp, #4]
	add	r3, r2, r3
	ldr	r2, [sp]
	ldr	r2, [r2, #20]
	str	r2, [r3]
	ldr	r3, [sp]
	ldr	r2, [r3, #24]
	ldr	r3, [sp, #4]
	str	r2, [r3, #8]
	ldr	r3, [sp, #4]
	add	r2, r3, #8
	ldr	r3, [sp]
	add	r3, r3, #12
	mov	r0, r2
	mov	r1, r3
	bl	_ZN4_STL13basic_ostreamIcNS_11char_traitsIcEEED2Ev(PLT)
	ldr	r2, [sp, #4]
	ldr	r3, [sp]
	add	r3, r3, #4
	mov	r0, r2
	mov	r1, r3
	bl	_ZN4_STL13basic_istreamIcNS_11char_traitsIcEEED2Ev(PLT)
	mov	r3, #0
	cmp	r3, #0
	beq	.L293
	.loc 25 1419 0 is_stmt 0 discriminator 19
	ldr	r3, [sp, #4]
	add	r3, r3, #12
	mov	r0, r3
	bl	_ZN4_STL9basic_iosIcNS_11char_traitsIcEEED2Ev(PLT)
.L293:
.LBE52:
	.loc 25 1419 0 discriminator 20
	mov	r3, #0
	cmp	r3, #0
	beq	.L294
	.loc 25 1419 0 discriminator 1
	ldr	r0, [sp, #4]
	bl	_ZdlPv(PLT)
.L294:
	.loc 25 1419 0 discriminator 2
	ldr	r3, [sp, #4]
	mov	r0, r3
	add	sp, sp, #12
	@ sp needed
	ldr	pc, [sp], #4
	.cfi_endproc
.LFE3806:
	.size	_ZN4_STL14basic_iostreamIcNS_11char_traitsIcEEED2Ev, .-_ZN4_STL14basic_iostreamIcNS_11char_traitsIcEEED2Ev
	.section	.text._ZN4_STL14basic_iostreamIcNS_11char_traitsIcEEED1Ev,"axG",%progbits,_ZN4_STL14basic_iostreamIcNS_11char_traitsIcEEED1Ev,comdat
	.align	2
	.weak	_ZN4_STL14basic_iostreamIcNS_11char_traitsIcEEED1Ev
	.hidden	_ZN4_STL14basic_iostreamIcNS_11char_traitsIcEEED1Ev
	.type	_ZN4_STL14basic_iostreamIcNS_11char_traitsIcEEED1Ev, %function
_ZN4_STL14basic_iostreamIcNS_11char_traitsIcEEED1Ev:
.LFB3807:
	.loc 25 1418 0 is_stmt 1
	.cfi_startproc
	@ args = 0, pretend = 0, frame = 8
	@ frame_needed = 0, uses_anonymous_args = 0
	str	lr, [sp, #-4]!
.LCFI151:
	.cfi_def_cfa_offset 4
	.cfi_offset 14, -4
	sub	sp, sp, #12
.LCFI152:
	.cfi_def_cfa_offset 16
	str	r0, [sp, #4]
.LBB53:
	.loc 25 1419 0
	ldr	r3, .L300
.LPIC131:
	add	r3, pc, r3
	add	r2, r3, #12
	ldr	r3, [sp, #4]
	str	r2, [r3]
	mov	r3, #12
	ldr	r2, [sp, #4]
	add	r3, r2, r3
	ldr	r2, .L300+4
.LPIC132:
	add	r2, pc, r2
	add	r2, r2, #52
	str	r2, [r3]
	ldr	r3, .L300+8
.LPIC133:
	add	r3, pc, r3
	add	r2, r3, #32
	ldr	r3, [sp, #4]
	str	r2, [r3, #8]
	ldr	r3, [sp, #4]
	add	r2, r3, #8
	ldr	r3, .L300+12
.LPIC134:
	add	r3, pc, r3
	add	r3, r3, #12
	mov	r0, r2
	mov	r1, r3
	bl	_ZN4_STL13basic_ostreamIcNS_11char_traitsIcEEED2Ev(PLT)
	ldr	r2, [sp, #4]
	ldr	r3, .L300+16
.LPIC135:
	add	r3, pc, r3
	add	r3, r3, #4
	mov	r0, r2
	mov	r1, r3
	bl	_ZN4_STL13basic_istreamIcNS_11char_traitsIcEEED2Ev(PLT)
	mov	r3, #2
	cmp	r3, #0
	beq	.L297
	.loc 25 1419 0 is_stmt 0 discriminator 19
	ldr	r3, [sp, #4]
	add	r3, r3, #12
	mov	r0, r3
	bl	_ZN4_STL9basic_iosIcNS_11char_traitsIcEEED2Ev(PLT)
.L297:
.LBE53:
	.loc 25 1419 0 discriminator 20
	mov	r3, #0
	cmp	r3, #0
	beq	.L298
	.loc 25 1419 0 discriminator 1
	ldr	r0, [sp, #4]
	bl	_ZdlPv(PLT)
.L298:
	.loc 25 1419 0 discriminator 2
	ldr	r3, [sp, #4]
	mov	r0, r3
	add	sp, sp, #12
	@ sp needed
	ldr	pc, [sp], #4
.L301:
	.align	2
.L300:
	.word	_ZTVN4_STL14basic_iostreamIcNS_11char_traitsIcEEEE-(.LPIC131+8)
	.word	_ZTVN4_STL14basic_iostreamIcNS_11char_traitsIcEEEE-(.LPIC132+8)
	.word	_ZTVN4_STL14basic_iostreamIcNS_11char_traitsIcEEEE-(.LPIC133+8)
	.word	_ZTTN4_STL14basic_iostreamIcNS_11char_traitsIcEEEE-(.LPIC134+8)
	.word	_ZTTN4_STL14basic_iostreamIcNS_11char_traitsIcEEEE-(.LPIC135+8)
	.cfi_endproc
.LFE3807:
	.size	_ZN4_STL14basic_iostreamIcNS_11char_traitsIcEEED1Ev, .-_ZN4_STL14basic_iostreamIcNS_11char_traitsIcEEED1Ev
	.set	.LTHUNK6,_ZN4_STL14basic_iostreamIcNS_11char_traitsIcEEED1Ev
	.set	.LTHUNK7,_ZN4_STL14basic_iostreamIcNS_11char_traitsIcEEED1Ev
	.align	2
	.weak	_ZThn8_N4_STL14basic_iostreamIcNS_11char_traitsIcEEED1Ev
	.hidden	_ZThn8_N4_STL14basic_iostreamIcNS_11char_traitsIcEEED1Ev
	.type	_ZThn8_N4_STL14basic_iostreamIcNS_11char_traitsIcEEED1Ev, %function
_ZThn8_N4_STL14basic_iostreamIcNS_11char_traitsIcEEED1Ev:
.LFB4255:
	.loc 25 1418 0 is_stmt 1
	.cfi_startproc
	@ args = 0, pretend = 0, frame = 0
	@ frame_needed = 0, uses_anonymous_args = 0
	sub	r0, r0, #8
	b	.LTHUNK7(PLT)
	.cfi_endproc
.LFE4255:
	.size	_ZThn8_N4_STL14basic_iostreamIcNS_11char_traitsIcEEED1Ev, .-_ZThn8_N4_STL14basic_iostreamIcNS_11char_traitsIcEEED1Ev
	.section	.text._ZN4_STL14basic_iostreamIcNS_11char_traitsIcEEED0Ev,"axG",%progbits,_ZN4_STL14basic_iostreamIcNS_11char_traitsIcEEED0Ev,comdat
	.align	2
	.weak	_ZN4_STL14basic_iostreamIcNS_11char_traitsIcEEED0Ev
	.hidden	_ZN4_STL14basic_iostreamIcNS_11char_traitsIcEEED0Ev
	.type	_ZN4_STL14basic_iostreamIcNS_11char_traitsIcEEED0Ev, %function
_ZN4_STL14basic_iostreamIcNS_11char_traitsIcEEED0Ev:
.LFB3808:
	.loc 25 1418 0
	.cfi_startproc
	@ args = 0, pretend = 0, frame = 8
	@ frame_needed = 0, uses_anonymous_args = 0
	str	lr, [sp, #-4]!
.LCFI153:
	.cfi_def_cfa_offset 4
	.cfi_offset 14, -4
	sub	sp, sp, #12
.LCFI154:
	.cfi_def_cfa_offset 16
	str	r0, [sp, #4]
	.loc 25 1419 0
	ldr	r0, [sp, #4]
	bl	_ZN4_STL14basic_iostreamIcNS_11char_traitsIcEEED1Ev(PLT)
	ldr	r0, [sp, #4]
	bl	_ZdlPv(PLT)
	ldr	r3, [sp, #4]
	mov	r0, r3
	add	sp, sp, #12
	@ sp needed
	ldr	pc, [sp], #4
	.cfi_endproc
.LFE3808:
	.size	_ZN4_STL14basic_iostreamIcNS_11char_traitsIcEEED0Ev, .-_ZN4_STL14basic_iostreamIcNS_11char_traitsIcEEED0Ev
	.set	.LTHUNK8,_ZN4_STL14basic_iostreamIcNS_11char_traitsIcEEED0Ev
	.set	.LTHUNK9,_ZN4_STL14basic_iostreamIcNS_11char_traitsIcEEED0Ev
	.align	2
	.weak	_ZThn8_N4_STL14basic_iostreamIcNS_11char_traitsIcEEED0Ev
	.hidden	_ZThn8_N4_STL14basic_iostreamIcNS_11char_traitsIcEEED0Ev
	.type	_ZThn8_N4_STL14basic_iostreamIcNS_11char_traitsIcEEED0Ev, %function
_ZThn8_N4_STL14basic_iostreamIcNS_11char_traitsIcEEED0Ev:
.LFB4257:
	.loc 25 1418 0
	.cfi_startproc
	@ args = 0, pretend = 0, frame = 0
	@ frame_needed = 0, uses_anonymous_args = 0
	sub	r0, r0, #8
	b	.LTHUNK9(PLT)
	.cfi_endproc
.LFE4257:
	.size	_ZThn8_N4_STL14basic_iostreamIcNS_11char_traitsIcEEED0Ev, .-_ZThn8_N4_STL14basic_iostreamIcNS_11char_traitsIcEEED0Ev
	.section	.text._ZN4_STL15basic_stringbufIcNS_11char_traitsIcEENS_9allocatorIcEEEC2Ei,"axG",%progbits,_ZN4_STL15basic_stringbufIcNS_11char_traitsIcEENS_9allocatorIcEEEC5Ei,comdat
	.align	2
	.weak	_ZN4_STL15basic_stringbufIcNS_11char_traitsIcEENS_9allocatorIcEEEC2Ei
	.hidden	_ZN4_STL15basic_stringbufIcNS_11char_traitsIcEENS_9allocatorIcEEEC2Ei
	.type	_ZN4_STL15basic_stringbufIcNS_11char_traitsIcEENS_9allocatorIcEEEC2Ei, %function
_ZN4_STL15basic_stringbufIcNS_11char_traitsIcEENS_9allocatorIcEEEC2Ei:
.LFB3810:
	.loc 18 46 0
	.cfi_startproc
	@ args = 0, pretend = 0, frame = 8
	@ frame_needed = 0, uses_anonymous_args = 0
	str	lr, [sp, #-4]!
.LCFI155:
	.cfi_def_cfa_offset 4
	.cfi_offset 14, -4
	sub	sp, sp, #12
.LCFI156:
	.cfi_def_cfa_offset 16
	str	r0, [sp, #4]
	str	r1, [sp]
.LBB54:
	.loc 18 48 0
	ldr	r3, [sp, #4]
	mov	r0, r3
	bl	_ZN4_STL15basic_streambufIcNS_11char_traitsIcEEEC2Ev(PLT)
	ldr	r3, [sp, #4]
	ldr	r2, .L308
.LPIC136:
	add	r2, pc, r2
	add	r2, r2, #8
	str	r2, [r3]
	ldr	r3, [sp, #4]
	ldr	r2, [sp]
	str	r2, [r3, #36]
	ldr	r3, [sp, #4]
	add	r3, r3, #40
	mov	r0, r3
	bl	_ZN4_STL12basic_stringIcNS_11char_traitsIcEENS_9allocatorIcEEEC1Ev(PLT)
.LBE54:
	.loc 18 49 0
	ldr	r3, [sp, #4]
	mov	r0, r3
	add	sp, sp, #12
	@ sp needed
	ldr	pc, [sp], #4
.L309:
	.align	2
.L308:
	.word	_ZTVN4_STL15basic_stringbufIcNS_11char_traitsIcEENS_9allocatorIcEEEE-(.LPIC136+8)
	.cfi_endproc
.LFE3810:
	.size	_ZN4_STL15basic_stringbufIcNS_11char_traitsIcEENS_9allocatorIcEEEC2Ei, .-_ZN4_STL15basic_stringbufIcNS_11char_traitsIcEENS_9allocatorIcEEEC2Ei
	.weak	_ZN4_STL15basic_stringbufIcNS_11char_traitsIcEENS_9allocatorIcEEEC1Ei
	.hidden	_ZN4_STL15basic_stringbufIcNS_11char_traitsIcEENS_9allocatorIcEEEC1Ei
	.set	_ZN4_STL15basic_stringbufIcNS_11char_traitsIcEENS_9allocatorIcEEEC1Ei,_ZN4_STL15basic_stringbufIcNS_11char_traitsIcEENS_9allocatorIcEEEC2Ei
	.section	.text._ZN4_STL15basic_stringbufIcNS_11char_traitsIcEENS_9allocatorIcEEED2Ev,"axG",%progbits,_ZN4_STL15basic_stringbufIcNS_11char_traitsIcEENS_9allocatorIcEEED5Ev,comdat
	.align	2
	.weak	_ZN4_STL15basic_stringbufIcNS_11char_traitsIcEENS_9allocatorIcEEED2Ev
	.hidden	_ZN4_STL15basic_stringbufIcNS_11char_traitsIcEENS_9allocatorIcEEED2Ev
	.type	_ZN4_STL15basic_stringbufIcNS_11char_traitsIcEENS_9allocatorIcEEED2Ev, %function
_ZN4_STL15basic_stringbufIcNS_11char_traitsIcEENS_9allocatorIcEEED2Ev:
.LFB3813:
	.loc 18 60 0
	.cfi_startproc
	@ args = 0, pretend = 0, frame = 8
	@ frame_needed = 0, uses_anonymous_args = 0
	str	lr, [sp, #-4]!
.LCFI157:
	.cfi_def_cfa_offset 4
	.cfi_offset 14, -4
	sub	sp, sp, #12
.LCFI158:
	.cfi_def_cfa_offset 16
	str	r0, [sp, #4]
.LBB55:
	.loc 18 61 0
	ldr	r3, [sp, #4]
	ldr	r2, .L314
.LPIC137:
	add	r2, pc, r2
	add	r2, r2, #8
	str	r2, [r3]
	ldr	r3, [sp, #4]
	add	r3, r3, #40
	mov	r0, r3
	bl	_ZN4_STL12basic_stringIcNS_11char_traitsIcEENS_9allocatorIcEEED1Ev(PLT)
	ldr	r3, [sp, #4]
	mov	r0, r3
	bl	_ZN4_STL15basic_streambufIcNS_11char_traitsIcEEED2Ev(PLT)
.LBE55:
	mov	r3, #0
	cmp	r3, #0
	beq	.L312
	.loc 18 61 0 is_stmt 0 discriminator 1
	ldr	r0, [sp, #4]
	bl	_ZdlPv(PLT)
.L312:
	.loc 18 61 0 discriminator 2
	ldr	r3, [sp, #4]
	mov	r0, r3
	add	sp, sp, #12
	@ sp needed
	ldr	pc, [sp], #4
.L315:
	.align	2
.L314:
	.word	_ZTVN4_STL15basic_stringbufIcNS_11char_traitsIcEENS_9allocatorIcEEEE-(.LPIC137+8)
	.cfi_endproc
.LFE3813:
	.size	_ZN4_STL15basic_stringbufIcNS_11char_traitsIcEENS_9allocatorIcEEED2Ev, .-_ZN4_STL15basic_stringbufIcNS_11char_traitsIcEENS_9allocatorIcEEED2Ev
	.weak	_ZN4_STL15basic_stringbufIcNS_11char_traitsIcEENS_9allocatorIcEEED1Ev
	.hidden	_ZN4_STL15basic_stringbufIcNS_11char_traitsIcEENS_9allocatorIcEEED1Ev
	.set	_ZN4_STL15basic_stringbufIcNS_11char_traitsIcEENS_9allocatorIcEEED1Ev,_ZN4_STL15basic_stringbufIcNS_11char_traitsIcEENS_9allocatorIcEEED2Ev
	.section	.text._ZN4_STL15basic_stringbufIcNS_11char_traitsIcEENS_9allocatorIcEEED0Ev,"axG",%progbits,_ZN4_STL15basic_stringbufIcNS_11char_traitsIcEENS_9allocatorIcEEED0Ev,comdat
	.align	2
	.weak	_ZN4_STL15basic_stringbufIcNS_11char_traitsIcEENS_9allocatorIcEEED0Ev
	.hidden	_ZN4_STL15basic_stringbufIcNS_11char_traitsIcEENS_9allocatorIcEEED0Ev
	.type	_ZN4_STL15basic_stringbufIcNS_11char_traitsIcEENS_9allocatorIcEEED0Ev, %function
_ZN4_STL15basic_stringbufIcNS_11char_traitsIcEENS_9allocatorIcEEED0Ev:
.LFB3815:
	.loc 18 60 0 is_stmt 1
	.cfi_startproc
	@ args = 0, pretend = 0, frame = 8
	@ frame_needed = 0, uses_anonymous_args = 0
	str	lr, [sp, #-4]!
.LCFI159:
	.cfi_def_cfa_offset 4
	.cfi_offset 14, -4
	sub	sp, sp, #12
.LCFI160:
	.cfi_def_cfa_offset 16
	str	r0, [sp, #4]
	.loc 18 61 0
	ldr	r0, [sp, #4]
	bl	_ZN4_STL15basic_stringbufIcNS_11char_traitsIcEENS_9allocatorIcEEED1Ev(PLT)
	ldr	r0, [sp, #4]
	bl	_ZdlPv(PLT)
	ldr	r3, [sp, #4]
	mov	r0, r3
	add	sp, sp, #12
	@ sp needed
	ldr	pc, [sp], #4
	.cfi_endproc
.LFE3815:
	.size	_ZN4_STL15basic_stringbufIcNS_11char_traitsIcEENS_9allocatorIcEEED0Ev, .-_ZN4_STL15basic_stringbufIcNS_11char_traitsIcEENS_9allocatorIcEEED0Ev
	.section	.text._ZN4_STL9basic_iosIcNS_11char_traitsIcEEE4initEPNS_15basic_streambufIcS2_EE,"axG",%progbits,_ZN4_STL9basic_iosIcNS_11char_traitsIcEEE4initEPNS_15basic_streambufIcS2_EE,comdat
	.align	2
	.weak	_ZN4_STL9basic_iosIcNS_11char_traitsIcEEE4initEPNS_15basic_streambufIcS2_EE
	.hidden	_ZN4_STL9basic_iosIcNS_11char_traitsIcEEE4initEPNS_15basic_streambufIcS2_EE
	.type	_ZN4_STL9basic_iosIcNS_11char_traitsIcEEE4initEPNS_15basic_streambufIcS2_EE, %function
_ZN4_STL9basic_iosIcNS_11char_traitsIcEEE4initEPNS_15basic_streambufIcS2_EE:
.LFB3816:
	.loc 23 99 0
	.cfi_startproc
	@ args = 0, pretend = 0, frame = 16
	@ frame_needed = 0, uses_anonymous_args = 0
	str	lr, [sp, #-4]!
.LCFI161:
	.cfi_def_cfa_offset 4
	.cfi_offset 14, -4
	sub	sp, sp, #20
.LCFI162:
	.cfi_def_cfa_offset 24
	str	r0, [sp, #4]
	str	r1, [sp]
	.loc 23 101 0
	ldr	r0, [sp, #4]
	ldr	r1, [sp]
	bl	_ZN4_STL9basic_iosIcNS_11char_traitsIcEEE5rdbufEPNS_15basic_streambufIcS2_EE(PLT)
	.loc 23 102 0
	add	r3, sp, #12
	mov	r0, r3
	bl	_ZN4_STL6localeC1Ev(PLT)
	add	r2, sp, #8
	add	r3, sp, #12
	mov	r0, r2
	ldr	r1, [sp, #4]
	mov	r2, r3
	bl	_ZN4_STL9basic_iosIcNS_11char_traitsIcEEE5imbueERKNS_6localeE(PLT)
	add	r3, sp, #8
	mov	r0, r3
	bl	_ZN4_STL6localeD1Ev(PLT)
	add	r3, sp, #12
	mov	r0, r3
	bl	_ZN4_STL6localeD1Ev(PLT)
	.loc 23 103 0
	ldr	r0, [sp, #4]
	mov	r1, #0
	bl	_ZN4_STL9basic_iosIcNS_11char_traitsIcEEE3tieEPNS_13basic_ostreamIcS2_EE(PLT)
	.loc 23 104 0
	ldr	r3, [sp, #4]
	mov	r0, r3
	mov	r1, #0
	bl	_ZN4_STL8ios_base21_M_set_exception_maskEi(PLT)
	.loc 23 105 0
	ldr	r2, [sp, #4]
	ldr	r3, [sp]
	cmp	r3, #0
	beq	.L320
	.loc 23 105 0 is_stmt 0 discriminator 1
	mov	r3, #0
	b	.L321
.L320:
	.loc 23 105 0 discriminator 2
	mov	r3, #1
.L321:
	.loc 23 105 0 discriminator 3
	mov	r0, r2
	mov	r1, r3
	bl	_ZN4_STL8ios_base16_M_clear_nothrowEi(PLT)
	.loc 23 106 0 is_stmt 1 discriminator 3
	ldr	r3, [sp, #4]
	mov	r0, r3
	ldr	r1, .L322
	bl	_ZN4_STL8ios_base5flagsEi(PLT)
	.loc 23 107 0 discriminator 3
	ldr	r3, [sp, #4]
	mov	r0, r3
	mov	r1, #0
	bl	_ZN4_STL8ios_base5widthEi(PLT)
	.loc 23 108 0 discriminator 3
	ldr	r3, [sp, #4]
	mov	r0, r3
	mov	r1, #6
	bl	_ZN4_STL8ios_base9precisionEi(PLT)
	.loc 23 109 0 discriminator 3
	ldr	r0, [sp, #4]
	mov	r1, #32
	bl	_ZNK4_STL9basic_iosIcNS_11char_traitsIcEEE5widenEc(PLT)
	mov	r3, r0
	ldr	r0, [sp, #4]
	mov	r1, r3
	bl	_ZN4_STL9basic_iosIcNS_11char_traitsIcEEE4fillEc(PLT)
	.loc 23 112 0 discriminator 3
	add	sp, sp, #20
	@ sp needed
	ldr	pc, [sp], #4
.L323:
	.align	2
.L322:
	.word	4104
	.cfi_endproc
.LFE3816:
	.size	_ZN4_STL9basic_iosIcNS_11char_traitsIcEEE4initEPNS_15basic_streambufIcS2_EE, .-_ZN4_STL9basic_iosIcNS_11char_traitsIcEEE4initEPNS_15basic_streambufIcS2_EE
	.section	.text._ZN4_STL10_M_put_numIcNS_11char_traitsIcEEdEERNS_13basic_ostreamIT_T0_EES7_T1_,"axG",%progbits,_ZN4_STL10_M_put_numIcNS_11char_traitsIcEEdEERNS_13basic_ostreamIT_T0_EES7_T1_,comdat
	.align	2
	.weak	_ZN4_STL10_M_put_numIcNS_11char_traitsIcEEdEERNS_13basic_ostreamIT_T0_EES7_T1_
	.hidden	_ZN4_STL10_M_put_numIcNS_11char_traitsIcEEdEERNS_13basic_ostreamIT_T0_EES7_T1_
	.type	_ZN4_STL10_M_put_numIcNS_11char_traitsIcEEdEERNS_13basic_ostreamIT_T0_EES7_T1_, %function
_ZN4_STL10_M_put_numIcNS_11char_traitsIcEEdEERNS_13basic_ostreamIT_T0_EES7_T1_:
.LFB3817:
	.file 26 "c:/marmalade/7.5/s3e/h/std/c++/stl/_ostream.c"
	.loc 26 202 0
	.cfi_startproc
	@ args = 0, pretend = 0, frame = 48
	@ frame_needed = 0, uses_anonymous_args = 0
	stmfd	sp!, {r4, r5, lr}
.LCFI163:
	.cfi_def_cfa_offset 12
	.cfi_offset 4, -12
	.cfi_offset 5, -8
	.cfi_offset 14, -4
	sub	sp, sp, #68
.LCFI164:
	.cfi_def_cfa_offset 80
	str	r0, [sp, #28]
	strd	r2, [sp, #16]
.LBB56:
	.loc 26 205 0
	add	r3, sp, #32
	mov	r0, r3
	ldr	r1, [sp, #28]
	bl	_ZN4_STL13basic_ostreamIcNS_11char_traitsIcEEE6sentryC1ERS3_(PLT)
	.loc 26 206 0
	mov	r3, #1
	strb	r3, [sp, #63]
.LBB57:
	.loc 26 208 0
	add	r3, sp, #32
	mov	r0, r3
	bl	_ZNK4_STL13basic_ostreamIcNS_11char_traitsIcEEE6sentrycvbEv(PLT)
	mov	r3, r0
	cmp	r3, #0
	beq	.L325
.LBB58:
.LBB59:
	.loc 26 211 0
	ldr	r3, [sp, #28]
	ldr	r3, [r3]
	sub	r3, r3, #12
	ldr	r3, [r3]
	ldr	r2, [sp, #28]
	add	r3, r2, r3
	add	r2, sp, #48
	mov	r0, r2
	mov	r1, r3
	bl	_ZNK4_STL8ios_base6getlocEv(PLT)
	add	r3, sp, #48
	mov	r0, r3
	bl	_ZN4_STL9use_facetINS_7num_putIcNS_19ostreambuf_iteratorIcNS_11char_traitsIcEEEEEEEERKT_RKNS_6localeE(PLT)
	mov	r4, r0
	ldr	r3, [sp, #28]
	ldr	r3, [r3]
	sub	r3, r3, #12
	ldr	r3, [r3]
	ldr	r2, [sp, #28]
	add	r3, r2, r3
	mov	r0, r3
	bl	_ZNK4_STL9basic_iosIcNS_11char_traitsIcEEE5rdbufEv(PLT)
	mov	r3, r0
	add	r2, sp, #52
	mov	r0, r2
	mov	r1, r3
	bl	_ZN4_STL19ostreambuf_iteratorIcNS_11char_traitsIcEEEC1EPNS_15basic_streambufIcS2_EE(PLT)
	ldr	r3, [sp, #28]
	ldr	r3, [r3]
	sub	r3, r3, #12
	ldr	r3, [r3]
	ldr	r2, [sp, #28]
	add	r5, r2, r3
	ldr	r3, [sp, #28]
	ldr	r3, [r3]
	sub	r3, r3, #12
	ldr	r3, [r3]
	ldr	r2, [sp, #28]
	add	r3, r2, r3
	mov	r0, r3
	bl	_ZNK4_STL9basic_iosIcNS_11char_traitsIcEEE4fillEv(PLT)
	mov	r3, r0
	add	r1, sp, #40
	str	r5, [sp]
	str	r3, [sp, #4]
	ldrd	r2, [sp, #16]
	strd	r2, [sp, #8]
	mov	r0, r1
	mov	r1, r4
	add	r3, sp, #52
	ldmia	r3, {r2, r3}
	bl	_ZNK4_STL7num_putIcNS_19ostreambuf_iteratorIcNS_11char_traitsIcEEEEE3putES4_RNS_8ios_baseEcd(PLT)
	add	r3, sp, #40
	mov	r0, r3
	bl	_ZNK4_STL19ostreambuf_iteratorIcNS_11char_traitsIcEEE6failedEv(PLT)
	mov	r3, r0
	strb	r3, [sp, #63]
	add	r3, sp, #48
	mov	r0, r3
	bl	_ZN4_STL6localeD1Ev(PLT)
.L325:
.LBE59:
.LBE58:
.LBE57:
	.loc 26 220 0
	ldrb	r3, [sp, #63]	@ zero_extendqisi2
	cmp	r3, #0
	beq	.L326
	.loc 26 221 0
	ldr	r3, [sp, #28]
	ldr	r3, [r3]
	sub	r3, r3, #12
	ldr	r3, [r3]
	ldr	r2, [sp, #28]
	add	r3, r2, r3
	mov	r0, r3
	mov	r1, #1
	bl	_ZN4_STL9basic_iosIcNS_11char_traitsIcEEE8setstateEi(PLT)
.L326:
	.loc 26 222 0
	ldr	r4, [sp, #28]
	add	r3, sp, #32
	mov	r0, r3
	bl	_ZN4_STL13basic_ostreamIcNS_11char_traitsIcEEE6sentryD1Ev(PLT)
	mov	r3, r4
.LBE56:
	.loc 26 223 0
	mov	r0, r3
	add	sp, sp, #68
	@ sp needed
	ldmfd	sp!, {r4, r5, pc}
	.cfi_endproc
.LFE3817:
	.size	_ZN4_STL10_M_put_numIcNS_11char_traitsIcEEdEERNS_13basic_ostreamIT_T0_EES7_T1_, .-_ZN4_STL10_M_put_numIcNS_11char_traitsIcEEdEERNS_13basic_ostreamIT_T0_EES7_T1_
	.section	.text._ZNK4_STL15basic_stringbufIcNS_11char_traitsIcEENS_9allocatorIcEEE3strEv,"axG",%progbits,_ZNK4_STL15basic_stringbufIcNS_11char_traitsIcEENS_9allocatorIcEEE3strEv,comdat
	.align	2
	.weak	_ZNK4_STL15basic_stringbufIcNS_11char_traitsIcEENS_9allocatorIcEEE3strEv
	.hidden	_ZNK4_STL15basic_stringbufIcNS_11char_traitsIcEENS_9allocatorIcEEE3strEv
	.type	_ZNK4_STL15basic_stringbufIcNS_11char_traitsIcEENS_9allocatorIcEEE3strEv, %function
_ZNK4_STL15basic_stringbufIcNS_11char_traitsIcEENS_9allocatorIcEEE3strEv:
.LFB3818:
	.loc 20 76 0
	.cfi_startproc
	@ args = 0, pretend = 0, frame = 8
	@ frame_needed = 0, uses_anonymous_args = 0
	str	lr, [sp, #-4]!
.LCFI165:
	.cfi_def_cfa_offset 4
	.cfi_offset 14, -4
	sub	sp, sp, #12
.LCFI166:
	.cfi_def_cfa_offset 16
	str	r0, [sp, #4]
	str	r1, [sp]
	.loc 20 76 0
	ldr	r0, [sp]
	bl	_ZNK4_STL15basic_stringbufIcNS_11char_traitsIcEENS_9allocatorIcEEE16_M_append_bufferEv(PLT)
	ldr	r3, [sp]
	add	r3, r3, #40
	ldr	r0, [sp, #4]
	mov	r1, r3
	bl	_ZN4_STL12basic_stringIcNS_11char_traitsIcEENS_9allocatorIcEEEC1ERKS5_(PLT)
	ldr	r0, [sp, #4]
	add	sp, sp, #12
	@ sp needed
	ldr	pc, [sp], #4
	.cfi_endproc
.LFE3818:
	.size	_ZNK4_STL15basic_stringbufIcNS_11char_traitsIcEENS_9allocatorIcEEE3strEv, .-_ZNK4_STL15basic_stringbufIcNS_11char_traitsIcEENS_9allocatorIcEEE3strEv
	.section	.text._ZN4_STL13basic_istreamIcNS_11char_traitsIcEEEC2EPNS_15basic_streambufIcS2_EE,"axG",%progbits,_ZN4_STL13basic_istreamIcNS_11char_traitsIcEEEC2EPNS_15basic_streambufIcS2_EE,comdat
	.align	2
	.weak	_ZN4_STL13basic_istreamIcNS_11char_traitsIcEEEC2EPNS_15basic_streambufIcS2_EE
	.hidden	_ZN4_STL13basic_istreamIcNS_11char_traitsIcEEEC2EPNS_15basic_streambufIcS2_EE
	.type	_ZN4_STL13basic_istreamIcNS_11char_traitsIcEEEC2EPNS_15basic_streambufIcS2_EE, %function
_ZN4_STL13basic_istreamIcNS_11char_traitsIcEEEC2EPNS_15basic_streambufIcS2_EE:
.LFB3820:
	.loc 21 83 0
	.cfi_startproc
	@ args = 0, pretend = 0, frame = 16
	@ frame_needed = 0, uses_anonymous_args = 0
	str	lr, [sp, #-4]!
.LCFI167:
	.cfi_def_cfa_offset 4
	.cfi_offset 14, -4
	sub	sp, sp, #20
.LCFI168:
	.cfi_def_cfa_offset 24
	str	r0, [sp, #12]
	str	r1, [sp, #8]
	str	r2, [sp, #4]
.LBB60:
	.loc 21 84 0
	ldr	r3, [sp, #8]
	ldr	r2, [r3]
	ldr	r3, [sp, #12]
	str	r2, [r3]
	ldr	r3, [sp, #12]
	ldr	r3, [r3]
	sub	r3, r3, #12
	ldr	r3, [r3]
	ldr	r2, [sp, #12]
	add	r3, r2, r3
	ldr	r2, [sp, #8]
	ldr	r2, [r2, #4]
	str	r2, [r3]
	ldr	r3, [sp, #12]
	mov	r2, #0
	str	r2, [r3, #4]
	.loc 21 85 0
	ldr	r3, [sp, #12]
	ldr	r3, [r3]
	sub	r3, r3, #12
	ldr	r3, [r3]
	ldr	r2, [sp, #12]
	add	r3, r2, r3
	mov	r0, r3
	ldr	r1, [sp, #4]
	bl	_ZN4_STL9basic_iosIcNS_11char_traitsIcEEE4initEPNS_15basic_streambufIcS2_EE(PLT)
.LBE60:
	.loc 21 86 0
	ldr	r3, [sp, #12]
	mov	r0, r3
	add	sp, sp, #20
	@ sp needed
	ldr	pc, [sp], #4
	.cfi_endproc
.LFE3820:
	.size	_ZN4_STL13basic_istreamIcNS_11char_traitsIcEEEC2EPNS_15basic_streambufIcS2_EE, .-_ZN4_STL13basic_istreamIcNS_11char_traitsIcEEEC2EPNS_15basic_streambufIcS2_EE
	.section	.text._ZN4_STL13basic_istreamIcNS_11char_traitsIcEEED2Ev,"axG",%progbits,_ZN4_STL13basic_istreamIcNS_11char_traitsIcEEED2Ev,comdat
	.align	2
	.weak	_ZN4_STL13basic_istreamIcNS_11char_traitsIcEEED2Ev
	.hidden	_ZN4_STL13basic_istreamIcNS_11char_traitsIcEEED2Ev
	.type	_ZN4_STL13basic_istreamIcNS_11char_traitsIcEEED2Ev, %function
_ZN4_STL13basic_istreamIcNS_11char_traitsIcEEED2Ev:
.LFB3823:
	.loc 21 87 0
	.cfi_startproc
	@ args = 0, pretend = 0, frame = 8
	@ frame_needed = 0, uses_anonymous_args = 0
	str	lr, [sp, #-4]!
.LCFI169:
	.cfi_def_cfa_offset 4
	.cfi_offset 14, -4
	sub	sp, sp, #12
.LCFI170:
	.cfi_def_cfa_offset 16
	str	r0, [sp, #4]
	str	r1, [sp]
.LBB61:
	.loc 21 87 0
	ldr	r3, [sp]
	ldr	r2, [r3]
	ldr	r3, [sp, #4]
	str	r2, [r3]
	ldr	r3, [sp, #4]
	ldr	r3, [r3]
	sub	r3, r3, #12
	ldr	r3, [r3]
	ldr	r2, [sp, #4]
	add	r3, r2, r3
	ldr	r2, [sp]
	ldr	r2, [r2, #4]
	str	r2, [r3]
	mov	r3, #0
	cmp	r3, #0
	beq	.L334
	.loc 21 87 0 is_stmt 0 discriminator 10
	ldr	r3, [sp, #4]
	add	r3, r3, #8
	mov	r0, r3
	bl	_ZN4_STL9basic_iosIcNS_11char_traitsIcEEED2Ev(PLT)
.L334:
.LBE61:
	.loc 21 87 0 discriminator 11
	mov	r3, #0
	cmp	r3, #0
	beq	.L335
	.loc 21 87 0 discriminator 1
	ldr	r0, [sp, #4]
	bl	_ZdlPv(PLT)
.L335:
	.loc 21 87 0 discriminator 2
	ldr	r3, [sp, #4]
	mov	r0, r3
	add	sp, sp, #12
	@ sp needed
	ldr	pc, [sp], #4
	.cfi_endproc
.LFE3823:
	.size	_ZN4_STL13basic_istreamIcNS_11char_traitsIcEEED2Ev, .-_ZN4_STL13basic_istreamIcNS_11char_traitsIcEEED2Ev
	.section	.text._ZN4_STL13basic_istreamIcNS_11char_traitsIcEEED1Ev,"axG",%progbits,_ZN4_STL13basic_istreamIcNS_11char_traitsIcEEED1Ev,comdat
	.align	2
	.weak	_ZN4_STL13basic_istreamIcNS_11char_traitsIcEEED1Ev
	.hidden	_ZN4_STL13basic_istreamIcNS_11char_traitsIcEEED1Ev
	.type	_ZN4_STL13basic_istreamIcNS_11char_traitsIcEEED1Ev, %function
_ZN4_STL13basic_istreamIcNS_11char_traitsIcEEED1Ev:
.LFB3824:
	.loc 21 87 0 is_stmt 1
	.cfi_startproc
	@ args = 0, pretend = 0, frame = 8
	@ frame_needed = 0, uses_anonymous_args = 0
	str	lr, [sp, #-4]!
.LCFI171:
	.cfi_def_cfa_offset 4
	.cfi_offset 14, -4
	sub	sp, sp, #12
.LCFI172:
	.cfi_def_cfa_offset 16
	str	r0, [sp, #4]
.LBB62:
	.loc 21 87 0
	ldr	r3, .L341
.LPIC138:
	add	r3, pc, r3
	add	r2, r3, #12
	ldr	r3, [sp, #4]
	str	r2, [r3]
	mov	r3, #8
	ldr	r2, [sp, #4]
	add	r3, r2, r3
	ldr	r2, .L341+4
.LPIC139:
	add	r2, pc, r2
	add	r2, r2, #32
	str	r2, [r3]
	mov	r3, #2
	cmp	r3, #0
	beq	.L338
	.loc 21 87 0 is_stmt 0 discriminator 10
	ldr	r3, [sp, #4]
	add	r3, r3, #8
	mov	r0, r3
	bl	_ZN4_STL9basic_iosIcNS_11char_traitsIcEEED2Ev(PLT)
.L338:
.LBE62:
	.loc 21 87 0 discriminator 11
	mov	r3, #0
	cmp	r3, #0
	beq	.L339
	.loc 21 87 0 discriminator 1
	ldr	r0, [sp, #4]
	bl	_ZdlPv(PLT)
.L339:
	.loc 21 87 0 discriminator 2
	ldr	r3, [sp, #4]
	mov	r0, r3
	add	sp, sp, #12
	@ sp needed
	ldr	pc, [sp], #4
.L342:
	.align	2
.L341:
	.word	_ZTVN4_STL13basic_istreamIcNS_11char_traitsIcEEEE-(.LPIC138+8)
	.word	_ZTVN4_STL13basic_istreamIcNS_11char_traitsIcEEEE-(.LPIC139+8)
	.cfi_endproc
.LFE3824:
	.size	_ZN4_STL13basic_istreamIcNS_11char_traitsIcEEED1Ev, .-_ZN4_STL13basic_istreamIcNS_11char_traitsIcEEED1Ev
	.set	.LTHUNK10,_ZN4_STL13basic_istreamIcNS_11char_traitsIcEEED1Ev
	.section	.text._ZN4_STL13basic_istreamIcNS_11char_traitsIcEEED0Ev,"axG",%progbits,_ZN4_STL13basic_istreamIcNS_11char_traitsIcEEED0Ev,comdat
	.align	2
	.weak	_ZN4_STL13basic_istreamIcNS_11char_traitsIcEEED0Ev
	.hidden	_ZN4_STL13basic_istreamIcNS_11char_traitsIcEEED0Ev
	.type	_ZN4_STL13basic_istreamIcNS_11char_traitsIcEEED0Ev, %function
_ZN4_STL13basic_istreamIcNS_11char_traitsIcEEED0Ev:
.LFB3825:
	.loc 21 87 0 is_stmt 1
	.cfi_startproc
	@ args = 0, pretend = 0, frame = 8
	@ frame_needed = 0, uses_anonymous_args = 0
	str	lr, [sp, #-4]!
.LCFI173:
	.cfi_def_cfa_offset 4
	.cfi_offset 14, -4
	sub	sp, sp, #12
.LCFI174:
	.cfi_def_cfa_offset 16
	str	r0, [sp, #4]
	.loc 21 87 0
	ldr	r0, [sp, #4]
	bl	_ZN4_STL13basic_istreamIcNS_11char_traitsIcEEED1Ev(PLT)
	ldr	r0, [sp, #4]
	bl	_ZdlPv(PLT)
	ldr	r3, [sp, #4]
	mov	r0, r3
	add	sp, sp, #12
	@ sp needed
	ldr	pc, [sp], #4
	.cfi_endproc
.LFE3825:
	.size	_ZN4_STL13basic_istreamIcNS_11char_traitsIcEEED0Ev, .-_ZN4_STL13basic_istreamIcNS_11char_traitsIcEEED0Ev
	.set	.LTHUNK11,_ZN4_STL13basic_istreamIcNS_11char_traitsIcEEED0Ev
	.section	.text._ZN4_STL13basic_filebufIcNS_11char_traitsIcEEEC2Ev,"axG",%progbits,_ZN4_STL13basic_filebufIcNS_11char_traitsIcEEEC5Ev,comdat
	.align	2
	.weak	_ZN4_STL13basic_filebufIcNS_11char_traitsIcEEEC2Ev
	.hidden	_ZN4_STL13basic_filebufIcNS_11char_traitsIcEEEC2Ev
	.type	_ZN4_STL13basic_filebufIcNS_11char_traitsIcEEEC2Ev, %function
_ZN4_STL13basic_filebufIcNS_11char_traitsIcEEEC2Ev:
.LFB3827:
	.file 27 "c:/marmalade/7.5/s3e/h/std/c++/stl/_fstream.c"
	.loc 27 45 0
	.cfi_startproc
	@ args = 0, pretend = 0, frame = 16
	@ frame_needed = 0, uses_anonymous_args = 0
	str	lr, [sp, #-4]!
.LCFI175:
	.cfi_def_cfa_offset 4
	.cfi_offset 14, -4
	sub	sp, sp, #20
.LCFI176:
	.cfi_def_cfa_offset 24
	str	r0, [sp, #4]
.LBB63:
	.loc 27 59 0
	ldr	r3, [sp, #4]
	mov	r0, r3
	bl	_ZN4_STL15basic_streambufIcNS_11char_traitsIcEEEC2Ev(PLT)
	ldr	r3, [sp, #4]
	ldr	r2, .L349
.LPIC140:
	add	r2, pc, r2
	add	r2, r2, #8
	str	r2, [r3]
	ldr	r3, [sp, #4]
	add	r3, r3, #36
	mov	r0, r3
	bl	_ZN4_STL13_Filebuf_baseC1Ev(PLT)
	ldr	r3, [sp, #4]
	mov	r2, #0
	strb	r2, [r3, #52]
	ldr	r3, [sp, #4]
	mov	r2, #0
	strb	r2, [r3, #53]
	ldr	r3, [sp, #4]
	mov	r2, #0
	strb	r2, [r3, #54]
	ldr	r3, [sp, #4]
	mov	r2, #0
	strb	r2, [r3, #55]
	ldr	r3, [sp, #4]
	mov	r2, #0
	strb	r2, [r3, #56]
	ldr	r3, [sp, #4]
	mov	r2, #0
	strb	r2, [r3, #57]
	ldr	r3, [sp, #4]
	mov	r2, #0
	strb	r2, [r3, #58]
	ldr	r3, [sp, #4]
	mov	r2, #0
	str	r2, [r3, #60]
	ldr	r3, [sp, #4]
	mov	r2, #0
	str	r2, [r3, #64]
	ldr	r3, [sp, #4]
	mov	r2, #0
	str	r2, [r3, #68]
	ldr	r3, [sp, #4]
	mov	r2, #0
	str	r2, [r3, #72]
	ldr	r3, [sp, #4]
	mov	r2, #0
	str	r2, [r3, #76]
	ldr	r3, [sp, #4]
	mov	r2, #0
	str	r2, [r3, #80]
	ldr	r3, [sp, #4]
	mov	r2, #0
	str	r2, [r3, #84]
	ldr	r3, [sp, #4]
	mov	r2, #0
	str	r2, [r3, #88]
	ldr	r3, [sp, #4]
	mov	r2, #0
	str	r2, [r3, #92]
	ldr	r3, [sp, #4]
	mov	r2, #0
	str	r2, [r3, #96]
	ldr	r3, [sp, #4]
	mov	r2, #0
	str	r2, [r3, #100]
	ldr	r3, [sp, #4]
	mov	r2, #0
	str	r2, [r3, #104]
	ldr	r3, [sp, #4]
	mov	r2, #0
	str	r2, [r3, #108]
	ldr	r3, [sp, #4]
	mov	r2, #0
	str	r2, [r3, #112]
	ldr	r3, [sp, #4]
	mov	r2, #1
	str	r2, [r3, #116]
	ldr	r3, [sp, #4]
	mov	r2, #1
	str	r2, [r3, #120]
	.loc 27 61 0
	add	r3, sp, #12
	mov	r0, r3
	bl	_ZN4_STL6localeC1Ev(PLT)
	add	r3, sp, #12
	ldr	r0, [sp, #4]
	mov	r1, r3
	bl	_ZN4_STL13basic_filebufIcNS_11char_traitsIcEEE16_M_setup_codecvtERKNS_6localeE(PLT)
	add	r3, sp, #12
	mov	r0, r3
	bl	_ZN4_STL6localeD1Ev(PLT)
.LBE63:
	.loc 27 62 0
	ldr	r3, [sp, #4]
	mov	r0, r3
	add	sp, sp, #20
	@ sp needed
	ldr	pc, [sp], #4
.L350:
	.align	2
.L349:
	.word	_ZTVN4_STL13basic_filebufIcNS_11char_traitsIcEEEE-(.LPIC140+8)
	.cfi_endproc
.LFE3827:
	.size	_ZN4_STL13basic_filebufIcNS_11char_traitsIcEEEC2Ev, .-_ZN4_STL13basic_filebufIcNS_11char_traitsIcEEEC2Ev
	.weak	_ZN4_STL13basic_filebufIcNS_11char_traitsIcEEEC1Ev
	.hidden	_ZN4_STL13basic_filebufIcNS_11char_traitsIcEEEC1Ev
	.set	_ZN4_STL13basic_filebufIcNS_11char_traitsIcEEEC1Ev,_ZN4_STL13basic_filebufIcNS_11char_traitsIcEEEC2Ev
	.section	.text._ZN4_STL13basic_filebufIcNS_11char_traitsIcEEED2Ev,"axG",%progbits,_ZN4_STL13basic_filebufIcNS_11char_traitsIcEEED5Ev,comdat
	.align	2
	.weak	_ZN4_STL13basic_filebufIcNS_11char_traitsIcEEED2Ev
	.hidden	_ZN4_STL13basic_filebufIcNS_11char_traitsIcEEED2Ev
	.type	_ZN4_STL13basic_filebufIcNS_11char_traitsIcEEED2Ev, %function
_ZN4_STL13basic_filebufIcNS_11char_traitsIcEEED2Ev:
.LFB3830:
	.loc 27 65 0
	.cfi_startproc
	@ args = 0, pretend = 0, frame = 8
	@ frame_needed = 0, uses_anonymous_args = 0
	str	lr, [sp, #-4]!
.LCFI177:
	.cfi_def_cfa_offset 4
	.cfi_offset 14, -4
	sub	sp, sp, #12
.LCFI178:
	.cfi_def_cfa_offset 16
	str	r0, [sp, #4]
.LBB64:
	.loc 27 68 0
	ldr	r3, [sp, #4]
	ldr	r2, .L355
.LPIC141:
	add	r2, pc, r2
	add	r2, r2, #8
	str	r2, [r3]
	.loc 27 66 0
	ldr	r0, [sp, #4]
	bl	_ZN4_STL13basic_filebufIcNS_11char_traitsIcEEE5closeEv(PLT)
	.loc 27 67 0
	ldr	r0, [sp, #4]
	bl	_ZN4_STL13basic_filebufIcNS_11char_traitsIcEEE21_M_deallocate_buffersEv(PLT)
	.loc 27 68 0
	ldr	r3, [sp, #4]
	mov	r0, r3
	bl	_ZN4_STL15basic_streambufIcNS_11char_traitsIcEEED2Ev(PLT)
.LBE64:
	mov	r3, #0
	cmp	r3, #0
	beq	.L353
	.loc 27 68 0 is_stmt 0 discriminator 1
	ldr	r0, [sp, #4]
	bl	_ZdlPv(PLT)
.L353:
	.loc 27 68 0 discriminator 2
	ldr	r3, [sp, #4]
	mov	r0, r3
	add	sp, sp, #12
	@ sp needed
	ldr	pc, [sp], #4
.L356:
	.align	2
.L355:
	.word	_ZTVN4_STL13basic_filebufIcNS_11char_traitsIcEEEE-(.LPIC141+8)
	.cfi_endproc
.LFE3830:
	.size	_ZN4_STL13basic_filebufIcNS_11char_traitsIcEEED2Ev, .-_ZN4_STL13basic_filebufIcNS_11char_traitsIcEEED2Ev
	.weak	_ZN4_STL13basic_filebufIcNS_11char_traitsIcEEED1Ev
	.hidden	_ZN4_STL13basic_filebufIcNS_11char_traitsIcEEED1Ev
	.set	_ZN4_STL13basic_filebufIcNS_11char_traitsIcEEED1Ev,_ZN4_STL13basic_filebufIcNS_11char_traitsIcEEED2Ev
	.section	.text._ZN4_STL13basic_filebufIcNS_11char_traitsIcEEED0Ev,"axG",%progbits,_ZN4_STL13basic_filebufIcNS_11char_traitsIcEEED0Ev,comdat
	.align	2
	.weak	_ZN4_STL13basic_filebufIcNS_11char_traitsIcEEED0Ev
	.hidden	_ZN4_STL13basic_filebufIcNS_11char_traitsIcEEED0Ev
	.type	_ZN4_STL13basic_filebufIcNS_11char_traitsIcEEED0Ev, %function
_ZN4_STL13basic_filebufIcNS_11char_traitsIcEEED0Ev:
.LFB3832:
	.loc 27 65 0 is_stmt 1
	.cfi_startproc
	@ args = 0, pretend = 0, frame = 8
	@ frame_needed = 0, uses_anonymous_args = 0
	str	lr, [sp, #-4]!
.LCFI179:
	.cfi_def_cfa_offset 4
	.cfi_offset 14, -4
	sub	sp, sp, #12
.LCFI180:
	.cfi_def_cfa_offset 16
	str	r0, [sp, #4]
	.loc 27 68 0
	ldr	r0, [sp, #4]
	bl	_ZN4_STL13basic_filebufIcNS_11char_traitsIcEEED1Ev(PLT)
	ldr	r0, [sp, #4]
	bl	_ZdlPv(PLT)
	ldr	r3, [sp, #4]
	mov	r0, r3
	add	sp, sp, #12
	@ sp needed
	ldr	pc, [sp], #4
	.cfi_endproc
.LFE3832:
	.size	_ZN4_STL13basic_filebufIcNS_11char_traitsIcEEED0Ev, .-_ZN4_STL13basic_filebufIcNS_11char_traitsIcEEED0Ev
	.section	.text._ZN4_STL13basic_filebufIcNS_11char_traitsIcEEE4openEPKci,"axG",%progbits,_ZN4_STL13basic_filebufIcNS_11char_traitsIcEEE4openEPKci,comdat
	.align	2
	.weak	_ZN4_STL13basic_filebufIcNS_11char_traitsIcEEE4openEPKci
	.hidden	_ZN4_STL13basic_filebufIcNS_11char_traitsIcEEE4openEPKci
	.type	_ZN4_STL13basic_filebufIcNS_11char_traitsIcEEE4openEPKci, %function
_ZN4_STL13basic_filebufIcNS_11char_traitsIcEEE4openEPKci:
.LFB3833:
	.loc 13 202 0
	.cfi_startproc
	@ args = 0, pretend = 0, frame = 16
	@ frame_needed = 0, uses_anonymous_args = 0
	str	lr, [sp, #-4]!
.LCFI181:
	.cfi_def_cfa_offset 4
	.cfi_offset 14, -4
	sub	sp, sp, #20
.LCFI182:
	.cfi_def_cfa_offset 24
	str	r0, [sp, #12]
	str	r1, [sp, #8]
	str	r2, [sp, #4]
	.loc 13 203 0
	ldr	r3, [sp, #12]
	add	r3, r3, #36
	mov	r0, r3
	ldr	r1, [sp, #8]
	ldr	r2, [sp, #4]
	bl	_ZN4_STL13_Filebuf_base7_M_openEPKci(PLT)
	mov	r3, r0
	cmp	r3, #0
	beq	.L361
	.loc 13 203 0 is_stmt 0 discriminator 1
	ldr	r3, [sp, #12]
	b	.L362
.L361:
	.loc 13 203 0 discriminator 2
	mov	r3, #0
.L362:
	.loc 13 204 0 is_stmt 1 discriminator 3
	mov	r0, r3
	add	sp, sp, #20
	@ sp needed
	ldr	pc, [sp], #4
	.cfi_endproc
.LFE3833:
	.size	_ZN4_STL13basic_filebufIcNS_11char_traitsIcEEE4openEPKci, .-_ZN4_STL13basic_filebufIcNS_11char_traitsIcEEE4openEPKci
	.section	.text._ZN4_STL9basic_iosIcNS_11char_traitsIcEEE8setstateEi,"axG",%progbits,_ZN4_STL9basic_iosIcNS_11char_traitsIcEEE8setstateEi,comdat
	.align	2
	.weak	_ZN4_STL9basic_iosIcNS_11char_traitsIcEEE8setstateEi
	.hidden	_ZN4_STL9basic_iosIcNS_11char_traitsIcEEE8setstateEi
	.type	_ZN4_STL9basic_iosIcNS_11char_traitsIcEEE8setstateEi, %function
_ZN4_STL9basic_iosIcNS_11char_traitsIcEEE8setstateEi:
.LFB3834:
	.loc 24 94 0
	.cfi_startproc
	@ args = 0, pretend = 0, frame = 8
	@ frame_needed = 0, uses_anonymous_args = 0
	str	lr, [sp, #-4]!
.LCFI183:
	.cfi_def_cfa_offset 4
	.cfi_offset 14, -4
	sub	sp, sp, #12
.LCFI184:
	.cfi_def_cfa_offset 16
	str	r0, [sp, #4]
	str	r1, [sp]
	.loc 24 94 0
	ldr	r3, [sp, #4]
	mov	r0, r3
	bl	_ZNK4_STL8ios_base7rdstateEv(PLT)
	mov	r2, r0
	ldr	r3, [sp]
	orr	r3, r2, r3
	ldr	r0, [sp, #4]
	mov	r1, r3
	bl	_ZN4_STL9basic_iosIcNS_11char_traitsIcEEE5clearEi(PLT)
	add	sp, sp, #12
	@ sp needed
	ldr	pc, [sp], #4
	.cfi_endproc
.LFE3834:
	.size	_ZN4_STL9basic_iosIcNS_11char_traitsIcEEE8setstateEi, .-_ZN4_STL9basic_iosIcNS_11char_traitsIcEEE8setstateEi
	.section	.text._ZN4_STL10_M_get_numIcNS_11char_traitsIcEEdEEiRNS_13basic_istreamIT_T0_EERT1_,"axG",%progbits,_ZN4_STL10_M_get_numIcNS_11char_traitsIcEEdEEiRNS_13basic_istreamIT_T0_EERT1_,comdat
	.align	2
	.weak	_ZN4_STL10_M_get_numIcNS_11char_traitsIcEEdEEiRNS_13basic_istreamIT_T0_EERT1_
	.hidden	_ZN4_STL10_M_get_numIcNS_11char_traitsIcEEdEEiRNS_13basic_istreamIT_T0_EERT1_
	.type	_ZN4_STL10_M_get_numIcNS_11char_traitsIcEEdEEiRNS_13basic_istreamIT_T0_EERT1_, %function
_ZN4_STL10_M_get_numIcNS_11char_traitsIcEEdEEiRNS_13basic_istreamIT_T0_EERT1_:
.LFB3835:
	.loc 25 233 0
	.cfi_startproc
	@ args = 0, pretend = 0, frame = 48
	@ frame_needed = 0, uses_anonymous_args = 0
	stmfd	sp!, {r4, lr}
.LCFI185:
	.cfi_def_cfa_offset 8
	.cfi_offset 4, -8
	.cfi_offset 14, -4
	sub	sp, sp, #72
.LCFI186:
	.cfi_def_cfa_offset 80
	str	r0, [sp, #28]
	str	r1, [sp, #24]
.LBB65:
	.loc 25 236 0
	mov	r3, #0
	str	r3, [sp, #40]
	.loc 25 237 0
	add	r3, sp, #36
	mov	r0, r3
	ldr	r1, [sp, #28]
	mov	r2, #0
	bl	_ZN4_STL13basic_istreamIcNS_11char_traitsIcEEE6sentryC1ERS3_b(PLT)
.LBB66:
	.loc 25 238 0
	add	r3, sp, #36
	mov	r0, r3
	bl	_ZNK4_STL13basic_istreamIcNS_11char_traitsIcEEE6sentrycvbEv(PLT)
	mov	r3, r0
	cmp	r3, #0
	beq	.L366
.LBB67:
	.loc 25 241 0
	ldr	r3, [sp, #28]
	ldr	r3, [r3]
	sub	r3, r3, #12
	ldr	r3, [r3]
	ldr	r2, [sp, #28]
	add	r3, r2, r3
	add	r2, sp, #52
	mov	r0, r2
	mov	r1, r3
	bl	_ZNK4_STL8ios_base6getlocEv(PLT)
	add	r3, sp, #52
	mov	r0, r3
	bl	_ZN4_STL9use_facetINS_7num_getIcNS_19istreambuf_iteratorIcNS_11char_traitsIcEEEEEEEERKT_RKNS_6localeE(PLT)
	mov	r4, r0
	ldr	r3, [sp, #28]
	ldr	r3, [r3]
	sub	r3, r3, #12
	ldr	r3, [r3]
	ldr	r2, [sp, #28]
	add	r3, r2, r3
	mov	r0, r3
	bl	_ZNK4_STL9basic_iosIcNS_11char_traitsIcEEE5rdbufEv(PLT)
	mov	r3, r0
	add	r2, sp, #56
	mov	r0, r2
	mov	r1, r3
	bl	_ZN4_STL19istreambuf_iteratorIcNS_11char_traitsIcEEEC1EPNS_15basic_streambufIcS2_EE(PLT)
	add	r3, sp, #64
	mov	r0, r3
	mov	r1, #0
	bl	_ZN4_STL19istreambuf_iteratorIcNS_11char_traitsIcEEEC1EPNS_15basic_streambufIcS2_EE(PLT)
	ldr	r3, [sp, #28]
	ldr	r3, [r3]
	sub	r3, r3, #12
	ldr	r3, [r3]
	ldr	r2, [sp, #28]
	add	r2, r2, r3
	add	r3, sp, #44
	mov	ip, sp
	add	r1, sp, #64
	ldmia	r1, {r0, r1}
	stmia	ip, {r0, r1}
	str	r2, [sp, #8]
	add	r2, sp, #40
	str	r2, [sp, #12]
	ldr	r2, [sp, #24]
	str	r2, [sp, #16]
	mov	r0, r3
	mov	r1, r4
	add	r3, sp, #56
	ldmia	r3, {r2, r3}
	bl	_ZNK4_STL7num_getIcNS_19istreambuf_iteratorIcNS_11char_traitsIcEEEEE3getES4_S4_RNS_8ios_baseERiRd(PLT)
	add	r3, sp, #52
	mov	r0, r3
	bl	_ZN4_STL6localeD1Ev(PLT)
	.loc 25 247 0
	ldr	r3, [sp, #40]
	cmp	r3, #0
	beq	.L367
	.loc 25 247 0 is_stmt 0 discriminator 1
	ldr	r3, [sp, #28]
	ldr	r3, [r3]
	sub	r3, r3, #12
	ldr	r3, [r3]
	ldr	r2, [sp, #28]
	add	r2, r2, r3
	ldr	r3, [sp, #40]
	mov	r0, r2
	mov	r1, r3
	bl	_ZN4_STL9basic_iosIcNS_11char_traitsIcEEE8setstateEi(PLT)
.L367:
.L366:
.LBE67:
.LBE66:
	.loc 25 249 0 is_stmt 1
	ldr	r4, [sp, #40]
	add	r3, sp, #36
	mov	r0, r3
	bl	_ZN4_STL13basic_istreamIcNS_11char_traitsIcEEE6sentryD1Ev(PLT)
	mov	r3, r4
.LBE65:
	.loc 25 250 0
	mov	r0, r3
	add	sp, sp, #72
	@ sp needed
	ldmfd	sp!, {r4, pc}
	.cfi_endproc
.LFE3835:
	.size	_ZN4_STL10_M_get_numIcNS_11char_traitsIcEEdEEiRNS_13basic_istreamIT_T0_EERT1_, .-_ZN4_STL10_M_get_numIcNS_11char_traitsIcEEdEEiRNS_13basic_istreamIT_T0_EERT1_
	.section	.text._ZN4_STL14_List_iteratorIdNS_16_Nonconst_traitsIdEEEC2ERKS3_,"axG",%progbits,_ZN4_STL14_List_iteratorIdNS_16_Nonconst_traitsIdEEEC5ERKS3_,comdat
	.align	2
	.weak	_ZN4_STL14_List_iteratorIdNS_16_Nonconst_traitsIdEEEC2ERKS3_
	.hidden	_ZN4_STL14_List_iteratorIdNS_16_Nonconst_traitsIdEEEC2ERKS3_
	.type	_ZN4_STL14_List_iteratorIdNS_16_Nonconst_traitsIdEEEC2ERKS3_, %function
_ZN4_STL14_List_iteratorIdNS_16_Nonconst_traitsIdEEEC2ERKS3_:
.LFB3837:
	.loc 11 128 0
	.cfi_startproc
	@ args = 0, pretend = 0, frame = 8
	@ frame_needed = 0, uses_anonymous_args = 0
	str	lr, [sp, #-4]!
.LCFI187:
	.cfi_def_cfa_offset 4
	.cfi_offset 14, -4
	sub	sp, sp, #12
.LCFI188:
	.cfi_def_cfa_offset 16
	str	r0, [sp, #4]
	str	r1, [sp]
.LBB68:
	.loc 11 128 0
	ldr	r2, [sp, #4]
	ldr	r3, [sp]
	ldr	r3, [r3]
	mov	r0, r2
	mov	r1, r3
	bl	_ZN4_STL19_List_iterator_baseC2EPNS_15_List_node_baseE(PLT)
.LBE68:
	ldr	r3, [sp, #4]
	mov	r0, r3
	add	sp, sp, #12
	@ sp needed
	ldr	pc, [sp], #4
	.cfi_endproc
.LFE3837:
	.size	_ZN4_STL14_List_iteratorIdNS_16_Nonconst_traitsIdEEEC2ERKS3_, .-_ZN4_STL14_List_iteratorIdNS_16_Nonconst_traitsIdEEEC2ERKS3_
	.weak	_ZN4_STL14_List_iteratorIdNS_16_Nonconst_traitsIdEEEC1ERKS3_
	.hidden	_ZN4_STL14_List_iteratorIdNS_16_Nonconst_traitsIdEEEC1ERKS3_
	.set	_ZN4_STL14_List_iteratorIdNS_16_Nonconst_traitsIdEEEC1ERKS3_,_ZN4_STL14_List_iteratorIdNS_16_Nonconst_traitsIdEEEC2ERKS3_
	.section	.text._ZN4_STL4listIdNS_9allocatorIdEEE6insertENS_14_List_iteratorIdNS_16_Nonconst_traitsIdEEEERKd,"axG",%progbits,_ZN4_STL4listIdNS_9allocatorIdEEE6insertENS_14_List_iteratorIdNS_16_Nonconst_traitsIdEEEERKd,comdat
	.align	2
	.weak	_ZN4_STL4listIdNS_9allocatorIdEEE6insertENS_14_List_iteratorIdNS_16_Nonconst_traitsIdEEEERKd
	.hidden	_ZN4_STL4listIdNS_9allocatorIdEEE6insertENS_14_List_iteratorIdNS_16_Nonconst_traitsIdEEEERKd
	.type	_ZN4_STL4listIdNS_9allocatorIdEEE6insertENS_14_List_iteratorIdNS_16_Nonconst_traitsIdEEEERKd, %function
_ZN4_STL4listIdNS_9allocatorIdEEE6insertENS_14_List_iteratorIdNS_16_Nonconst_traitsIdEEEERKd:
.LFB3839:
	.loc 11 298 0
	.cfi_startproc
	@ args = 0, pretend = 0, frame = 32
	@ frame_needed = 0, uses_anonymous_args = 0
	str	lr, [sp, #-4]!
.LCFI189:
	.cfi_def_cfa_offset 4
	.cfi_offset 14, -4
	sub	sp, sp, #36
.LCFI190:
	.cfi_def_cfa_offset 40
	str	r0, [sp, #12]
	str	r1, [sp, #8]
	str	r2, [sp, #4]
	str	r3, [sp]
.LBB69:
	.loc 11 300 0
	ldr	r0, [sp, #8]
	ldr	r1, [sp]
	bl	_ZN4_STL4listIdNS_9allocatorIdEEE14_M_create_nodeERKd(PLT)
	str	r0, [sp, #28]
	.loc 11 301 0
	ldr	r3, [sp, #4]
	ldr	r3, [r3]
	str	r3, [sp, #24]
	.loc 11 302 0
	ldr	r3, [sp, #24]
	ldr	r3, [r3, #4]
	str	r3, [sp, #20]
	.loc 11 303 0
	ldr	r3, [sp, #28]
	ldr	r2, [sp, #24]
	str	r2, [r3]
	.loc 11 304 0
	ldr	r3, [sp, #28]
	ldr	r2, [sp, #20]
	str	r2, [r3, #4]
	.loc 11 305 0
	ldr	r3, [sp, #20]
	ldr	r2, [sp, #28]
	str	r2, [r3]
	.loc 11 306 0
	ldr	r3, [sp, #24]
	ldr	r2, [sp, #28]
	str	r2, [r3, #4]
	.loc 11 307 0
	ldr	r0, [sp, #12]
	ldr	r1, [sp, #28]
	bl	_ZN4_STL14_List_iteratorIdNS_16_Nonconst_traitsIdEEEC1EPNS_10_List_nodeIdEE(PLT)
.LBE69:
	.loc 11 308 0
	ldr	r0, [sp, #12]
	add	sp, sp, #36
	@ sp needed
	ldr	pc, [sp], #4
	.cfi_endproc
.LFE3839:
	.size	_ZN4_STL4listIdNS_9allocatorIdEEE6insertENS_14_List_iteratorIdNS_16_Nonconst_traitsIdEEEERKd, .-_ZN4_STL4listIdNS_9allocatorIdEEE6insertENS_14_List_iteratorIdNS_16_Nonconst_traitsIdEEEERKd
	.section	.text._ZN4_STL7_S_sortIdNS_9allocatorIdEENS_4lessIdEEEEvRNS_4listIT_T0_EET1_,"axG",%progbits,_ZN4_STL7_S_sortIdNS_9allocatorIdEENS_4lessIdEEEEvRNS_4listIT_T0_EET1_,comdat
	.align	2
	.weak	_ZN4_STL7_S_sortIdNS_9allocatorIdEENS_4lessIdEEEEvRNS_4listIT_T0_EET1_
	.hidden	_ZN4_STL7_S_sortIdNS_9allocatorIdEENS_4lessIdEEEEvRNS_4listIT_T0_EET1_
	.type	_ZN4_STL7_S_sortIdNS_9allocatorIdEENS_4lessIdEEEEvRNS_4listIT_T0_EET1_, %function
_ZN4_STL7_S_sortIdNS_9allocatorIdEENS_4lessIdEEEEvRNS_4listIT_T0_EET1_:
.LFB3840:
	.file 28 "c:/marmalade/7.5/s3e/h/std/c++/stl/_list.c"
	.loc 28 173 0
	.cfi_startproc
	@ args = 0, pretend = 0, frame = 296
	@ frame_needed = 0, uses_anonymous_args = 0
	stmfd	sp!, {r4, r5, r6, r7, lr}
.LCFI191:
	.cfi_def_cfa_offset 20
	.cfi_offset 4, -20
	.cfi_offset 5, -16
	.cfi_offset 6, -12
	.cfi_offset 7, -8
	.cfi_offset 14, -4
	sub	sp, sp, #300
.LCFI192:
	.cfi_def_cfa_offset 320
	str	r0, [sp, #4]
	strb	r1, [sp]
.LBB70:
.LBB71:
	.loc 28 175 0
	ldr	r3, [sp, #4]
	ldr	r3, [r3]
	ldr	r2, [r3]
	ldr	r3, [sp, #4]
	ldr	r3, [r3]
	cmp	r2, r3
	beq	.L374
	.loc 28 175 0 is_stmt 0 discriminator 1
	ldr	r3, [sp, #4]
	ldr	r3, [r3]
	ldr	r3, [r3]
	ldr	r2, [r3]
	ldr	r3, [sp, #4]
	ldr	r3, [r3]
	cmp	r2, r3
	beq	.L374
.LBB72:
	.loc 28 177 0 is_stmt 1
	add	r3, sp, #268
	mov	r0, r3
	bl	_ZN4_STL9allocatorIdEC1Ev(PLT)
	add	r2, sp, #264
	add	r3, sp, #268
	mov	r0, r2
	mov	r1, r3
	bl	_ZN4_STL4listIdNS_9allocatorIdEEEC1ERKS2_(PLT)
	add	r3, sp, #268
	mov	r0, r3
	bl	_ZN4_STL9allocatorIdED1Ev(PLT)
	.loc 28 179 0
	add	r3, sp, #8
	mov	r4, #63
	mov	r5, r3
	b	.L376
.L377:
	.loc 28 179 0 is_stmt 0 discriminator 2
	add	r3, sp, #272
	mov	r0, r3
	bl	_ZN4_STL9allocatorIdEC1Ev(PLT)
	add	r3, sp, #272
	mov	r0, r5
	mov	r1, r3
	bl	_ZN4_STL4listIdNS_9allocatorIdEEEC1ERKS2_(PLT)
	add	r3, sp, #272
	mov	r0, r3
	bl	_ZN4_STL9allocatorIdED1Ev(PLT)
	add	r5, r5, #4
	sub	r4, r4, #1
.L376:
	.loc 28 179 0 discriminator 1
	cmn	r4, #1
	bne	.L377
	.loc 28 183 0 is_stmt 1 discriminator 3
	mov	r3, #0
	str	r3, [sp, #292]
	.loc 28 184 0 discriminator 3
	b	.L378
.L383:
.LBB73:
	.loc 28 185 0
	add	r2, sp, #276
	add	r3, sp, #264
	mov	r0, r2
	mov	r1, r3
	bl	_ZN4_STL4listIdNS_9allocatorIdEEE5beginEv(PLT)
	add	r3, sp, #280
	mov	r0, r3
	ldr	r1, [sp, #4]
	bl	_ZN4_STL4listIdNS_9allocatorIdEEE5beginEv(PLT)
	add	r1, sp, #264
	add	r2, sp, #276
	add	r3, sp, #280
	mov	r0, r1
	mov	r1, r2
	ldr	r2, [sp, #4]
	bl	_ZN4_STL4listIdNS_9allocatorIdEEE6spliceENS_14_List_iteratorIdNS_16_Nonconst_traitsIdEEEERS3_S7_(PLT)
	.loc 28 186 0
	mov	r3, #0
	str	r3, [sp, #288]
	.loc 28 187 0
	b	.L379
.L382:
	.loc 28 188 0
	add	r2, sp, #8
	ldr	r3, [sp, #288]
	mov	r3, r3, asl #2
	add	r2, r2, r3
	add	r3, sp, #264
	mov	r0, r2
	mov	r1, r3
	mov	r2, r7
	bl	_ZN4_STL8_S_mergeIdNS_9allocatorIdEENS_4lessIdEEEEvRNS_4listIT_T0_EES9_T1_(PLT)
	.loc 28 189 0
	ldr	r3, [sp, #288]
	add	r2, r3, #1
	str	r2, [sp, #288]
	add	r2, sp, #8
	mov	r3, r3, asl #2
	add	r3, r2, r3
	add	r2, sp, #264
	mov	r0, r2
	mov	r1, r3
	bl	_ZN4_STL4listIdNS_9allocatorIdEEE4swapERS3_(PLT)
.L379:
	.loc 28 187 0 discriminator 1
	ldr	r2, [sp, #288]
	ldr	r3, [sp, #292]
	cmp	r2, r3
	bge	.L380
	.loc 28 187 0 is_stmt 0 discriminator 2
	add	r2, sp, #8
	ldr	r3, [sp, #288]
	mov	r3, r3, asl #2
	add	r3, r2, r3
	mov	r0, r3
	bl	_ZNK4_STL4listIdNS_9allocatorIdEEE5emptyEv(PLT)
	mov	r3, r0
	eor	r3, r3, #1
	uxtb	r3, r3
	cmp	r3, #0
	beq	.L380
	.loc 28 187 0 discriminator 4
	mov	r3, #1
	b	.L381
.L380:
	.loc 28 187 0 discriminator 3
	mov	r3, #0
.L381:
	.loc 28 187 0 discriminator 5
	cmp	r3, #0
	bne	.L382
	.loc 28 191 0 is_stmt 1
	add	r2, sp, #8
	ldr	r3, [sp, #288]
	mov	r3, r3, asl #2
	add	r3, r2, r3
	add	r2, sp, #264
	mov	r0, r2
	mov	r1, r3
	bl	_ZN4_STL4listIdNS_9allocatorIdEEE4swapERS3_(PLT)
	.loc 28 192 0
	ldr	r2, [sp, #288]
	ldr	r3, [sp, #292]
	cmp	r2, r3
	bne	.L378
	.loc 28 192 0 is_stmt 0 discriminator 1
	ldr	r3, [sp, #292]
	add	r3, r3, #1
	str	r3, [sp, #292]
.L378:
.LBE73:
	.loc 28 184 0 is_stmt 1 discriminator 1
	ldr	r0, [sp, #4]
	bl	_ZNK4_STL4listIdNS_9allocatorIdEEE5emptyEv(PLT)
	mov	r3, r0
	eor	r3, r3, #1
	uxtb	r3, r3
	cmp	r3, #0
	bne	.L383
.LBB74:
	.loc 28 195 0
	mov	r3, #1
	str	r3, [sp, #284]
	b	.L384
.L385:
	.loc 28 196 0 discriminator 2
	add	r2, sp, #8
	ldr	r3, [sp, #284]
	mov	r3, r3, asl #2
	add	r2, r2, r3
	ldr	r3, [sp, #284]
	sub	r3, r3, #1
	add	r1, sp, #8
	mov	r3, r3, asl #2
	add	r3, r1, r3
	mov	r0, r2
	mov	r1, r3
	mov	r2, r6
	bl	_ZN4_STL8_S_mergeIdNS_9allocatorIdEENS_4lessIdEEEEvRNS_4listIT_T0_EES9_T1_(PLT)
	.loc 28 195 0 discriminator 2
	ldr	r3, [sp, #284]
	add	r3, r3, #1
	str	r3, [sp, #284]
.L384:
	.loc 28 195 0 is_stmt 0 discriminator 1
	ldr	r2, [sp, #284]
	ldr	r3, [sp, #292]
	cmp	r2, r3
	blt	.L385
.LBE74:
	.loc 28 197 0 is_stmt 1
	ldr	r3, [sp, #292]
	sub	r3, r3, #1
	add	r2, sp, #8
	mov	r3, r3, asl #2
	add	r3, r2, r3
	ldr	r0, [sp, #4]
	mov	r1, r3
	bl	_ZN4_STL4listIdNS_9allocatorIdEEE4swapERS3_(PLT)
	.loc 28 179 0
	add	r4, sp, #8
	add	r4, r4, #256
.L387:
	.loc 28 179 0 is_stmt 0 discriminator 4
	add	r3, sp, #8
	cmp	r4, r3
	beq	.L386
	.loc 28 179 0 discriminator 5
	sub	r4, r4, #4
	mov	r0, r4
	bl	_ZN4_STL4listIdNS_9allocatorIdEEED1Ev(PLT)
	b	.L387
.L386:
	.loc 28 197 0 is_stmt 1
	add	r3, sp, #264
	mov	r0, r3
	bl	_ZN4_STL4listIdNS_9allocatorIdEEED1Ev(PLT)
.L374:
.LBE72:
.LBE71:
.LBE70:
	.loc 28 199 0
	add	sp, sp, #300
	@ sp needed
	ldmfd	sp!, {r4, r5, r6, r7, pc}
	.cfi_endproc
.LFE3840:
	.size	_ZN4_STL7_S_sortIdNS_9allocatorIdEENS_4lessIdEEEEvRNS_4listIT_T0_EET1_, .-_ZN4_STL7_S_sortIdNS_9allocatorIdEENS_4lessIdEEEEvRNS_4listIT_T0_EET1_
	.section	.text._ZN4_STL9allocatorIcEC2Ev,"axG",%progbits,_ZN4_STL9allocatorIcEC5Ev,comdat
	.align	2
	.weak	_ZN4_STL9allocatorIcEC2Ev
	.hidden	_ZN4_STL9allocatorIcEC2Ev
	.type	_ZN4_STL9allocatorIcEC2Ev, %function
_ZN4_STL9allocatorIcEC2Ev:
.LFB3842:
	.loc 17 345 0
	.cfi_startproc
	@ args = 0, pretend = 0, frame = 8
	@ frame_needed = 0, uses_anonymous_args = 0
	@ link register save eliminated.
	sub	sp, sp, #8
.LCFI193:
	.cfi_def_cfa_offset 8
	str	r0, [sp, #4]
	.loc 17 345 0
	ldr	r3, [sp, #4]
	mov	r0, r3
	add	sp, sp, #8
	@ sp needed
	bx	lr
	.cfi_endproc
.LFE3842:
	.size	_ZN4_STL9allocatorIcEC2Ev, .-_ZN4_STL9allocatorIcEC2Ev
	.weak	_ZN4_STL9allocatorIcEC1Ev
	.hidden	_ZN4_STL9allocatorIcEC1Ev
	.set	_ZN4_STL9allocatorIcEC1Ev,_ZN4_STL9allocatorIcEC2Ev
	.section	.text._ZN4_STL9allocatorIcE8allocateEjPKv,"axG",%progbits,_ZN4_STL9allocatorIcE8allocateEjPKv,comdat
	.align	2
	.weak	_ZN4_STL9allocatorIcE8allocateEjPKv
	.hidden	_ZN4_STL9allocatorIcE8allocateEjPKv
	.type	_ZN4_STL9allocatorIcE8allocateEjPKv, %function
_ZN4_STL9allocatorIcE8allocateEjPKv:
.LFB3844:
	.loc 17 354 0
	.cfi_startproc
	@ args = 0, pretend = 0, frame = 16
	@ frame_needed = 0, uses_anonymous_args = 0
	str	lr, [sp, #-4]!
.LCFI194:
	.cfi_def_cfa_offset 4
	.cfi_offset 14, -4
	sub	sp, sp, #20
.LCFI195:
	.cfi_def_cfa_offset 24
	str	r0, [sp, #12]
	str	r1, [sp, #8]
	str	r2, [sp, #4]
	.loc 17 355 0
	ldr	r3, [sp, #8]
	cmp	r3, #0
	beq	.L392
	.loc 17 355 0 is_stmt 0 discriminator 1
	ldr	r0, [sp, #8]
	bl	_ZN4_STL14__malloc_allocILi0EE8allocateEj(PLT)
	mov	r3, r0
	b	.L393
.L392:
	.loc 17 355 0 discriminator 2
	mov	r3, #0
.L393:
	.loc 17 356 0 is_stmt 1 discriminator 3
	mov	r0, r3
	add	sp, sp, #20
	@ sp needed
	ldr	pc, [sp], #4
	.cfi_endproc
.LFE3844:
	.size	_ZN4_STL9allocatorIcE8allocateEjPKv, .-_ZN4_STL9allocatorIcE8allocateEjPKv
	.section	.text._ZN4_STL12basic_stringIcNS_11char_traitsIcEENS_9allocatorIcEEE19_M_terminate_stringEv,"axG",%progbits,_ZN4_STL12basic_stringIcNS_11char_traitsIcEENS_9allocatorIcEEE19_M_terminate_stringEv,comdat
	.align	2
	.weak	_ZN4_STL12basic_stringIcNS_11char_traitsIcEENS_9allocatorIcEEE19_M_terminate_stringEv
	.hidden	_ZN4_STL12basic_stringIcNS_11char_traitsIcEENS_9allocatorIcEEE19_M_terminate_stringEv
	.type	_ZN4_STL12basic_stringIcNS_11char_traitsIcEENS_9allocatorIcEEE19_M_terminate_stringEv, %function
_ZN4_STL12basic_stringIcNS_11char_traitsIcEENS_9allocatorIcEEE19_M_terminate_stringEv:
.LFB3845:
	.loc 15 354 0
	.cfi_startproc
	@ args = 0, pretend = 0, frame = 16
	@ frame_needed = 0, uses_anonymous_args = 0
	str	lr, [sp, #-4]!
.LCFI196:
	.cfi_def_cfa_offset 4
	.cfi_offset 14, -4
	sub	sp, sp, #20
.LCFI197:
	.cfi_def_cfa_offset 24
	str	r0, [sp, #4]
	.loc 15 355 0
	add	r3, sp, #12
	ldr	r0, [sp, #4]
	mov	r1, r3
	bl	_ZN4_STL12basic_stringIcNS_11char_traitsIcEENS_9allocatorIcEEE23_M_terminate_string_auxERKNS_11__true_typeE(PLT)
	.loc 15 356 0
	add	sp, sp, #20
	@ sp needed
	ldr	pc, [sp], #4
	.cfi_endproc
.LFE3845:
	.size	_ZN4_STL12basic_stringIcNS_11char_traitsIcEENS_9allocatorIcEEE19_M_terminate_stringEv, .-_ZN4_STL12basic_stringIcNS_11char_traitsIcEENS_9allocatorIcEEE19_M_terminate_stringEv
	.section	.text._ZN4_STL14_List_iteratorIdNS_16_Nonconst_traitsIdEEEC2EPNS_10_List_nodeIdEE,"axG",%progbits,_ZN4_STL14_List_iteratorIdNS_16_Nonconst_traitsIdEEEC5EPNS_10_List_nodeIdEE,comdat
	.align	2
	.weak	_ZN4_STL14_List_iteratorIdNS_16_Nonconst_traitsIdEEEC2EPNS_10_List_nodeIdEE
	.hidden	_ZN4_STL14_List_iteratorIdNS_16_Nonconst_traitsIdEEEC2EPNS_10_List_nodeIdEE
	.type	_ZN4_STL14_List_iteratorIdNS_16_Nonconst_traitsIdEEEC2EPNS_10_List_nodeIdEE, %function
_ZN4_STL14_List_iteratorIdNS_16_Nonconst_traitsIdEEEC2EPNS_10_List_nodeIdEE:
.LFB3847:
	.loc 11 126 0
	.cfi_startproc
	@ args = 0, pretend = 0, frame = 8
	@ frame_needed = 0, uses_anonymous_args = 0
	str	lr, [sp, #-4]!
.LCFI198:
	.cfi_def_cfa_offset 4
	.cfi_offset 14, -4
	sub	sp, sp, #12
.LCFI199:
	.cfi_def_cfa_offset 16
	str	r0, [sp, #4]
	str	r1, [sp]
.LBB75:
	.loc 11 126 0
	ldr	r3, [sp, #4]
	mov	r0, r3
	ldr	r1, [sp]
	bl	_ZN4_STL19_List_iterator_baseC2EPNS_15_List_node_baseE(PLT)
.LBE75:
	ldr	r3, [sp, #4]
	mov	r0, r3
	add	sp, sp, #12
	@ sp needed
	ldr	pc, [sp], #4
	.cfi_endproc
.LFE3847:
	.size	_ZN4_STL14_List_iteratorIdNS_16_Nonconst_traitsIdEEEC2EPNS_10_List_nodeIdEE, .-_ZN4_STL14_List_iteratorIdNS_16_Nonconst_traitsIdEEEC2EPNS_10_List_nodeIdEE
	.weak	_ZN4_STL14_List_iteratorIdNS_16_Nonconst_traitsIdEEEC1EPNS_10_List_nodeIdEE
	.hidden	_ZN4_STL14_List_iteratorIdNS_16_Nonconst_traitsIdEEEC1EPNS_10_List_nodeIdEE
	.set	_ZN4_STL14_List_iteratorIdNS_16_Nonconst_traitsIdEEEC1EPNS_10_List_nodeIdEE,_ZN4_STL14_List_iteratorIdNS_16_Nonconst_traitsIdEEEC2EPNS_10_List_nodeIdEE
	.section	.text._ZN4_STL12_String_baseIcNS_9allocatorIcEEE19_M_deallocate_blockEv,"axG",%progbits,_ZN4_STL12_String_baseIcNS_9allocatorIcEEE19_M_deallocate_blockEv,comdat
	.align	2
	.weak	_ZN4_STL12_String_baseIcNS_9allocatorIcEEE19_M_deallocate_blockEv
	.hidden	_ZN4_STL12_String_baseIcNS_9allocatorIcEEE19_M_deallocate_blockEv
	.type	_ZN4_STL12_String_baseIcNS_9allocatorIcEEE19_M_deallocate_blockEv, %function
_ZN4_STL12_String_baseIcNS_9allocatorIcEEE19_M_deallocate_blockEv:
.LFB3849:
	.loc 15 123 0
	.cfi_startproc
	@ args = 0, pretend = 0, frame = 8
	@ frame_needed = 0, uses_anonymous_args = 0
	str	lr, [sp, #-4]!
.LCFI200:
	.cfi_def_cfa_offset 4
	.cfi_offset 14, -4
	sub	sp, sp, #12
.LCFI201:
	.cfi_def_cfa_offset 16
	str	r0, [sp, #4]
	.loc 15 124 0
	ldr	r3, [sp, #4]
	add	r1, r3, #8
	ldr	r3, [sp, #4]
	ldr	r2, [r3]
	ldr	r3, [sp, #4]
	ldr	r3, [r3, #8]
	mov	r0, r3
	ldr	r3, [sp, #4]
	ldr	r3, [r3]
	rsb	r3, r3, r0
	mov	r0, r1
	mov	r1, r2
	mov	r2, r3
	bl	_ZN4_STL9allocatorIcE10deallocateEPcj(PLT)
	add	sp, sp, #12
	@ sp needed
	ldr	pc, [sp], #4
	.cfi_endproc
.LFE3849:
	.size	_ZN4_STL12_String_baseIcNS_9allocatorIcEEE19_M_deallocate_blockEv, .-_ZN4_STL12_String_baseIcNS_9allocatorIcEEE19_M_deallocate_blockEv
	.section	.text._ZN4_STL9allocatorIcEC2ERKS1_,"axG",%progbits,_ZN4_STL9allocatorIcEC5ERKS1_,comdat
	.align	2
	.weak	_ZN4_STL9allocatorIcEC2ERKS1_
	.hidden	_ZN4_STL9allocatorIcEC2ERKS1_
	.type	_ZN4_STL9allocatorIcEC2ERKS1_, %function
_ZN4_STL9allocatorIcEC2ERKS1_:
.LFB3851:
	.loc 17 349 0
	.cfi_startproc
	@ args = 0, pretend = 0, frame = 8
	@ frame_needed = 0, uses_anonymous_args = 0
	@ link register save eliminated.
	sub	sp, sp, #8
.LCFI202:
	.cfi_def_cfa_offset 8
	str	r0, [sp, #4]
	str	r1, [sp]
	.loc 17 349 0
	ldr	r3, [sp, #4]
	mov	r0, r3
	add	sp, sp, #8
	@ sp needed
	bx	lr
	.cfi_endproc
.LFE3851:
	.size	_ZN4_STL9allocatorIcEC2ERKS1_, .-_ZN4_STL9allocatorIcEC2ERKS1_
	.weak	_ZN4_STL9allocatorIcEC1ERKS1_
	.hidden	_ZN4_STL9allocatorIcEC1ERKS1_
	.set	_ZN4_STL9allocatorIcEC1ERKS1_,_ZN4_STL9allocatorIcEC2ERKS1_
	.section	.text._ZN4_STL17_STLP_alloc_proxyIPccNS_9allocatorIcEEEC2ERKS3_S1_,"axG",%progbits,_ZN4_STL17_STLP_alloc_proxyIPccNS_9allocatorIcEEEC5ERKS3_S1_,comdat
	.align	2
	.weak	_ZN4_STL17_STLP_alloc_proxyIPccNS_9allocatorIcEEEC2ERKS3_S1_
	.hidden	_ZN4_STL17_STLP_alloc_proxyIPccNS_9allocatorIcEEEC2ERKS3_S1_
	.type	_ZN4_STL17_STLP_alloc_proxyIPccNS_9allocatorIcEEEC2ERKS3_S1_, %function
_ZN4_STL17_STLP_alloc_proxyIPccNS_9allocatorIcEEEC2ERKS3_S1_:
.LFB3854:
	.loc 17 487 0
	.cfi_startproc
	@ args = 0, pretend = 0, frame = 16
	@ frame_needed = 0, uses_anonymous_args = 0
	str	lr, [sp, #-4]!
.LCFI203:
	.cfi_def_cfa_offset 4
	.cfi_offset 14, -4
	sub	sp, sp, #20
.LCFI204:
	.cfi_def_cfa_offset 24
	str	r0, [sp, #12]
	str	r1, [sp, #8]
	str	r2, [sp, #4]
.LBB76:
	.loc 17 487 0
	ldr	r0, [sp, #12]
	ldr	r1, [sp, #8]
	bl	_ZN4_STL9allocatorIcEC2ERKS1_(PLT)
	ldr	r3, [sp, #12]
	ldr	r2, [sp, #4]
	str	r2, [r3]
.LBE76:
	ldr	r3, [sp, #12]
	mov	r0, r3
	add	sp, sp, #20
	@ sp needed
	ldr	pc, [sp], #4
	.cfi_endproc
.LFE3854:
	.size	_ZN4_STL17_STLP_alloc_proxyIPccNS_9allocatorIcEEEC2ERKS3_S1_, .-_ZN4_STL17_STLP_alloc_proxyIPccNS_9allocatorIcEEEC2ERKS3_S1_
	.weak	_ZN4_STL17_STLP_alloc_proxyIPccNS_9allocatorIcEEEC1ERKS3_S1_
	.hidden	_ZN4_STL17_STLP_alloc_proxyIPccNS_9allocatorIcEEEC1ERKS3_S1_
	.set	_ZN4_STL17_STLP_alloc_proxyIPccNS_9allocatorIcEEEC1ERKS3_S1_,_ZN4_STL17_STLP_alloc_proxyIPccNS_9allocatorIcEEEC2ERKS3_S1_
	.section	.text._ZN4_STL12basic_stringIcNS_11char_traitsIcEENS_9allocatorIcEEE19_M_range_initializeIPcEEvT_S8_RKNS_20forward_iterator_tagE,"axG",%progbits,_ZN4_STL12basic_stringIcNS_11char_traitsIcEENS_9allocatorIcEEE19_M_range_initializeIPcEEvT_S8_RKNS_20forward_iterator_tagE,comdat
	.align	2
	.weak	_ZN4_STL12basic_stringIcNS_11char_traitsIcEENS_9allocatorIcEEE19_M_range_initializeIPcEEvT_S8_RKNS_20forward_iterator_tagE
	.hidden	_ZN4_STL12basic_stringIcNS_11char_traitsIcEENS_9allocatorIcEEE19_M_range_initializeIPcEEvT_S8_RKNS_20forward_iterator_tagE
	.type	_ZN4_STL12basic_stringIcNS_11char_traitsIcEENS_9allocatorIcEEE19_M_range_initializeIPcEEvT_S8_RKNS_20forward_iterator_tagE, %function
_ZN4_STL12basic_stringIcNS_11char_traitsIcEENS_9allocatorIcEEE19_M_range_initializeIPcEEvT_S8_RKNS_20forward_iterator_tagE:
.LFB3856:
	.loc 15 382 0
	.cfi_startproc
	@ args = 0, pretend = 0, frame = 24
	@ frame_needed = 0, uses_anonymous_args = 0
	str	lr, [sp, #-4]!
.LCFI205:
	.cfi_def_cfa_offset 4
	.cfi_offset 14, -4
	sub	sp, sp, #28
.LCFI206:
	.cfi_def_cfa_offset 32
	str	r0, [sp, #12]
	str	r1, [sp, #8]
	str	r2, [sp, #4]
	str	r3, [sp]
.LBB77:
	.loc 15 384 0
	add	r2, sp, #8
	add	r3, sp, #4
	mov	r0, r2
	mov	r1, r3
	bl	_ZN4_STL8distanceIPcEENS_15iterator_traitsIT_E15difference_typeERKS3_S7_(PLT)
	str	r0, [sp, #20]
	.loc 15 385 0
	ldr	r2, [sp, #12]
	ldr	r3, [sp, #20]
	add	r3, r3, #1
	mov	r0, r2
	mov	r1, r3
	bl	_ZN4_STL12_String_baseIcNS_9allocatorIcEEE17_M_allocate_blockEj(PLT)
	.loc 15 386 0
	ldr	r1, [sp, #8]
	ldr	r2, [sp, #4]
	ldr	r3, [sp, #12]
	ldr	r3, [r3]
	mov	r0, r1
	mov	r1, r2
	mov	r2, r3
	bl	_ZN4_STL18uninitialized_copyIPcS1_EET0_T_S3_S2_(PLT)
	mov	r2, r0
	ldr	r3, [sp, #12]
	str	r2, [r3, #4]
	.loc 15 387 0
	ldr	r0, [sp, #12]
	bl	_ZN4_STL12basic_stringIcNS_11char_traitsIcEENS_9allocatorIcEEE19_M_terminate_stringEv(PLT)
.LBE77:
	.loc 15 388 0
	add	sp, sp, #28
	@ sp needed
	ldr	pc, [sp], #4
	.cfi_endproc
.LFE3856:
	.size	_ZN4_STL12basic_stringIcNS_11char_traitsIcEENS_9allocatorIcEEE19_M_range_initializeIPcEEvT_S8_RKNS_20forward_iterator_tagE, .-_ZN4_STL12basic_stringIcNS_11char_traitsIcEENS_9allocatorIcEEE19_M_range_initializeIPcEEvT_S8_RKNS_20forward_iterator_tagE
	.section	.text._ZN4_STL12basic_stringIcNS_11char_traitsIcEENS_9allocatorIcEEE18_M_assign_dispatchIPcEERS5_T_S9_RKNS_12__false_typeE,"axG",%progbits,_ZN4_STL12basic_stringIcNS_11char_traitsIcEENS_9allocatorIcEEE18_M_assign_dispatchIPcEERS5_T_S9_RKNS_12__false_typeE,comdat
	.align	2
	.weak	_ZN4_STL12basic_stringIcNS_11char_traitsIcEENS_9allocatorIcEEE18_M_assign_dispatchIPcEERS5_T_S9_RKNS_12__false_typeE
	.hidden	_ZN4_STL12basic_stringIcNS_11char_traitsIcEENS_9allocatorIcEEE18_M_assign_dispatchIPcEERS5_T_S9_RKNS_12__false_typeE
	.type	_ZN4_STL12basic_stringIcNS_11char_traitsIcEENS_9allocatorIcEEE18_M_assign_dispatchIPcEERS5_T_S9_RKNS_12__false_typeE, %function
_ZN4_STL12basic_stringIcNS_11char_traitsIcEENS_9allocatorIcEEE18_M_assign_dispatchIPcEERS5_T_S9_RKNS_12__false_typeE:
.LFB3876:
	.loc 15 624 0
	.cfi_startproc
	@ args = 0, pretend = 0, frame = 24
	@ frame_needed = 0, uses_anonymous_args = 0
	str	lr, [sp, #-4]!
.LCFI207:
	.cfi_def_cfa_offset 4
	.cfi_offset 14, -4
	sub	sp, sp, #28
.LCFI208:
	.cfi_def_cfa_offset 32
	str	r0, [sp, #12]
	str	r1, [sp, #8]
	str	r2, [sp, #4]
	str	r3, [sp]
.LBB78:
	.loc 15 626 0
	ldr	r3, [sp, #12]
	ldr	r3, [r3]
	str	r3, [sp, #20]
	.loc 15 627 0
	b	.L408
.L410:
	.loc 15 628 0
	ldr	r0, [sp, #20]
	ldr	r1, [sp, #8]
	bl	_ZN4_STL11char_traitsIcE6assignERcRKc(PLT)
	.loc 15 629 0
	ldr	r3, [sp, #8]
	add	r3, r3, #1
	str	r3, [sp, #8]
	.loc 15 630 0
	ldr	r3, [sp, #20]
	add	r3, r3, #1
	str	r3, [sp, #20]
.L408:
	.loc 15 627 0 discriminator 1
	ldr	r2, [sp, #8]
	ldr	r3, [sp, #4]
	cmp	r2, r3
	beq	.L409
	.loc 15 627 0 is_stmt 0 discriminator 2
	ldr	r3, [sp, #12]
	ldr	r2, [r3, #4]
	ldr	r3, [sp, #20]
	cmp	r2, r3
	bne	.L410
.L409:
	.loc 15 632 0 is_stmt 1
	ldr	r2, [sp, #8]
	ldr	r3, [sp, #4]
	cmp	r2, r3
	bne	.L411
	.loc 15 633 0
	ldr	r0, [sp, #12]
	bl	_ZN4_STL12basic_stringIcNS_11char_traitsIcEENS_9allocatorIcEEE3endEv(PLT)
	mov	r3, r0
	ldr	r0, [sp, #12]
	ldr	r1, [sp, #20]
	mov	r2, r3
	bl	_ZN4_STL12basic_stringIcNS_11char_traitsIcEENS_9allocatorIcEEE5eraseEPcS6_(PLT)
	b	.L412
.L411:
	.loc 15 635 0
	ldr	r0, [sp, #12]
	ldr	r1, [sp, #8]
	ldr	r2, [sp, #4]
	bl	_ZN4_STL12basic_stringIcNS_11char_traitsIcEENS_9allocatorIcEEE6appendIPcEERS5_T_S9_(PLT)
.L412:
	.loc 15 636 0
	ldr	r3, [sp, #12]
.LBE78:
	.loc 15 637 0
	mov	r0, r3
	add	sp, sp, #28
	@ sp needed
	ldr	pc, [sp], #4
	.cfi_endproc
.LFE3876:
	.size	_ZN4_STL12basic_stringIcNS_11char_traitsIcEENS_9allocatorIcEEE18_M_assign_dispatchIPcEERS5_T_S9_RKNS_12__false_typeE, .-_ZN4_STL12basic_stringIcNS_11char_traitsIcEENS_9allocatorIcEEE18_M_assign_dispatchIPcEERS5_T_S9_RKNS_12__false_typeE
	.section	.text._ZNK4_STL12basic_stringIcNS_11char_traitsIcEENS_9allocatorIcEEE4sizeEv,"axG",%progbits,_ZNK4_STL12basic_stringIcNS_11char_traitsIcEENS_9allocatorIcEEE4sizeEv,comdat
	.align	2
	.weak	_ZNK4_STL12basic_stringIcNS_11char_traitsIcEENS_9allocatorIcEEE4sizeEv
	.hidden	_ZNK4_STL12basic_stringIcNS_11char_traitsIcEENS_9allocatorIcEEE4sizeEv
	.type	_ZNK4_STL12basic_stringIcNS_11char_traitsIcEENS_9allocatorIcEEE4sizeEv, %function
_ZNK4_STL12basic_stringIcNS_11char_traitsIcEENS_9allocatorIcEEE4sizeEv:
.LFB3877:
	.loc 15 431 0
	.cfi_startproc
	@ args = 0, pretend = 0, frame = 8
	@ frame_needed = 0, uses_anonymous_args = 0
	@ link register save eliminated.
	sub	sp, sp, #8
.LCFI209:
	.cfi_def_cfa_offset 8
	str	r0, [sp, #4]
	.loc 15 431 0
	ldr	r3, [sp, #4]
	ldr	r3, [r3, #4]
	mov	r2, r3
	ldr	r3, [sp, #4]
	ldr	r3, [r3]
	rsb	r3, r3, r2
	mov	r0, r3
	add	sp, sp, #8
	@ sp needed
	bx	lr
	.cfi_endproc
.LFE3877:
	.size	_ZNK4_STL12basic_stringIcNS_11char_traitsIcEENS_9allocatorIcEEE4sizeEv, .-_ZNK4_STL12basic_stringIcNS_11char_traitsIcEENS_9allocatorIcEEE4sizeEv
	.section	.text._ZN4_STL18__char_traits_baseIciE4copyEPcPKcj,"axG",%progbits,_ZN4_STL18__char_traits_baseIciE4copyEPcPKcj,comdat
	.align	2
	.weak	_ZN4_STL18__char_traits_baseIciE4copyEPcPKcj
	.hidden	_ZN4_STL18__char_traits_baseIciE4copyEPcPKcj
	.type	_ZN4_STL18__char_traits_baseIciE4copyEPcPKcj, %function
_ZN4_STL18__char_traits_baseIciE4copyEPcPKcj:
.LFB3878:
	.loc 6 169 0
	.cfi_startproc
	@ args = 0, pretend = 0, frame = 16
	@ frame_needed = 0, uses_anonymous_args = 0
	str	lr, [sp, #-4]!
.LCFI210:
	.cfi_def_cfa_offset 4
	.cfi_offset 14, -4
	sub	sp, sp, #20
.LCFI211:
	.cfi_def_cfa_offset 24
	str	r0, [sp, #12]
	str	r1, [sp, #8]
	str	r2, [sp, #4]
	.loc 6 171 0
	ldr	r3, [sp, #4]
	cmp	r3, #0
	beq	.L417
	.loc 6 171 0 is_stmt 0 discriminator 1
	ldr	r0, [sp, #12]
	ldr	r1, [sp, #8]
	ldr	r2, [sp, #4]
	bl	memcpy(PLT)
	mov	r3, r0
	b	.L418
.L417:
	.loc 6 171 0 discriminator 2
	ldr	r3, [sp, #12]
.L418:
	.loc 6 172 0 is_stmt 1 discriminator 3
	mov	r0, r3
	add	sp, sp, #20
	@ sp needed
	ldr	pc, [sp], #4
	.cfi_endproc
.LFE3878:
	.size	_ZN4_STL18__char_traits_baseIciE4copyEPcPKcj, .-_ZN4_STL18__char_traits_baseIciE4copyEPcPKcj
	.section	.text._ZN4_STL12basic_stringIcNS_11char_traitsIcEENS_9allocatorIcEEE3endEv,"axG",%progbits,_ZN4_STL12basic_stringIcNS_11char_traitsIcEENS_9allocatorIcEEE3endEv,comdat
	.align	2
	.weak	_ZN4_STL12basic_stringIcNS_11char_traitsIcEENS_9allocatorIcEEE3endEv
	.hidden	_ZN4_STL12basic_stringIcNS_11char_traitsIcEENS_9allocatorIcEEE3endEv
	.type	_ZN4_STL12basic_stringIcNS_11char_traitsIcEENS_9allocatorIcEEE3endEv, %function
_ZN4_STL12basic_stringIcNS_11char_traitsIcEENS_9allocatorIcEEE3endEv:
.LFB3880:
	.loc 15 417 0
	.cfi_startproc
	@ args = 0, pretend = 0, frame = 8
	@ frame_needed = 0, uses_anonymous_args = 0
	@ link register save eliminated.
	sub	sp, sp, #8
.LCFI212:
	.cfi_def_cfa_offset 8
	str	r0, [sp, #4]
	.loc 15 417 0
	ldr	r3, [sp, #4]
	ldr	r3, [r3, #4]
	mov	r0, r3
	add	sp, sp, #8
	@ sp needed
	bx	lr
	.cfi_endproc
.LFE3880:
	.size	_ZN4_STL12basic_stringIcNS_11char_traitsIcEENS_9allocatorIcEEE3endEv, .-_ZN4_STL12basic_stringIcNS_11char_traitsIcEENS_9allocatorIcEEE3endEv
	.section	.text._ZN4_STL12basic_stringIcNS_11char_traitsIcEENS_9allocatorIcEEE5eraseEPcS6_,"axG",%progbits,_ZN4_STL12basic_stringIcNS_11char_traitsIcEENS_9allocatorIcEEE5eraseEPcS6_,comdat
	.align	2
	.weak	_ZN4_STL12basic_stringIcNS_11char_traitsIcEENS_9allocatorIcEEE5eraseEPcS6_
	.hidden	_ZN4_STL12basic_stringIcNS_11char_traitsIcEENS_9allocatorIcEEE5eraseEPcS6_
	.type	_ZN4_STL12basic_stringIcNS_11char_traitsIcEENS_9allocatorIcEEE5eraseEPcS6_, %function
_ZN4_STL12basic_stringIcNS_11char_traitsIcEENS_9allocatorIcEEE5eraseEPcS6_:
.LFB3881:
	.loc 15 862 0
	.cfi_startproc
	@ args = 0, pretend = 0, frame = 24
	@ frame_needed = 0, uses_anonymous_args = 0
	str	lr, [sp, #-4]!
.LCFI213:
	.cfi_def_cfa_offset 4
	.cfi_offset 14, -4
	sub	sp, sp, #28
.LCFI214:
	.cfi_def_cfa_offset 32
	str	r0, [sp, #12]
	str	r1, [sp, #8]
	str	r2, [sp, #4]
.LBB79:
.LBB80:
	.loc 15 863 0
	ldr	r2, [sp, #8]
	ldr	r3, [sp, #4]
	cmp	r2, r3
	beq	.L423
.LBB81:
	.loc 15 865 0
	ldr	r3, [sp, #12]
	ldr	r3, [r3, #4]
	mov	r2, r3
	ldr	r3, [sp, #4]
	rsb	r3, r3, r2
	add	r3, r3, #1
	ldr	r0, [sp, #8]
	ldr	r1, [sp, #4]
	mov	r2, r3
	bl	_ZN4_STL18__char_traits_baseIciE4moveEPcPKcj(PLT)
	.loc 15 866 0
	ldr	r3, [sp, #12]
	ldr	r2, [r3, #4]
	ldr	r1, [sp, #4]
	ldr	r3, [sp, #8]
	rsb	r3, r3, r1
	rsb	r3, r3, #0
	add	r3, r2, r3
	str	r3, [sp, #20]
	.loc 15 867 0
	ldr	r3, [sp, #20]
	add	r2, r3, #1
	ldr	r3, [sp, #12]
	ldr	r3, [r3, #4]
	add	r3, r3, #1
	mov	r0, r2
	mov	r1, r3
	bl	_ZN4_STL8_DestroyEPcS0_(PLT)
	.loc 15 868 0
	ldr	r3, [sp, #12]
	ldr	r2, [sp, #20]
	str	r2, [r3, #4]
.L423:
.LBE81:
.LBE80:
	.loc 15 870 0
	ldr	r3, [sp, #8]
.LBE79:
	.loc 15 871 0
	mov	r0, r3
	add	sp, sp, #28
	@ sp needed
	ldr	pc, [sp], #4
	.cfi_endproc
.LFE3881:
	.size	_ZN4_STL12basic_stringIcNS_11char_traitsIcEENS_9allocatorIcEEE5eraseEPcS6_, .-_ZN4_STL12basic_stringIcNS_11char_traitsIcEENS_9allocatorIcEEE5eraseEPcS6_
	.section	.text._ZN4_STL12basic_stringIcNS_11char_traitsIcEENS_9allocatorIcEEE6appendIPKcEERS5_T_SA_,"axG",%progbits,_ZN4_STL12basic_stringIcNS_11char_traitsIcEENS_9allocatorIcEEE6appendIPKcEERS5_T_SA_,comdat
	.align	2
	.weak	_ZN4_STL12basic_stringIcNS_11char_traitsIcEENS_9allocatorIcEEE6appendIPKcEERS5_T_SA_
	.hidden	_ZN4_STL12basic_stringIcNS_11char_traitsIcEENS_9allocatorIcEEE6appendIPKcEERS5_T_SA_
	.type	_ZN4_STL12basic_stringIcNS_11char_traitsIcEENS_9allocatorIcEEE6appendIPKcEERS5_T_SA_, %function
_ZN4_STL12basic_stringIcNS_11char_traitsIcEENS_9allocatorIcEEE6appendIPKcEERS5_T_SA_:
.LFB3882:
	.loc 15 506 0
	.cfi_startproc
	@ args = 0, pretend = 0, frame = 24
	@ frame_needed = 0, uses_anonymous_args = 0
	str	lr, [sp, #-4]!
.LCFI215:
	.cfi_def_cfa_offset 4
	.cfi_offset 14, -4
	sub	sp, sp, #28
.LCFI216:
	.cfi_def_cfa_offset 32
	str	r0, [sp, #12]
	str	r1, [sp, #8]
	str	r2, [sp, #4]
.LBB82:
	.loc 15 508 0
	add	r3, sp, #20
	ldr	r0, [sp, #12]
	ldr	r1, [sp, #8]
	ldr	r2, [sp, #4]
	bl	_ZN4_STL12basic_stringIcNS_11char_traitsIcEENS_9allocatorIcEEE18_M_append_dispatchIPKcEERS5_T_SA_RKNS_12__false_typeE(PLT)
	mov	r3, r0
.LBE82:
	.loc 15 509 0
	mov	r0, r3
	add	sp, sp, #28
	@ sp needed
	ldr	pc, [sp], #4
	.cfi_endproc
.LFE3882:
	.size	_ZN4_STL12basic_stringIcNS_11char_traitsIcEENS_9allocatorIcEEE6appendIPKcEERS5_T_SA_, .-_ZN4_STL12basic_stringIcNS_11char_traitsIcEENS_9allocatorIcEEE6appendIPKcEERS5_T_SA_
	.section	.text._ZN4_STL9allocatorINS_10_List_nodeIdEEEC2IdEERKNS0_IT_EE,"axG",%progbits,_ZN4_STL9allocatorINS_10_List_nodeIdEEEC5IdEERKNS0_IT_EE,comdat
	.align	2
	.weak	_ZN4_STL9allocatorINS_10_List_nodeIdEEEC2IdEERKNS0_IT_EE
	.hidden	_ZN4_STL9allocatorINS_10_List_nodeIdEEEC2IdEERKNS0_IT_EE
	.type	_ZN4_STL9allocatorINS_10_List_nodeIdEEEC2IdEERKNS0_IT_EE, %function
_ZN4_STL9allocatorINS_10_List_nodeIdEEEC2IdEERKNS0_IT_EE:
.LFB3887:
	.loc 17 347 0
	.cfi_startproc
	@ args = 0, pretend = 0, frame = 8
	@ frame_needed = 0, uses_anonymous_args = 0
	@ link register save eliminated.
	sub	sp, sp, #8
.LCFI217:
	.cfi_def_cfa_offset 8
	str	r0, [sp, #4]
	str	r1, [sp]
	.loc 17 347 0
	ldr	r3, [sp, #4]
	mov	r0, r3
	add	sp, sp, #8
	@ sp needed
	bx	lr
	.cfi_endproc
.LFE3887:
	.size	_ZN4_STL9allocatorINS_10_List_nodeIdEEEC2IdEERKNS0_IT_EE, .-_ZN4_STL9allocatorINS_10_List_nodeIdEEEC2IdEERKNS0_IT_EE
	.weak	_ZN4_STL9allocatorINS_10_List_nodeIdEEEC1IdEERKNS0_IT_EE
	.hidden	_ZN4_STL9allocatorINS_10_List_nodeIdEEEC1IdEERKNS0_IT_EE
	.set	_ZN4_STL9allocatorINS_10_List_nodeIdEEEC1IdEERKNS0_IT_EE,_ZN4_STL9allocatorINS_10_List_nodeIdEEEC2IdEERKNS0_IT_EE
	.section	.text._ZN4_STL9allocatorINS_10_List_nodeIdEEED2Ev,"axG",%progbits,_ZN4_STL9allocatorINS_10_List_nodeIdEEED5Ev,comdat
	.align	2
	.weak	_ZN4_STL9allocatorINS_10_List_nodeIdEEED2Ev
	.hidden	_ZN4_STL9allocatorINS_10_List_nodeIdEEED2Ev
	.type	_ZN4_STL9allocatorINS_10_List_nodeIdEEED2Ev, %function
_ZN4_STL9allocatorINS_10_List_nodeIdEEED2Ev:
.LFB3890:
	.loc 17 350 0
	.cfi_startproc
	@ args = 0, pretend = 0, frame = 8
	@ frame_needed = 0, uses_anonymous_args = 0
	@ link register save eliminated.
	sub	sp, sp, #8
.LCFI218:
	.cfi_def_cfa_offset 8
	str	r0, [sp, #4]
	.loc 17 350 0
	ldr	r3, [sp, #4]
	mov	r0, r3
	add	sp, sp, #8
	@ sp needed
	bx	lr
	.cfi_endproc
.LFE3890:
	.size	_ZN4_STL9allocatorINS_10_List_nodeIdEEED2Ev, .-_ZN4_STL9allocatorINS_10_List_nodeIdEEED2Ev
	.weak	_ZN4_STL9allocatorINS_10_List_nodeIdEEED1Ev
	.hidden	_ZN4_STL9allocatorINS_10_List_nodeIdEEED1Ev
	.set	_ZN4_STL9allocatorINS_10_List_nodeIdEEED1Ev,_ZN4_STL9allocatorINS_10_List_nodeIdEEED2Ev
	.section	.text._ZN4_STL17_STLP_alloc_proxyIPNS_10_List_nodeIdEES2_NS_9allocatorIS2_EEEC2ERKS5_S3_,"axG",%progbits,_ZN4_STL17_STLP_alloc_proxyIPNS_10_List_nodeIdEES2_NS_9allocatorIS2_EEEC5ERKS5_S3_,comdat
	.align	2
	.weak	_ZN4_STL17_STLP_alloc_proxyIPNS_10_List_nodeIdEES2_NS_9allocatorIS2_EEEC2ERKS5_S3_
	.hidden	_ZN4_STL17_STLP_alloc_proxyIPNS_10_List_nodeIdEES2_NS_9allocatorIS2_EEEC2ERKS5_S3_
	.type	_ZN4_STL17_STLP_alloc_proxyIPNS_10_List_nodeIdEES2_NS_9allocatorIS2_EEEC2ERKS5_S3_, %function
_ZN4_STL17_STLP_alloc_proxyIPNS_10_List_nodeIdEES2_NS_9allocatorIS2_EEEC2ERKS5_S3_:
.LFB3893:
	.loc 17 487 0
	.cfi_startproc
	@ args = 0, pretend = 0, frame = 16
	@ frame_needed = 0, uses_anonymous_args = 0
	str	lr, [sp, #-4]!
.LCFI219:
	.cfi_def_cfa_offset 4
	.cfi_offset 14, -4
	sub	sp, sp, #20
.LCFI220:
	.cfi_def_cfa_offset 24
	str	r0, [sp, #12]
	str	r1, [sp, #8]
	str	r2, [sp, #4]
.LBB83:
	.loc 17 487 0
	ldr	r0, [sp, #12]
	ldr	r1, [sp, #8]
	bl	_ZN4_STL9allocatorINS_10_List_nodeIdEEEC2ERKS3_(PLT)
	ldr	r3, [sp, #12]
	ldr	r2, [sp, #4]
	str	r2, [r3]
.LBE83:
	ldr	r3, [sp, #12]
	mov	r0, r3
	add	sp, sp, #20
	@ sp needed
	ldr	pc, [sp], #4
	.cfi_endproc
.LFE3893:
	.size	_ZN4_STL17_STLP_alloc_proxyIPNS_10_List_nodeIdEES2_NS_9allocatorIS2_EEEC2ERKS5_S3_, .-_ZN4_STL17_STLP_alloc_proxyIPNS_10_List_nodeIdEES2_NS_9allocatorIS2_EEEC2ERKS5_S3_
	.weak	_ZN4_STL17_STLP_alloc_proxyIPNS_10_List_nodeIdEES2_NS_9allocatorIS2_EEEC1ERKS5_S3_
	.hidden	_ZN4_STL17_STLP_alloc_proxyIPNS_10_List_nodeIdEES2_NS_9allocatorIS2_EEEC1ERKS5_S3_
	.set	_ZN4_STL17_STLP_alloc_proxyIPNS_10_List_nodeIdEES2_NS_9allocatorIS2_EEEC1ERKS5_S3_,_ZN4_STL17_STLP_alloc_proxyIPNS_10_List_nodeIdEES2_NS_9allocatorIS2_EEEC2ERKS5_S3_
	.section	.text._ZN4_STL9allocatorINS_10_List_nodeIdEEE8allocateEjPKv,"axG",%progbits,_ZN4_STL9allocatorINS_10_List_nodeIdEEE8allocateEjPKv,comdat
	.align	2
	.weak	_ZN4_STL9allocatorINS_10_List_nodeIdEEE8allocateEjPKv
	.hidden	_ZN4_STL9allocatorINS_10_List_nodeIdEEE8allocateEjPKv
	.type	_ZN4_STL9allocatorINS_10_List_nodeIdEEE8allocateEjPKv, %function
_ZN4_STL9allocatorINS_10_List_nodeIdEEE8allocateEjPKv:
.LFB3895:
	.loc 17 354 0
	.cfi_startproc
	@ args = 0, pretend = 0, frame = 16
	@ frame_needed = 0, uses_anonymous_args = 0
	str	lr, [sp, #-4]!
.LCFI221:
	.cfi_def_cfa_offset 4
	.cfi_offset 14, -4
	sub	sp, sp, #20
.LCFI222:
	.cfi_def_cfa_offset 24
	str	r0, [sp, #12]
	str	r1, [sp, #8]
	str	r2, [sp, #4]
	.loc 17 355 0
	ldr	r3, [sp, #8]
	cmp	r3, #0
	beq	.L437
	.loc 17 355 0 is_stmt 0 discriminator 1
	ldr	r3, [sp, #8]
	mov	r3, r3, asl #4
	mov	r0, r3
	bl	_ZN4_STL14__malloc_allocILi0EE8allocateEj(PLT)
	mov	r3, r0
	b	.L438
.L437:
	.loc 17 355 0 discriminator 2
	mov	r3, #0
.L438:
	.loc 17 356 0 is_stmt 1 discriminator 3
	mov	r0, r3
	add	sp, sp, #20
	@ sp needed
	ldr	pc, [sp], #4
	.cfi_endproc
.LFE3895:
	.size	_ZN4_STL9allocatorINS_10_List_nodeIdEEE8allocateEjPKv, .-_ZN4_STL9allocatorINS_10_List_nodeIdEEE8allocateEjPKv
	.section	.text._ZN4_STL10_List_baseIdNS_9allocatorIdEEE5clearEv,"axG",%progbits,_ZN4_STL10_List_baseIdNS_9allocatorIdEEE5clearEv,comdat
	.align	2
	.weak	_ZN4_STL10_List_baseIdNS_9allocatorIdEEE5clearEv
	.hidden	_ZN4_STL10_List_baseIdNS_9allocatorIdEEE5clearEv
	.type	_ZN4_STL10_List_baseIdNS_9allocatorIdEEE5clearEv, %function
_ZN4_STL10_List_baseIdNS_9allocatorIdEEE5clearEv:
.LFB3896:
	.loc 28 67 0
	.cfi_startproc
	@ args = 0, pretend = 0, frame = 16
	@ frame_needed = 0, uses_anonymous_args = 0
	str	lr, [sp, #-4]!
.LCFI223:
	.cfi_def_cfa_offset 4
	.cfi_offset 14, -4
	sub	sp, sp, #20
.LCFI224:
	.cfi_def_cfa_offset 24
	str	r0, [sp, #4]
.LBB84:
	.loc 28 69 0
	ldr	r3, [sp, #4]
	ldr	r3, [r3]
	ldr	r3, [r3]
	str	r3, [sp, #12]
	.loc 28 70 0
	b	.L441
.L442:
.LBB85:
	.loc 28 71 0
	ldr	r3, [sp, #12]
	str	r3, [sp, #8]
	.loc 28 72 0
	ldr	r3, [sp, #12]
	ldr	r3, [r3]
	str	r3, [sp, #12]
	.loc 28 73 0
	ldr	r3, [sp, #8]
	add	r3, r3, #8
	mov	r0, r3
	bl	_ZN4_STL8_DestroyIdEEvPT_(PLT)
	.loc 28 74 0
	ldr	r3, [sp, #4]
	mov	r0, r3
	ldr	r1, [sp, #8]
	mov	r2, #1
	bl	_ZN4_STL9allocatorINS_10_List_nodeIdEEE10deallocateEPS2_j(PLT)
.L441:
.LBE85:
	.loc 28 70 0 discriminator 1
	ldr	r3, [sp, #4]
	ldr	r2, [r3]
	ldr	r3, [sp, #12]
	cmp	r2, r3
	bne	.L442
	.loc 28 76 0
	ldr	r3, [sp, #4]
	ldr	r3, [r3]
	ldr	r2, [sp, #4]
	ldr	r2, [r2]
	str	r2, [r3]
	.loc 28 77 0
	ldr	r3, [sp, #4]
	ldr	r3, [r3]
	ldr	r2, [sp, #4]
	ldr	r2, [r2]
	str	r2, [r3, #4]
.LBE84:
	.loc 28 78 0
	add	sp, sp, #20
	@ sp needed
	ldr	pc, [sp], #4
	.cfi_endproc
.LFE3896:
	.size	_ZN4_STL10_List_baseIdNS_9allocatorIdEEE5clearEv, .-_ZN4_STL10_List_baseIdNS_9allocatorIdEEE5clearEv
	.section	.text._ZN4_STL9allocatorINS_10_List_nodeIdEEE10deallocateEPS2_j,"axG",%progbits,_ZN4_STL9allocatorINS_10_List_nodeIdEEE10deallocateEPS2_j,comdat
	.align	2
	.weak	_ZN4_STL9allocatorINS_10_List_nodeIdEEE10deallocateEPS2_j
	.hidden	_ZN4_STL9allocatorINS_10_List_nodeIdEEE10deallocateEPS2_j
	.type	_ZN4_STL9allocatorINS_10_List_nodeIdEEE10deallocateEPS2_j, %function
_ZN4_STL9allocatorINS_10_List_nodeIdEEE10deallocateEPS2_j:
.LFB3897:
	.loc 17 358 0
	.cfi_startproc
	@ args = 0, pretend = 0, frame = 16
	@ frame_needed = 0, uses_anonymous_args = 0
	str	lr, [sp, #-4]!
.LCFI225:
	.cfi_def_cfa_offset 4
	.cfi_offset 14, -4
	sub	sp, sp, #20
.LCFI226:
	.cfi_def_cfa_offset 24
	str	r0, [sp, #12]
	str	r1, [sp, #8]
	str	r2, [sp, #4]
	.loc 17 360 0
	ldr	r3, [sp, #8]
	cmp	r3, #0
	beq	.L443
	.loc 17 360 0 is_stmt 0 discriminator 1
	ldr	r3, [sp, #4]
	mov	r3, r3, asl #4
	ldr	r0, [sp, #8]
	mov	r1, r3
	bl	_ZN4_STL14__malloc_allocILi0EE10deallocateEPvj(PLT)
.L443:
	.loc 17 361 0 is_stmt 1
	add	sp, sp, #20
	@ sp needed
	ldr	pc, [sp], #4
	.cfi_endproc
.LFE3897:
	.size	_ZN4_STL9allocatorINS_10_List_nodeIdEEE10deallocateEPS2_j, .-_ZN4_STL9allocatorINS_10_List_nodeIdEEE10deallocateEPS2_j
	.section	.text._ZN4_STL13basic_ostreamIcNS_11char_traitsIcEEEC2EPNS_15basic_streambufIcS2_EE,"axG",%progbits,_ZN4_STL13basic_ostreamIcNS_11char_traitsIcEEEC2EPNS_15basic_streambufIcS2_EE,comdat
	.align	2
	.weak	_ZN4_STL13basic_ostreamIcNS_11char_traitsIcEEEC2EPNS_15basic_streambufIcS2_EE
	.hidden	_ZN4_STL13basic_ostreamIcNS_11char_traitsIcEEEC2EPNS_15basic_streambufIcS2_EE
	.type	_ZN4_STL13basic_ostreamIcNS_11char_traitsIcEEEC2EPNS_15basic_streambufIcS2_EE, %function
_ZN4_STL13basic_ostreamIcNS_11char_traitsIcEEEC2EPNS_15basic_streambufIcS2_EE:
.LFB3899:
	.loc 19 67 0
	.cfi_startproc
	@ args = 0, pretend = 0, frame = 16
	@ frame_needed = 0, uses_anonymous_args = 0
	str	lr, [sp, #-4]!
.LCFI227:
	.cfi_def_cfa_offset 4
	.cfi_offset 14, -4
	sub	sp, sp, #20
.LCFI228:
	.cfi_def_cfa_offset 24
	str	r0, [sp, #12]
	str	r1, [sp, #8]
	str	r2, [sp, #4]
.LBB86:
	.loc 19 67 0
	ldr	r3, [sp, #8]
	ldr	r2, [r3]
	ldr	r3, [sp, #12]
	str	r2, [r3]
	ldr	r3, [sp, #12]
	ldr	r3, [r3]
	sub	r3, r3, #12
	ldr	r3, [r3]
	ldr	r2, [sp, #12]
	add	r3, r2, r3
	ldr	r2, [sp, #8]
	ldr	r2, [r2, #4]
	str	r2, [r3]
	ldr	r3, [sp, #12]
	ldr	r3, [r3]
	sub	r3, r3, #12
	ldr	r3, [r3]
	ldr	r2, [sp, #12]
	add	r3, r2, r3
	mov	r0, r3
	ldr	r1, [sp, #4]
	bl	_ZN4_STL9basic_iosIcNS_11char_traitsIcEEE4initEPNS_15basic_streambufIcS2_EE(PLT)
.LBE86:
	ldr	r3, [sp, #12]
	mov	r0, r3
	add	sp, sp, #20
	@ sp needed
	ldr	pc, [sp], #4
	.cfi_endproc
.LFE3899:
	.size	_ZN4_STL13basic_ostreamIcNS_11char_traitsIcEEEC2EPNS_15basic_streambufIcS2_EE, .-_ZN4_STL13basic_ostreamIcNS_11char_traitsIcEEEC2EPNS_15basic_streambufIcS2_EE
	.section	.text._ZN4_STL13basic_ostreamIcNS_11char_traitsIcEEED2Ev,"axG",%progbits,_ZN4_STL13basic_ostreamIcNS_11char_traitsIcEEED2Ev,comdat
	.align	2
	.weak	_ZN4_STL13basic_ostreamIcNS_11char_traitsIcEEED2Ev
	.hidden	_ZN4_STL13basic_ostreamIcNS_11char_traitsIcEEED2Ev
	.type	_ZN4_STL13basic_ostreamIcNS_11char_traitsIcEEED2Ev, %function
_ZN4_STL13basic_ostreamIcNS_11char_traitsIcEEED2Ev:
.LFB3902:
	.loc 19 68 0
	.cfi_startproc
	@ args = 0, pretend = 0, frame = 8
	@ frame_needed = 0, uses_anonymous_args = 0
	str	lr, [sp, #-4]!
.LCFI229:
	.cfi_def_cfa_offset 4
	.cfi_offset 14, -4
	sub	sp, sp, #12
.LCFI230:
	.cfi_def_cfa_offset 16
	str	r0, [sp, #4]
	str	r1, [sp]
.LBB87:
	.loc 19 68 0
	ldr	r3, [sp]
	ldr	r2, [r3]
	ldr	r3, [sp, #4]
	str	r2, [r3]
	ldr	r3, [sp, #4]
	ldr	r3, [r3]
	sub	r3, r3, #12
	ldr	r3, [r3]
	ldr	r2, [sp, #4]
	add	r3, r2, r3
	ldr	r2, [sp]
	ldr	r2, [r2, #4]
	str	r2, [r3]
	mov	r3, #0
	cmp	r3, #0
	beq	.L449
	.loc 19 68 0 is_stmt 0 discriminator 10
	ldr	r3, [sp, #4]
	add	r3, r3, #4
	mov	r0, r3
	bl	_ZN4_STL9basic_iosIcNS_11char_traitsIcEEED2Ev(PLT)
.L449:
.LBE87:
	.loc 19 68 0 discriminator 11
	mov	r3, #0
	cmp	r3, #0
	beq	.L450
	.loc 19 68 0 discriminator 1
	ldr	r0, [sp, #4]
	bl	_ZdlPv(PLT)
.L450:
	.loc 19 68 0 discriminator 2
	ldr	r3, [sp, #4]
	mov	r0, r3
	add	sp, sp, #12
	@ sp needed
	ldr	pc, [sp], #4
	.cfi_endproc
.LFE3902:
	.size	_ZN4_STL13basic_ostreamIcNS_11char_traitsIcEEED2Ev, .-_ZN4_STL13basic_ostreamIcNS_11char_traitsIcEEED2Ev
	.section	.text._ZN4_STL13basic_ostreamIcNS_11char_traitsIcEEED1Ev,"axG",%progbits,_ZN4_STL13basic_ostreamIcNS_11char_traitsIcEEED1Ev,comdat
	.align	2
	.weak	_ZN4_STL13basic_ostreamIcNS_11char_traitsIcEEED1Ev
	.hidden	_ZN4_STL13basic_ostreamIcNS_11char_traitsIcEEED1Ev
	.type	_ZN4_STL13basic_ostreamIcNS_11char_traitsIcEEED1Ev, %function
_ZN4_STL13basic_ostreamIcNS_11char_traitsIcEEED1Ev:
.LFB3903:
	.loc 19 68 0 is_stmt 1
	.cfi_startproc
	@ args = 0, pretend = 0, frame = 8
	@ frame_needed = 0, uses_anonymous_args = 0
	str	lr, [sp, #-4]!
.LCFI231:
	.cfi_def_cfa_offset 4
	.cfi_offset 14, -4
	sub	sp, sp, #12
.LCFI232:
	.cfi_def_cfa_offset 16
	str	r0, [sp, #4]
.LBB88:
	.loc 19 68 0
	ldr	r3, .L456
.LPIC142:
	add	r3, pc, r3
	add	r2, r3, #12
	ldr	r3, [sp, #4]
	str	r2, [r3]
	mov	r3, #4
	ldr	r2, [sp, #4]
	add	r3, r2, r3
	ldr	r2, .L456+4
.LPIC143:
	add	r2, pc, r2
	add	r2, r2, #32
	str	r2, [r3]
	mov	r3, #2
	cmp	r3, #0
	beq	.L453
	.loc 19 68 0 is_stmt 0 discriminator 10
	ldr	r3, [sp, #4]
	add	r3, r3, #4
	mov	r0, r3
	bl	_ZN4_STL9basic_iosIcNS_11char_traitsIcEEED2Ev(PLT)
.L453:
.LBE88:
	.loc 19 68 0 discriminator 11
	mov	r3, #0
	cmp	r3, #0
	beq	.L454
	.loc 19 68 0 discriminator 1
	ldr	r0, [sp, #4]
	bl	_ZdlPv(PLT)
.L454:
	.loc 19 68 0 discriminator 2
	ldr	r3, [sp, #4]
	mov	r0, r3
	add	sp, sp, #12
	@ sp needed
	ldr	pc, [sp], #4
.L457:
	.align	2
.L456:
	.word	_ZTVN4_STL13basic_ostreamIcNS_11char_traitsIcEEEE-(.LPIC142+8)
	.word	_ZTVN4_STL13basic_ostreamIcNS_11char_traitsIcEEEE-(.LPIC143+8)
	.cfi_endproc
.LFE3903:
	.size	_ZN4_STL13basic_ostreamIcNS_11char_traitsIcEEED1Ev, .-_ZN4_STL13basic_ostreamIcNS_11char_traitsIcEEED1Ev
	.set	.LTHUNK12,_ZN4_STL13basic_ostreamIcNS_11char_traitsIcEEED1Ev
	.section	.text._ZN4_STL13basic_ostreamIcNS_11char_traitsIcEEED0Ev,"axG",%progbits,_ZN4_STL13basic_ostreamIcNS_11char_traitsIcEEED0Ev,comdat
	.align	2
	.weak	_ZN4_STL13basic_ostreamIcNS_11char_traitsIcEEED0Ev
	.hidden	_ZN4_STL13basic_ostreamIcNS_11char_traitsIcEEED0Ev
	.type	_ZN4_STL13basic_ostreamIcNS_11char_traitsIcEEED0Ev, %function
_ZN4_STL13basic_ostreamIcNS_11char_traitsIcEEED0Ev:
.LFB3904:
	.loc 19 68 0 is_stmt 1
	.cfi_startproc
	@ args = 0, pretend = 0, frame = 8
	@ frame_needed = 0, uses_anonymous_args = 0
	str	lr, [sp, #-4]!
.LCFI233:
	.cfi_def_cfa_offset 4
	.cfi_offset 14, -4
	sub	sp, sp, #12
.LCFI234:
	.cfi_def_cfa_offset 16
	str	r0, [sp, #4]
	.loc 19 68 0
	ldr	r0, [sp, #4]
	bl	_ZN4_STL13basic_ostreamIcNS_11char_traitsIcEEED1Ev(PLT)
	ldr	r0, [sp, #4]
	bl	_ZdlPv(PLT)
	ldr	r3, [sp, #4]
	mov	r0, r3
	add	sp, sp, #12
	@ sp needed
	ldr	pc, [sp], #4
	.cfi_endproc
.LFE3904:
	.size	_ZN4_STL13basic_ostreamIcNS_11char_traitsIcEEED0Ev, .-_ZN4_STL13basic_ostreamIcNS_11char_traitsIcEEED0Ev
	.set	.LTHUNK13,_ZN4_STL13basic_ostreamIcNS_11char_traitsIcEEED0Ev
	.section	.text._ZN4_STL15basic_streambufIcNS_11char_traitsIcEEEC2Ev,"axG",%progbits,_ZN4_STL15basic_streambufIcNS_11char_traitsIcEEEC5Ev,comdat
	.align	2
	.weak	_ZN4_STL15basic_streambufIcNS_11char_traitsIcEEEC2Ev
	.hidden	_ZN4_STL15basic_streambufIcNS_11char_traitsIcEEEC2Ev
	.type	_ZN4_STL15basic_streambufIcNS_11char_traitsIcEEEC2Ev, %function
_ZN4_STL15basic_streambufIcNS_11char_traitsIcEEEC2Ev:
.LFB3906:
	.file 29 "c:/marmalade/7.5/s3e/h/std/c++/stl/_streambuf.c"
	.loc 29 32 0
	.cfi_startproc
	@ args = 0, pretend = 0, frame = 8
	@ frame_needed = 0, uses_anonymous_args = 0
	str	lr, [sp, #-4]!
.LCFI235:
	.cfi_def_cfa_offset 4
	.cfi_offset 14, -4
	sub	sp, sp, #12
.LCFI236:
	.cfi_def_cfa_offset 16
	str	r0, [sp, #4]
.LBB89:
	.loc 29 35 0
	ldr	r3, [sp, #4]
	ldr	r2, .L464
.LPIC144:
	add	r2, pc, r2
	add	r2, r2, #8
	str	r2, [r3]
	ldr	r3, [sp, #4]
	mov	r2, #0
	str	r2, [r3, #4]
	ldr	r3, [sp, #4]
	mov	r2, #0
	str	r2, [r3, #8]
	ldr	r3, [sp, #4]
	mov	r2, #0
	str	r2, [r3, #12]
	ldr	r3, [sp, #4]
	mov	r2, #0
	str	r2, [r3, #16]
	ldr	r3, [sp, #4]
	mov	r2, #0
	str	r2, [r3, #20]
	ldr	r3, [sp, #4]
	mov	r2, #0
	str	r2, [r3, #24]
	ldr	r3, [sp, #4]
	add	r3, r3, #28
	mov	r0, r3
	bl	_ZN4_STL6localeC1Ev(PLT)
	ldr	r3, [sp, #4]
	add	r3, r3, #32
	mov	r0, r3
	bl	_ZN4_STL11_STLP_mutexC1Ev(PLT)
.LBE89:
	.loc 29 38 0
	ldr	r3, [sp, #4]
	mov	r0, r3
	add	sp, sp, #12
	@ sp needed
	ldr	pc, [sp], #4
.L465:
	.align	2
.L464:
	.word	_ZTVN4_STL15basic_streambufIcNS_11char_traitsIcEEEE-(.LPIC144+8)
	.cfi_endproc
.LFE3906:
	.size	_ZN4_STL15basic_streambufIcNS_11char_traitsIcEEEC2Ev, .-_ZN4_STL15basic_streambufIcNS_11char_traitsIcEEEC2Ev
	.weak	_ZN4_STL15basic_streambufIcNS_11char_traitsIcEEEC1Ev
	.hidden	_ZN4_STL15basic_streambufIcNS_11char_traitsIcEEEC1Ev
	.set	_ZN4_STL15basic_streambufIcNS_11char_traitsIcEEEC1Ev,_ZN4_STL15basic_streambufIcNS_11char_traitsIcEEEC2Ev
	.section	.text._ZN4_STL15basic_streambufIcNS_11char_traitsIcEEED2Ev,"axG",%progbits,_ZN4_STL15basic_streambufIcNS_11char_traitsIcEEED5Ev,comdat
	.align	2
	.weak	_ZN4_STL15basic_streambufIcNS_11char_traitsIcEEED2Ev
	.hidden	_ZN4_STL15basic_streambufIcNS_11char_traitsIcEEED2Ev
	.type	_ZN4_STL15basic_streambufIcNS_11char_traitsIcEEED2Ev, %function
_ZN4_STL15basic_streambufIcNS_11char_traitsIcEEED2Ev:
.LFB3909:
	.loc 29 41 0
	.cfi_startproc
	@ args = 0, pretend = 0, frame = 8
	@ frame_needed = 0, uses_anonymous_args = 0
	str	lr, [sp, #-4]!
.LCFI237:
	.cfi_def_cfa_offset 4
	.cfi_offset 14, -4
	sub	sp, sp, #12
.LCFI238:
	.cfi_def_cfa_offset 16
	str	r0, [sp, #4]
.LBB90:
	.loc 29 42 0
	ldr	r3, [sp, #4]
	ldr	r2, .L470
.LPIC145:
	add	r2, pc, r2
	add	r2, r2, #8
	str	r2, [r3]
	ldr	r3, [sp, #4]
	add	r3, r3, #32
	mov	r0, r3
	bl	_ZN4_STL11_STLP_mutexD1Ev(PLT)
	ldr	r3, [sp, #4]
	add	r3, r3, #28
	mov	r0, r3
	bl	_ZN4_STL6localeD1Ev(PLT)
.LBE90:
	mov	r3, #0
	cmp	r3, #0
	beq	.L468
	.loc 29 42 0 is_stmt 0 discriminator 1
	ldr	r0, [sp, #4]
	bl	_ZdlPv(PLT)
.L468:
	.loc 29 42 0 discriminator 2
	ldr	r3, [sp, #4]
	mov	r0, r3
	add	sp, sp, #12
	@ sp needed
	ldr	pc, [sp], #4
.L471:
	.align	2
.L470:
	.word	_ZTVN4_STL15basic_streambufIcNS_11char_traitsIcEEEE-(.LPIC145+8)
	.cfi_endproc
.LFE3909:
	.size	_ZN4_STL15basic_streambufIcNS_11char_traitsIcEEED2Ev, .-_ZN4_STL15basic_streambufIcNS_11char_traitsIcEEED2Ev
	.weak	_ZN4_STL15basic_streambufIcNS_11char_traitsIcEEED1Ev
	.hidden	_ZN4_STL15basic_streambufIcNS_11char_traitsIcEEED1Ev
	.set	_ZN4_STL15basic_streambufIcNS_11char_traitsIcEEED1Ev,_ZN4_STL15basic_streambufIcNS_11char_traitsIcEEED2Ev
