((dp0
S'arm_dbg_args'
p1
S'-via:"d:\\School\\cs115\\AmazingMaze\\build_amazingmaze_vc12\\AmazingMaze_vc12_arm_debug.via" -qemu'
p2
sS'game-icf'
p3
S''
p4
sS'dist'
p5
NsS'csproj'
p6
g4
sS'module_path_append'
p7
NsS'global_path'
p8
S'd:\\school\\cs115'
p9
sS'system_path'
p10
S'c:\\marmalade\\7.5\\s3e\\makefile_builder'
p11
sS'android_x86_dbg_args'
p12
S'../../tools/DeployTool/DeployTool.exe --dir "d:\\School\\cs115\\AmazingMaze\\build_amazingmaze_vc12"'
p13
sS'aarch64-arch-mod'
p14
g4
sS'no-emit'
p15
NsS'arm-float-abi'
p16
g4
sS'arm_rel_rtsm_args'
p17
S'-via:"d:\\School\\cs115\\AmazingMaze\\build_amazingmaze_vc12\\AmazingMaze_vc12_arm_release.via" -qemu'
p18
sS'amd64'
p19
NsS'line-width'
p20
I80
sS'gcc_dbg_args'
p21
S'-via:"d:\\School\\cs115\\AmazingMaze\\build_amazingmaze_vc12\\AmazingMaze_vc12_gcc_debug.via" -qemu'
p22
sS'android-x86'
p23
NsS'x86_dbg_exe'
p24
S'c:/marmalade/7.5/s3e\\win32\\s3e_simulator_debug.exe'
p25
sS'disable-runtime-checks'
p26
NsS'release'
p27
NsS'no-make'
p28
NsS'xcode-x86-build-settings'
p29
g4
sS'optimise-size'
p30
NsS'fat'
p31
NsS'output-name-debug'
p32
g4
sS'arm-fpu'
p33
g4
sS'proj_name'
p34
S'AmazingMaze_vc12'
p35
sS'rvct-version'
p36
S'none'
p37
sS'compiler'
p38
g4
sS'execute'
p39
NsS'compile-static'
p40
NsS'msvc-project'
p41
I01
sS'buildenv'
p42
S'VC12'
p43
sS'quick'
p44
NsS'module_path'
p45
NsS'mkf_default'
p46
S's3e-default.mkf'
p47
sS'use-release-std-libs'
p48
NsS'using_perforce'
p49
I00
sS'tizen-x86'
p50
NsS'mips-s3e'
p51
NsS's3e-api-lib-name'
p52
S's3e_api_iwgl'
p53
sS'ios-no-pic'
p54
NsS'shared-arm-lib'
p55
NsS'arm-cpu'
p56
g4
sS'compile-thumb'
p57
NsS'no-ide'
p58
NsS'msvc-version'
p59
S'6.0'
p60
sS'arm'
p61
NsS'builddir'
p62
g4
sS'compile-debug-as-release'
p63
I0
sS'arm-arch'
p64
g4
sS'brief'
p65
NsS'dll'
p66
NsS'buildenv-toolset'
p67
g4
sS'version'
p68
NsS'aarch64-arch'
p69
g4
sS'ccache'
p70
I0
sS'offline'
p71
NsS'ios-version'
p72
g4
sS'hub_data'
p73
g4
sS'fake_vc_call'
p74
I01
sS'jobs'
p75
I0
sS'linkflags'
p76
NsS'gcc_aarch64_dbg_args'
p77
g13
sS'debug'
p78
NsS'xcode-build-order'
p79
g4
sS'gcc_aarch64_rel_rtsm_args'
p80
S'-via:"d:\\School\\cs115\\AmazingMaze\\build_amazingmaze_vc12\\AmazingMaze_vc12_gcc_aarch64_release.via" -qemu'
p81
sS'gcc_rel_rtsm_args'
p82
S'-via:"d:\\School\\cs115\\AmazingMaze\\build_amazingmaze_vc12\\AmazingMaze_vc12_gcc_release.via" -qemu'
p83
sS'done_defaults'
p84
I1
sS'path'
p85
NsS's3e-data-dir'
p86
S'd:/School/cs115/AmazingMaze\\data'
p87
sS'enable-exceptions'
p88
NsS'osx-dll'
p89
NsS'extension'
p90
g4
sS'no-vc6'
p91
NsS'no-strip'
p92
NsS'win32-console'
p93
NsS'dist-format'
p94
g4
sS's3e-force-arch'
p95
NsS'dump_defines'
p96
NsS'use-shared-std-libs'
p97
NsS'gcc-version'
p98
g4
sS'x86_dbg_args'
p99
S'-via:"d:\\School\\cs115\\AmazingMaze\\build_amazingmaze_vc12\\AmazingMaze_vc12_debug.via"'
p100
sS'tizen_x86_dbg_args'
p101
g13
sS'arm-debugger'
p102
g4
sS'use_temp_extension'
p103
NsS'verbose'
p104
I0
sS'log'
p105
NsS'aarch64'
p106
NsS'rebuild'
p107
NsS'mips_dbg_args'
p108
g13
sS'win32-simulator-dll'
p109
NsS'strict'
p110
NsS'xcode-aarch64-build-settings'
p111
g4
sS'enable-global-path'
p112
NsS'gcc_aarch64_rel_args'
p113
g13
sS'cflags'
p114
NsS'dist-dir'
p115
g4
sS'xcode-arm-build-settings'
p116
g4
sS'jflags'
p117
NsS'csprojSDKRefs'
p118
g4
sS'tizen_x86_rel_exe'
p119
S'c:\\marmalade\\7.5\\s3e\\makefile_builder\\tool_launcher.exe'
p120
sS'test-assets'
p121
g4
sS'distcc'
p122
NsS'external-compiler'
p123
NsS'no-distcc'
p124
NsS'preinclude'
p125
NsS'using_sdk'
p126
I01
sS'nologo'
p127
NsS'warn-level'
p128
I2
sS'mips_dbg_exe'
p129
g120
sS'mkb_in'
p130
S'd:/School/cs115/AmazingMaze/AmazingMaze.mkb'
p131
sS'tizen_x86_dbg_exe'
p132
g120
sS'arm_dbg_exe'
p133
S'c:/marmalade/7.5/s3e\\bin\\armdebug.exe'
p134
sS'csprojDLLRef'
p135
NsS'tizen_x86_rel_args'
p136
g13
sS'android_x86_dbg_exe'
p137
g120
sS'test-config'
p138
g4
sS'list-targets'
p139
NsS'arm_rel_exe'
p140
g120
sS'arm_rel_args'
p141
g13
sS'makedeps'
p142
NsS'android_x86_rel_exe'
p143
g120
sS'default-buildenv'
p144
S'vc12'
p145
sS'x86_rel_exe'
p146
g25
sS'preprocess-java'
p147
NsS'mips_rel_args'
p148
g13
sS'defines'
p149
NsS'lib'
p150
NsS'non-interactive'
p151
NsS'global_argv'
p152
(lp153
S'C:\\Marmalade\\7.5\\s3e\\makefile_builder\\mkb.py'
p154
aS'd:/School/cs115/AmazingMaze/AmazingMaze.mkb'
p155
aS'--buildenv=VC12'
p156
aS'--fake-vc-call'
p157
aS'--default-buildenv=vc12'
p158
aS'--msvc-project'
p159
asS'make'
p160
NsS'optimise-speed'
p161
NsS'internal'
p162
NsS'enable-stdinc'
p163
NsS'deploy-only'
p164
NsS'x86'
p165
NsS'deploy'
p166
g4
sS'x86_run_exe'
p167
S'c:/marmalade/7.5/s3e\\win32\\s3e_console.exe'
p168
sS'cxxflags'
p169
NsS'x86_rel_args'
p170
S'-via:"d:\\School\\cs115\\AmazingMaze\\build_amazingmaze_vc12\\AmazingMaze_vc12_release.via"'
p171
sS'gcc_rel_args'
p172
g13
sS'mips'
p173
NsS'xcode-build-settings'
p174
g4
sS'incredibuild'
p175
NsS'strict-compile'
p176
NsS'use-auto-subdirs'
p177
NsS'mips_rel_exe'
p178
g120
sS'android_x86_rel_args'
p179
g13
sS'app-icf'
p180
g4
sS'deployargs'
p181
NsS'iosnativedebug'
p182
NsS'use_prebuilt'
p183
NsS'mkf_in'
p184
(lp185
S'c:\\marmalade\\7.5\\s3e\\s3e-default.mkf'
p186
aS'c:\\marmalade\\7.5\\modules\\iwutil\\iwutil.mkf'
p187
aS'c:\\marmalade\\7.5\\modules\\third_party\\libjpeg\\libjpeg.mkf'
p188
aS'c:\\marmalade\\7.5\\modules\\third_party\\libpng\\libpng.mkf'
p189
aS'c:\\marmalade\\7.5\\modules\\third_party\\zlib\\zlib.mkf'
p190
aS'c:\\marmalade\\7.5\\modules\\iw2dscenegraphcore\\iw2dscenegraphcore.mkf'
p191
aS'c:\\marmalade\\7.5\\modules\\iw2dscenegraph\\iw2dscenegraph.mkf'
p192
aS'c:\\marmalade\\7.5\\modules\\iw2d\\iw2d.mkf'
p193
aS'c:\\marmalade\\7.5\\modules\\iwgx\\iwgx.mkf'
p194
aS'c:\\marmalade\\7.5\\modules\\iwgl\\iwgl.mkf'
p195
aS'c:\\marmalade\\7.5\\modules\\iwgeom\\iwgeom.mkf'
p196
aS'c:\\marmalade\\7.5\\modules\\iwresmanager\\iwresmanager.mkf'
p197
aS'c:\\marmalade\\7.5\\extensions\\pvrtextool\\pvrtextool.mkf'
p198
aS'c:\\marmalade\\7.5\\modules\\iwgxfont\\iwgxfont.mkf'
p199
aS'c:\\marmalade\\7.5\\modules\\third_party\\tiniconv\\tiniconv.mkf'
p200
aS'c:\\marmalade\\7.5\\modules\\iwtween\\iwtween.mkf'
p201
asS'strict-mkb'
p202
NsS'executeargs'
p203
NsS'clean'
p204
NsS'no-asm'
p205
NsS'output-name'
p206
g4
sS'no-modules'
p207
NsS'find_define'
p208
g4
s(dp209
S'c:\\marmalade\\7.5\\s3e\\makefile_builder\\templates\\vc7_suo.pyc'
p210
F1422012890.0
sS'c:\\marmalade\\7.5\\s3e\\makefile_builder\\templates\\ws81_vcxproj.pyc'
p211
F1422012892.0
sS'c:\\marmalade\\7.5\\s3e\\makefile_builder\\plugins\\s3e_ws8.pyc'
p212
F1422012890.0
sS'c:\\marmalade\\7.5\\s3e\\makefile_builder\\templates'
p213
F1422054614.950279
sS'c:\\marmalade\\7.5\\s3e\\makefile_builder\\templates\\qmake.py'
p214
F1422011718.0
sS'c:\\marmalade\\7.5\\s3e\\makefile_builder\\templates\\vc10_user.pyc'
p215
F1422012890.0
sS'c:\\marmalade\\7.5\\s3e\\makefile_builder\\plugins'
p216
F1422055040.2056024
sS'c:\\marmalade\\7.5\\s3e\\makefile_builder\\mkb_main.pyc'
p217
F1422012890.0
sS'c:\\marmalade\\7.5\\s3e\\makefile_builder\\templates\\mips_linker_script'
p218
F1422011718.0
sS'c:\\marmalade\\7.5\\s3e\\makefile_builder\\plugins\\XcodeEmitter.py'
p219
F1422011718.0
sS'c:\\marmalade\\7.5\\s3e\\makefile_builder\\mkb.py'
p220
F1422011718.0
sS'c:\\marmalade\\7.5\\s3e\\makefile_builder\\templates\\ws81_ext_sln.pyc'
p221
F1422012892.0
sS'c:\\marmalade\\7.5\\s3e\\makefile_builder\\templates\\win32_dsp.pyc'
p222
F1422012890.0
sS'c:\\marmalade\\7.5\\s3e\\makefile_builder\\templates\\ws8_csproj.pyc'
p223
F1422012892.0
sS'c:\\marmalade\\7.5\\s3e\\makefile_builder\\deployment.pyc'
p224
F1422012890.0
sS'c:\\marmalade\\7.5\\s3e\\makefile_builder\\plugins\\win32_vc6.pyc'
p225
F1422012890.0
sS'c:\\marmalade\\7.5\\s3e\\makefile_builder\\plugins\\osx_xcode.pyc'
p226
F1422012890.0
sS'c:\\marmalade\\7.5\\s3e\\makefile_builder\\plugins\\null.pyc'
p227
F1422012890.0
sS'c:\\marmalade\\7.5\\s3e\\makefile_builder\\templates\\wp81_csproj.pyc'
p228
F1422012892.0
sS'c:\\marmalade\\7.5\\s3e\\makefile_builder\\templates\\qmake_user.py'
p229
F1422011718.0
sS'c:\\marmalade\\7.5\\s3e\\makefile_builder\\templates\\vc6_opt.pyc'
p230
F1422012890.0
sS'c:\\marmalade\\7.5\\s3e\\makefile_builder\\plugins\\vc7_utils.pyc'
p231
F1422012890.0
sS'c:\\marmalade\\7.5\\s3e\\makefile_builder\\templates\\wp81_vcxproj.pyc'
p232
F1422012892.0
sS'c:\\marmalade\\7.5\\s3e\\makefile_builder\\templates\\win32_vcxproj.pyc'
p233
F1422012890.0
sS'c:\\marmalade\\7.5\\s3e\\makefile_builder\\templates\\ws8_ext_sln.pyc'
p234
F1422012892.0
sS'c:\\marmalade\\7.5\\s3e\\makefile_builder\\templates\\ws8_ext_csproj.pyc'
p235
F1422012892.0
sS'c:\\marmalade\\7.5\\s3e\\makefile_builder\\templates\\wp8_ext_csproj.pyc'
p236
F1422012892.0
sS'c:\\marmalade\\7.5\\s3e\\makefile_builder\\plugins\\s3e_wp8.pyc'
p237
F1422012890.0
sS'c:\\marmalade\\7.5\\s3e\\makefile_builder\\templates\\ws81_csproj.pyc'
p238
F1422012892.0
sS'c:\\marmalade\\7.5\\s3e\\makefile_builder\\docs\\deprecated.options.txt'
p239
F1422011718.0
sS'c:\\marmalade\\7.5\\s3e\\makefile_builder\\plugins\\s3e_make.pyc'
p240
F1422012890.0
sS'c:\\marmalade\\7.5\\s3e\\makefile_builder\\templates\\win8_ext_csproj.pyc'
p241
F1422012892.0
sS'c:\\marmalade\\7.5\\s3e\\makefile_builder\\mkb_parser.pyc'
p242
F1422012890.0
sS'c:\\marmalade\\7.5\\s3e\\makefile_builder\\plugins\\s3e_web.pyc'
p243
F1422012890.0
sS'c:\\marmalade\\7.5\\s3e\\makefile_builder\\docs\\mkb.defines.txt'
p244
F1422011718.0
sS'c:\\marmalade\\7.5\\s3e\\makefile_builder\\plugins\\osx_scons.pyc'
p245
F1422012890.0
sS'c:\\marmalade\\7.5\\s3e\\makefile_builder\\plugins\\ws81_ws81.pyc'
p246
F1422012890.0
sS'c:\\marmalade\\7.5\\s3e\\makefile_builder\\plugins\\s3e_qmake.py'
p247
F1422011718.0
sS'c:\\marmalade\\7.5\\s3e\\makefile_builder\\templates\\win8_csproj.pyc'
p248
F1422012892.0
sS'c:\\marmalade\\7.5\\s3e\\makefile_builder\\plugins\\s3e_vc6.pyc'
p249
F1422012890.0
sS'c:\\marmalade\\7.5\\s3e\\makefile_builder\\plugins\\wp81_wp81.pyc'
p250
F1422012890.0
sS'c:\\marmalade\\7.5\\s3e\\makefile_builder\\templates\\wp81_csproj_user.pyc'
p251
F1422012892.0
sS'c:\\marmalade\\7.5\\s3e\\makefile_builder\\templates\\win32_dsw.pyc'
p252
F1422012890.0
sS'c:\\marmalade\\7.5\\s3e\\makefile_builder\\templates\\xcode4.xcscheme'
p253
F1422011718.0
sS'c:\\marmalade\\7.5\\s3e\\makefile_builder\\templates\\template.opt'
p254
F1422011718.0
sS'c:\\marmalade\\7.5\\s3e\\makefile_builder\\templates\\template.suo'
p255
F1422011718.0
sS'c:\\marmalade\\7.5\\s3e\\makefile_builder\\templates\\linker_script'
p256
F1422011718.0
sS'c:\\marmalade\\7.5\\s3e\\makefile_builder\\templates\\gdb_start.txt'
p257
F1422011718.0
sS'c:\\marmalade\\7.5\\s3e\\makefile_builder\\mkb_launcher.exe'
p258
F1422012030.0
sS'c:\\marmalade\\7.5\\s3e\\makefile_builder\\templates\\scons.pyc'
p259
F1422012890.0
sS'c:\\marmalade\\7.5\\s3e\\makefile_builder\\docs\\parse_options.pyc'
p260
F1422012892.0
sS'c:\\marmalade\\7.5\\s3e\\makefile_builder\\templates\\xcode4_arm.xcscheme'
p261
F1422011718.0
sS'c:\\marmalade\\7.5\\s3e\\makefile_builder\\plugins\\VisualStudioEmitter.pyc'
p262
F1422012890.0
sS'c:\\marmalade\\7.5\\s3e\\makefile_builder\\plugins\\s3e_xcode.pyc'
p263
F1422055040.2056024
sS'c:\\marmalade\\7.5\\s3e\\makefile_builder\\plugins\\Emitter.pyc'
p264
F1422012890.0
sS'c:\\marmalade\\7.5\\s3e\\makefile_builder\\templates\\ws8_sln.pyc'
p265
F1422012892.0
sS'c:\\marmalade\\7.5\\s3e\\makefile_builder\\tool_launcher.exe'
p266
F1422012030.0
sS'c:\\marmalade\\7.5\\s3e\\makefile_builder\\templates\\wp8_sln.pyc'
p267
F1422012892.0
sS'c:\\marmalade\\7.5\\s3e\\makefile_builder\\mkb_upstream.pyc'
p268
F1422012890.0
sS'c:\\marmalade\\7.5\\s3e\\makefile_builder\\templates\\ws81_csproj_user.pyc'
p269
F1422012892.0
sS'c:\\marmalade\\7.5\\s3e\\makefile_builder\\templates\\win32_sln.pyc'
p270
F1422012890.0
sS'c:\\marmalade\\7.5\\s3e\\makefile_builder\\templates\\xcode4_DeployTool.xcscheme'
p271
F1422011718.0
sS'c:\\marmalade\\7.5\\s3e\\makefile_builder\\plugins\\deploy.pyc'
p272
F1422012890.0
sS'c:\\marmalade\\7.5\\s3e\\makefile_builder\\plugins\\s3e_win8.pyc'
p273
F1422012890.0
sS'c:\\marmalade\\7.5\\s3e\\makefile_builder\\plugins\\iphone.pyc'
p274
F1422012890.0
sS'c:\\marmalade\\7.5\\s3e\\makefile_builder\\plugins\\Win8Emitter.pyc'
p275
F1422012890.0
sS'c:\\marmalade\\7.5\\s3e\\makefile_builder\\plugins\\s3e_qmake.pyc'
p276
F1422055040.1706004
sS'c:\\marmalade\\7.5\\s3e\\makefile_builder\\docs'
p277
F1422054614.9632797
sS'c:\\marmalade\\7.5\\s3e\\makefile_builder\\mkb_globals.pyc'
p278
F1422012890.0
sS'c:\\marmalade\\7.5\\s3e\\makefile_builder\\plugins\\win8_utils.pyc'
p279
F1422012890.0
sS'c:\\marmalade\\7.5\\s3e\\makefile_builder\\plugins\\xcode4_schememanagement.py'
p280
F1422011718.0
sS'c:\\marmalade\\7.5\\s3e\\makefile_builder\\templates\\wp81_ext_sln.pyc'
p281
F1422012892.0
sS'c:\\marmalade\\7.5\\s3e\\makefile_builder\\templates\\make.py'
p282
F1422011718.0
sS'c:\\marmalade\\7.5\\s3e\\makefile_builder\\templates\\ws81_ext_csproj.pyc'
p283
F1422012892.0
sS'c:\\marmalade\\7.5\\s3e\\makefile_builder\\plugins\\s3e_xcode.py'
p284
F1422011718.0
sS'c:\\marmalade\\7.5\\s3e\\makefile_builder\\plugins\\XcodeEmitter.pyc'
p285
F1422055040.1075966
sS'c:\\marmalade\\7.5\\s3e\\makefile_builder\\docs\\deployment_options.txt'
p286
F1422011718.0
sS'c:\\marmalade\\7.5\\s3e\\makefile_builder\\templates\\win8_sln.pyc'
p287
F1422012892.0
sS'c:\\marmalade\\7.5\\s3e\\makefile_builder\\plugins\\java.pyc'
p288
F1422012890.0
sS'c:\\marmalade\\7.5\\s3e\\makefile_builder\\plugins\\xcode4_schememanagement.pyc'
p289
F1422055040.1115968
sS'c:\\marmalade\\7.5\\s3e\\makefile_builder\\plugins\\SConsEmitter.pyc'
p290
F1422012890.0
sS'c:\\marmalade\\7.5\\s3e\\makefile_builder\\templates\\win32_vcproj.pyc'
p291
F1422012890.0
sS'c:\\marmalade\\7.5\\s3e\\makefile_builder\\plugins\\wp8_wp8.pyc'
p292
F1422012890.0
sS'c:\\marmalade\\7.5\\s3e\\makefile_builder\\templates\\MainWindow.xib'
p293
F1422011718.0
sS'c:\\marmalade\\7.5\\s3e\\makefile_builder\\mkb_util.pyc'
p294
F1422012890.0
sS'c:\\marmalade\\7.5\\s3e\\makefile_builder\\templates\\vc8_user.pyc'
p295
F1422012890.0
sS'c:\\marmalade\\7.5\\s3e\\makefile_builder\\templates\\Info.plist'
p296
F1422011718.0
sS'c:\\marmalade\\7.5\\s3e\\makefile_builder\\templates\\wp8_csproj_user.pyc'
p297
F1422012892.0
sS'c:\\marmalade\\7.5\\s3e\\makefile_builder\\docs\\deprecated.defines.txt'
p298
F1422011718.0
sS'c:\\marmalade\\7.5\\s3e\\makefile_builder\\templates\\ws8_csproj_user.pyc'
p299
F1422012892.0
sS'c:\\marmalade\\7.5\\s3e\\makefile_builder\\plugins\\S3EEmitter.pyc'
p300
F1422012890.0
sS'c:\\marmalade\\7.5\\s3e\\makefile_builder\\templates\\rvct_linker_script'
p301
F1422011718.0
sS'c:\\marmalade\\7.5\\s3e\\makefile_builder\\templates\\xcode_pbxuser.py'
p302
F1422011718.0
sS'c:\\marmalade\\7.5\\s3e\\makefile_builder\\docs\\options.txt'
p303
F1422011718.0
sS'c:\\marmalade\\7.5\\s3e\\makefile_builder\\templates\\wp81_sln.pyc'
p304
F1422012892.0
sS'c:\\marmalade\\7.5\\s3e\\makefile_builder\\templates\\ws81_sln.pyc'
p305
F1422012892.0
sS'c:\\marmalade\\7.5\\s3e\\makefile_builder\\plugins\\vc6_utils.pyc'
p306
F1422012890.0
sS'c:\\marmalade\\7.5\\s3e\\makefile_builder\\templates\\wp81_ext_csproj.pyc'
p307
F1422012892.0
sS'c:\\marmalade\\7.5\\s3e\\makefile_builder\\plugins\\s3e_wp81.pyc'
p308
F1422012890.0
sS'c:\\marmalade\\7.5\\s3e\\makefile_builder\\templates\\aarch64_linker_script'
p309
F1422011718.0
sS'c:\\marmalade\\7.5\\s3e\\makefile_builder\\templates\\ws8_vcxproj.pyc'
p310
F1422012892.0
sS'c:\\marmalade\\7.5\\s3e\\makefile_builder\\plugins\\MakeEmitter.pyc'
p311
F1422012890.0
sS'c:\\marmalade\\7.5\\s3e\\makefile_builder\\templates\\win32_vcxproj_filters.pyc'
p312
F1422012890.0
sS'c:\\marmalade\\7.5\\s3e\\makefile_builder\\templates\\xcode.py'
p313
F1422011718.0
sS'c:\\marmalade\\7.5\\s3e\\makefile_builder\\plugins\\s3e_ws81.pyc'
p314
F1422012890.0
sS'c:\\marmalade\\7.5\\s3e\\makefile_builder\\plugins\\linux_scons.pyc'
p315
F1422012890.0
sS'c:\\marmalade\\7.5\\s3e\\makefile_builder\\templates\\win8_vcxproj.pyc'
p316
F1422012892.0
sS'c:\\marmalade\\7.5\\s3e\\makefile_builder\\plugins\\s3e_scons.pyc'
p317
F1422012890.0
sS'c:\\marmalade\\7.5\\s3e\\makefile_builder\\templates\\wp8_csproj.pyc'
p318
F1422012892.0
sS'c:\\marmalade\\7.5\\s3e\\makefile_builder\\templates\\win8_csproj_user.pyc'
p319
F1422012892.0
sS'c:\\marmalade\\7.5\\s3e\\makefile_builder\\plugins\\ws8_ws8.pyc'
p320
F1422012890.0
sS'c:\\marmalade\\7.5\\s3e\\makefile_builder\\templates\\wp8_vcxproj.pyc'
p321
F1422012892.0
sS'c:\\marmalade\\7.5\\s3e\\makefile_builder\\mkb_option.pyc'
p322
F1422012890.0
sccopy_reg
_reconstructor
p323
(cmkb_main
MkbFile
p324
c__builtin__
object
p325
Ntp326
Rp327
(dp328
g5
(lp329
sS'target_name'
p330
S'AmazingMaze'
p331
sS'current_file'
p332
g131
sS'package_path'
p333
(lp334
sS'post_build'
p335
(lp336
(lp337
S'c:/marmalade/7.5/s3e/tools'
p338
aS'C:\\Marmalade\\7.5\\s3e\\python\\python.exe .\\process_map.py "$(TargetPath)"'
p339
aa(S'c:\\marmalade\\7.5\\s3e\\bin'
p340
S'"s3e_plink" -l "$(TargetPath)" '
p341
g165
tp342
asS'librarys'
p343
(lp344
g323
(cmkb_main
Library
p345
g325
Ntp346
Rp347
(dp348
S'name'
p349
S'vc6_compat.lib'
p350
sS'expand_name'
p351
I00
sS'include_spec_rvct_objs'
p352
(lp353
sS'include_all_objs'
p354
I00
sS'share_arm'
p355
I00
sS'arch'
p356
S'x86'
p357
sS'nodebug'
p358
I00
sg38
Nsbag323
(g345
g325
Ntp359
Rp360
(dp361
g349
S'iwutil'
p362
sg351
I01
sg352
(lp363
sg354
Nsg355
Nsg356
Nsg358
I00
sg38
Nsbag323
(g345
g325
Ntp364
Rp365
(dp366
g349
S'jpeg'
p367
sg351
I01
sg352
g363
sg354
Nsg355
Nsg356
Nsg358
I00
sg38
Nsbag323
(g345
g325
Ntp368
Rp369
(dp370
g349
S'z'
p371
sg351
I01
sg352
g363
sg354
Nsg355
Nsg356
Nsg358
I00
sg38
Nsbag323
(g345
g325
Ntp372
Rp373
(dp374
g349
S'png'
p375
sg351
I01
sg352
g363
sg354
Nsg355
Nsg356
Nsg358
I00
sg38
Nsbag323
(g345
g325
Ntp376
Rp377
(dp378
g349
S'iw2d'
p379
sg351
I01
sg352
g363
sg354
Nsg355
Nsg356
Nsg358
I00
sg38
Nsbag323
(g345
g325
Ntp380
Rp381
(dp382
g349
S'ATI_Compress_MT_VC7.lib'
p383
sg351
I00
sg352
g363
sg354
Nsg355
Nsg356
S'x86'
p384
sg358
I00
sg38
Nsbag323
(g345
g325
Ntp385
Rp386
(dp387
g349
S'iwgx'
p388
sg351
I01
sg352
g363
sg354
Nsg355
Nsg356
Nsg358
I00
sg38
Nsbag323
(g345
g325
Ntp389
Rp390
(dp391
g349
S'iwgl'
p392
sg351
I01
sg352
g363
sg354
Nsg355
Nsg356
Nsg358
I00
sg38
Nsbag323
(g345
g325
Ntp393
Rp394
(dp395
g349
S'iwgeom'
p396
sg351
I01
sg352
g363
sg354
Nsg355
Nsg356
Nsg358
I00
sg38
Nsbag323
(g345
g325
Ntp397
Rp398
(dp399
g349
S'iwresmanager'
p400
sg351
I01
sg352
g363
sg354
Nsg355
Nsg356
Nsg358
I00
sg38
Nsbag323
(g345
g325
Ntp401
Rp402
(dp403
g349
S'iwgxfont'
p404
sg351
I01
sg352
g363
sg354
Nsg355
Nsg356
Nsg358
I00
sg38
Nsbag323
(g345
g325
Ntp405
Rp406
(dp407
g349
S'tiniconv'
p408
sg351
I01
sg352
g363
sg354
Nsg355
Nsg356
Nsg358
I00
sg38
Nsbag323
(g345
g325
Ntp409
Rp410
(dp411
g349
S's3e_cpp'
p412
sg351
I01
sg352
g353
sg354
I00
sg355
I00
sg356
Nsg358
I00
sg38
Nsbag323
(g345
g325
Ntp413
Rp414
(dp415
g349
S's3e'
p416
sg351
I01
sg352
(lp417
S'iwcrt.o'
p418
asg354
I00
sg355
I00
sg356
Nsg358
I00
sg38
Nsbag323
(g345
g325
Ntp419
Rp420
(dp421
g349
g53
sg351
I01
sg352
g353
sg354
I00
sg355
I00
sg356
S'x86'
p422
sg358
I01
sg38
Nsbag323
(g345
g325
Ntp423
Rp424
(dp425
g349
g53
sg351
I01
sg352
g353
sg354
I00
sg355
I00
sg356
S'!x86'
p426
sg358
I01
sg38
Nsbag323
(g345
g325
Ntp427
Rp428
(dp429
g349
S'stdc++'
p430
sg351
I00
sg352
g353
sg354
I00
sg355
I00
sg356
S'mips'
p431
sg358
I00
sg38
Nsbag323
(g345
g325
Ntp432
Rp433
(dp434
g349
S'c'
p435
sg351
I00
sg352
g353
sg354
I00
sg355
I00
sg356
S'mips'
p436
sg358
I00
sg38
Nsbag323
(g345
g325
Ntp437
Rp438
(dp439
g349
S'm'
p440
sg351
I00
sg352
g353
sg354
I00
sg355
I00
sg356
S'mips'
p441
sg358
I00
sg38
Nsbag323
(g345
g325
Ntp442
Rp443
(dp444
g349
S'gcc'
p445
sg351
I00
sg352
g353
sg354
I00
sg355
I00
sg356
S'mips'
p446
sg358
I00
sg38
Nsbag323
(g345
g325
Ntp447
Rp448
(dp449
g349
S'stdc++'
p450
sg351
I00
sg352
g353
sg354
I00
sg355
I00
sg356
S'gcc_x86_android'
p451
sg358
I00
sg38
Nsbag323
(g345
g325
Ntp452
Rp453
(dp454
g349
g435
sg351
I00
sg352
g353
sg354
I00
sg355
I00
sg356
S'gcc_x86_android'
p455
sg358
I00
sg38
Nsbag323
(g345
g325
Ntp456
Rp457
(dp458
g349
g440
sg351
I00
sg352
g353
sg354
I00
sg355
I00
sg356
S'gcc_x86_android'
p459
sg358
I00
sg38
Nsbag323
(g345
g325
Ntp460
Rp461
(dp462
g349
g445
sg351
I00
sg352
g353
sg354
I00
sg355
I00
sg356
S'gcc_x86_android'
p463
sg358
I00
sg38
NsbasS'library_paths'
p464
(lp465
g323
(cmkb_main
LibraryPath
p466
g325
Ntp467
Rp468
(dp469
S'expand_path'
p470
I01
sg349
S'c:/marmalade/7.5/modules/iwutil'
p471
sbag323
(g466
g325
Ntp472
Rp473
(dp474
g470
I01
sg349
S'c:/marmalade/7.5/modules/third_party/libjpeg'
p475
sbag323
(g466
g325
Ntp476
Rp477
(dp478
g470
I01
sg349
S'c:/marmalade/7.5/modules/third_party/zlib'
p479
sbag323
(g466
g325
Ntp480
Rp481
(dp482
g470
I01
sg349
S'c:/marmalade/7.5/modules/third_party/libpng'
p483
sbag323
(g466
g325
Ntp484
Rp485
(dp486
g470
I01
sg349
S'c:/marmalade/7.5/modules/iw2d'
p487
sbag323
(g466
g325
Ntp488
Rp489
(dp490
g470
I00
sg349
S'c:/marmalade/7.5/modules/iwgx/atitools'
p491
sbag323
(g466
g325
Ntp492
Rp493
(dp494
g470
I01
sg349
S'c:/marmalade/7.5/modules/iwgx'
p495
sbag323
(g466
g325
Ntp496
Rp497
(dp498
g470
I01
sg349
S'c:/marmalade/7.5/modules/iwgl'
p499
sbag323
(g466
g325
Ntp500
Rp501
(dp502
g470
I01
sg349
S'c:/marmalade/7.5/modules/iwgeom'
p503
sbag323
(g466
g325
Ntp504
Rp505
(dp506
g470
I01
sg349
S'c:/marmalade/7.5/modules/iwresmanager'
p507
sbag323
(g466
g325
Ntp508
Rp509
(dp510
g470
I01
sg349
S'c:/marmalade/7.5/modules/iwgxfont'
p511
sbag323
(g466
g325
Ntp512
Rp513
(dp514
g470
I01
sg349
S'c:/marmalade/7.5/modules/third_party/tiniconv'
p515
sbag323
(g466
g325
Ntp516
Rp517
(dp518
g470
I01
sg349
S'c:/marmalade/7.5/s3e'
p519
sbasS'macros'
p520
(dp521
S'IW_USE_CALLSTACK'
p522
NsS'IW_MKF_IWGEOM'
p523
NsS'I3D_PLATFORM_S3E'
p524
NsS'IW_MKF_IW2DSCENEGRAPHCORE'
p525
NsS'IW_MKF_LIBJPEG'
p526
NsS'I3D_OS_S3E'
p527
NsS'IW_MKF_PVRTEXTOOL'
p528
NsS'IW_MKF_TINICONV'
p529
NsS'IW_APP_VERSION'
p530
S'"1.0"'
p531
sS'__S3E__'
p532
NsS'IW_MKF_IWRESMANAGER'
p533
NsS'IW_MKF_IWUTIL'
p534
NsS'IW_PLATFORM_S3E'
p535
NsS'IW_ASSERTION_CHANNEL_2D'
p536
S'1'
p537
sS'IW_APP_NAME'
p538
S'"AmazingMaze"'
p539
sS'IW_MKF_S3E_DEFAULT'
p540
NsS'IW_MKF_IWGXFONT'
p541
NsS'IW_MKF_IWTWEEN'
p542
NsS'IW_MKF_ZLIB'
p543
NsS'IW_MKF_IWGX'
p544
NsS'IW_MKF_IW2DSCENEGRAPH'
p545
NsS'IW_USE_ASSERTIONS'
p546
NsS'_CRT_SECURE_NO_DEPRECATE'
p547
NsS'IW_MKF_IWGL'
p548
NsS'IW_MKF_LIBPNG'
p549
NsS'IW_TRACE_CHANNEL_IW_2DSCENEGRAPH'
p550
g537
sS'IW_DEBUG'
p551
NsS'IW_USE_TRACING'
p552
NsS'IW_ASSERTION_CHANNEL_IW_2DSCENEGRAPH'
p553
g537
sS'IW_TRACE_CHANNEL_PVRTEXTOOL'
p554
g537
sS'IW_SDK'
p555
NsS'S3E_INCLUDE_LEGACY'
p556
NsS'IW_TRACE_CHANNEL_PVRTEXTOOL_VERBOSE'
p557
S'2'
p558
sS'IW_MKF_IW2D'
p559
NsS'IW_ASSERTION_CHANNEL_PVRTEXTOOL'
p560
g537
ssS'done_warnings'
p561
(dp562
sS'subprojects'
p563
(dp564
g199
S'iwgxfont'
p565
sg186
S's3e-default.mkf'
p566
sg191
S'iw2dscenegraphcore'
p567
sg190
S'zlib'
p568
sg197
S'iwresmanager'
p569
sg200
S'tiniconv'
p570
sg188
S'libjpeg'
p571
sg192
S'iw2dscenegraph'
p572
sg189
S'libpng'
p573
sg187
S'iwutil'
p574
sg201
S'iwtween'
p575
sg194
S'iwgx'
p576
sg193
S'iw2d'
p577
sg195
S'iwgl'
p578
sg196
S'iwgeom'
p579
sg198
S'PVRTexTool'
p580
ssS'deployments'
p581
(dp582
S'Default'
p583
g323
(cdeployment
Deployment
p584
g325
Ntp585
Rp586
(dp587
S'got_version'
p588
I0
sS'assets'
p589
g583
sS'mkb'
p590
g327
sS'target'
p591
Nsg356
(lp592
sS'options'
p593
(dp594
S'iphone-link-lib'
p595
(lp596
sS'game-icf'
p597
NsS'android-tm'
p598
NsS'winmobile-icon32'
p599
NsS'ws8-logo-image150x150'
p600
NsS'wp81-logo-image150x150'
p601
NsS'ws81-product-version'
p602
NsS'osx-ext-dll'
p603
(lp604
S'c:/marmalade/7.5/extensions/pvrtextool/lib/osx/libPVRTexTool.dylib'
p605
asS'iphone-provisioning-profile'
p606
NsS'win32-icon'
p607
NsS'ws8-splash-screen-image620x300'
p608
NsS'wp81-extra-pri'
p609
(lp610
sS'ws8-ext-capabilities'
p611
(lp612
sS'android-icon-hdpi'
p613
NsS'iphone-ipad-only'
p614
NsS'iphone-splash-full-orient'
p615
NsS'wp8-tile-fliptemplate-supports-large'
p616
NsS'iphone-show-status-bar'
p617
NsS'roku-requires-mkv'
p618
NsS'long-caption'
p619
NsS'android-pkgname'
p620
NsS'wp81-publisher-display-name'
p621
NsS'blackberry-permissions-read-device-identifying-information'
p622
NsS'ws81-certificate-end-date'
p623
NsS'psp-dlgcontentid'
p624
NsS'iphone-minimum-ios-version'
p625
NsS'target-folder'
p626
NsS'tizen-dist1-CA-path'
p627
NsS'symbian-icon2-format'
p628
NsS'tizen-author-key'
p629
NsS'firefoxos-icon-128X128'
p630
NsS'iphone-region'
p631
NsS'uiq3-icon3-mask'
p632
NsS'brew-encoding'
p633
NsS'android-x86'
p634
NsS'nds-initialcode'
p635
NsS'iphone-persistent-wifi'
p636
NsS'psp-snd0'
p637
NsS'roku-icon-focus-hd'
p638
NsS'osx-appid'
p639
NsS'winmobile-install-folder'
p640
NsS'android-external-res'
p641
(lp642
sS'ws8-product-version'
p643
NsS'brew-priviledges'
p644
NsS'iphone-info-plist-override'
p645
NsS'iphone-icon-ipad'
p646
NsS'iphone-skip-icon-generation'
p647
NsS'roku-hidden'
p648
NsS'psp-titlename'
p649
NsS'wp81-product-version'
p650
NsS'symbian-icon1-mask'
p651
NsS'psp-parentallevel'
p652
NsS'iphone-launch-storyboard'
p653
NsS'splashscreen-use-all'
p654
NsS'wp8-author'
p655
NsS'symbian-disable-ecompxl'
p656
NsS'splashscreen-auto-onblack'
p657
NsS'iphone-icon-dir'
p658
NsS'iphone-icon-extra'
p659
NsS'win32-ext-dll'
p660
(lp661
S'c:/marmalade/7.5/extensions/pvrtextool/lib/win32/PVRTexTool.dll'
p662
asS'iphone-development-key'
p663
NsS'winmobile-icon48'
p664
NsS'android-unsigned'
p665
NsS'osx-appstore-category'
p666
NsS'version-revision'
p667
NsS'roku-icon-focus-sd'
p668
NsS'android-keystore'
p669
NsS'winmobile-png90'
p670
NsS'iphone-icon-ipad-high-res'
p671
NsS'iphone-disable-ipad'
p672
NsS'ws81-splash-screen-background'
p673
NsS'wp8-ext-capabilities'
p674
(lp675
sS'brew-icon-large'
p676
NsS'symbian-icon1-mask-black'
p677
NsS'ws8-extra-res'
p678
(lp679
sS'iphone-bundle-localisations'
p680
NsS'winmobile-png60'
p681
NsS'blackberry-permissions-access-shared'
p682
NsS'blackberry-author'
p683
NsS'android-icon-xxxhdpi'
p684
NsS'olddeploytoolstyle'
p685
NsS'android_icon_gallery'
p686
NsS'wp81-splash-screen-background'
p687
NsS'winmobile-cab-compress'
p688
NsS'iphone-info-plist'
p689
NsS'ws81-ext-managed-dll'
p690
(lp691
sS'playbook-cskpass'
p692
NsS'ws8-distribution-pfx-password'
p693
NsS'symbian-key'
p694
NsS'app-icf'
p695
NsS'blackberry-storepass'
p696
NsS'wp8-tile-fliptemplate-back-title'
p697
NsS'brew-compress-loader'
p698
NsS'win32-pref-windowposy'
p699
NsS'win32-pref-windowposx'
p700
NsS'roku-requires-audiometadata'
p701
NsS'wp8-exclude-low-mem'
p702
NsS'iphone-icon-ipad-search-high-res'
p703
NsS'iphone-link-libdir'
p704
(lp705
sS'wp81-ext-capabilities'
p706
(lp707
sS'blackberry-permissions-read-geolocation'
p708
NsS'ws81-ext-device-capabilities'
p709
(lp710
sS'tizen-signed'
p711
NsS'android-extra-application-manifest'
p712
(lp713
sS'ws8-ext-native-dll'
p714
(lp715
sS'symbian-icon2-mask'
p716
NsS'iphone-launch-extra'
p717
NsS'webos-memory'
p718
NsS'android-keypass'
p719
NsS'name'
p720
NsS'uiq3-icon2-format'
p721
NsS'roku-splash-screen-sd'
p722
NsS'auto-derbh'
p723
NsS'roku-icon-side-sd'
p724
NsS'android-external-assets'
p725
(lp726
sS'nds-publicsavedatasize'
p727
NsS'splashscreen'
p728
NsS'brew-mif'
p729
NsS'iphone-icon-settings-high-res'
p730
NsS'android-manifest'
p731
NsS'ws81-splash-screen-image620x300'
p732
NsS'wp81-product-name'
p733
NsS's3e-compression'
p734
NsS'tizen-author-password'
p735
NsS'wp8-tile-fliptemplate-back-content'
p736
NsS'blackberry-extra-descriptor'
p737
(lp738
sS'symbian-icon1'
p739
NsS'symbian-icon2'
p740
NsS'nds-makercode'
p741
NsS'android-extra-styles-file'
p742
NsS'wp81-publisher-id'
p743
NsS'nds-bannertitle-jp'
p744
NsS'wp81-logo-image44x44'
p745
NsS'osx-sign-for-store'
p746
NsS'symbian7-uid'
p747
NsS'wp8-tile-fliptemplate-large-back-content'
p748
NsS'wp81-phone-publisher-id'
p749
NsS'nds-bannertitle-cn'
p750
NsS'iphone-distribution-key'
p751
NsS'android-icon-gallery'
p752
NsS'blackberry-keystore'
p753
NsS'iphone-nosign'
p754
NsS'caption'
p755
NsS'android-extra-manifest'
p756
(lp757
sS'wp81-ext-sdk-ref'
p758
(lp759
sS'android-icon-xxhdpi'
p760
NsS'version-minor'
p761
NsS'iphone-skip-launch-generation'
p762
NsS'iphone-link-libdirs'
p763
(lp764
sS'iphone-icon-large'
p765
NsS'symbian-keypwd'
p766
NsS'symbian8-uid'
p767
NsS'symbian-cert-key'
p768
NsS'winmobile-ampd-part-number'
p769
NsS'arch'
p770
NsS'nds-romheadertemplate'
p771
NsS'webos-icon'
p772
NsS'wp81-ext-device-capabilities'
p773
(lp774
sS'psp-dlgprotectdocument'
p775
NsS'ws8-splash-screen-background'
p776
NsS'android-icon-mdpi'
p777
NsS'nds-icon'
p778
NsS'ws8-custom-manifest-fill'
p779
NsS'iphone-development-cert'
p780
NsS'and'
p781
NsS'symbian-icon2-mask-black'
p782
NsS'blackberry-phone-icon'
p783
NsS'iphone-enable-4inch-retina'
p784
NsS'ws8-custom-manifest'
p785
NsS'version-major'
p786
NsS'wp8-genre-isgame'
p787
NsS'uiq3-uid'
p788
NsS'iphone-splash-retina-generate'
p789
NsS'tizen-hw-acceleration'
p790
NsS'iphone_bundle_localisations'
p791
NsS'tizen-dist1-key'
p792
NsS'wp81-custom-manifest-fill'
p793
NsS'wp8-custom-manifest'
p794
NsS'nds-bannertitle-ge'
p795
NsS'iphone-sign-for-distribution'
p796
NsS'wp8-tile-fliptemplate-medium-back-image'
p797
NsS'wp8-publisher-id'
p798
NsS'icon'
p799
NsS'wp8-exclude-wxga'
p800
NsS'wp81-identity-name'
p801
NsS'uiq3-icon2-mask'
p802
NsS'iphone-splashscreen-portrait'
p803
NsS'iphone-icon-high-res'
p804
NsS'ws81-distribution-pfx-password'
p805
NsS'playbook-author'
p806
NsS'android-icon-xhdpi'
p807
NsS'linux-ext-lib'
p808
(lp809
sS'blackberry-permissions-access-internet'
p810
NsS'wp8-exclude-720p'
p811
NsS'lgtv-use-drm'
p812
NsS'symbian-platsecflags'
p813
NsS'ws8-description'
p814
NsS'blackberry-playbook-icon'
p815
NsS'copyright'
p816
NsS'win32-gles-directory'
p817
NsS'version'
p818
NsS'iphone-uiviewcontroller-based-status-bar'
p819
NsS'ws81-logo-image150x150'
p820
NsS'osx-signing-identity-app'
p821
NsS'tizen-project-url'
p822
NsS'symbian-icon-svg'
p823
NsS'android-aliasname'
p824
NsS'psp-dlgmanual'
p825
NsS'brew-uid'
p826
NsS'symbian-locationsupport'
p827
NsS'wp81-logo-image50x50'
p828
NsS'ws8-ext-managed-dll'
p829
(lp830
sS'nds-bannertitle-it'
p831
NsS'ws81-custom-manifest-fill'
p832
NsS'ws8-ext-sdk-manifest-part'
p833
(lp834
sS'uiq3-icon1-mask'
p835
NsS'winmobile-icon16'
p836
NsS'ws8-product-name'
p837
NsS'blackberry-cskpass'
p838
NsS'winmobile-start-menu-folder'
p839
NsS'brew-clsid'
p840
NsS'roku-requires-bluetooth'
p841
NsS'ws8-ext-device-capabilities'
p842
(lp843
sS'blackberry-permissions-use-camera'
p844
NsS'ws81-extra-pri'
p845
(lp846
sS'iphone-prerendered-icon'
p847
NsS'iphone-appid'
p848
NsS'ws8-identity-name'
p849
NsS'tizen-dist2-CA-path'
p850
NsS'android-external-jars'
p851
(lp852
sS'winmobile-icon64'
p853
NsS'blackberry-permissions-post-notification'
p854
NsS'winmobile-setup-dll'
p855
NsS'firefoxos-manifest'
p856
NsS'win8-winrt-extra-res'
p857
(lp858
sS'wp81-ext-sdk-manifest-part'
p859
(lp860
sS'symbian9-uid'
p861
NsS'iphone-icon-ipad-ios7'
p862
NsS'winmobile-trace-file'
p863
NsS'roku-splash-color'
p864
NsS'psp-appversion'
p865
NsS'ws8-publisher-id'
p866
NsS'android-supports-gl-texture'
p867
(lp868
sS'winmobile-png45'
p869
NsS'wp81-extra-res'
p870
(lp871
sS'android-storepass'
p872
NsS'osx-signing-identity-inst'
p873
NsS'android-custom-activity'
p874
NsS'psp-discversion'
p875
NsS'wp81-ext-managed-dll'
p876
(lp877
sS'psp-copyright'
p878
NsS'embed-icf'
p879
NsS'tizen-manifest'
p880
NsS'osx-icon'
p881
NsS'webos-appinfo'
p882
NsS'psp-dlghealthwarning'
p883
NsS'webos-appid'
p884
NsS'roku-icon-side-hd'
p885
NsS'iphone-icon-ipad-search-high-res-ios7'
p886
NsS'iphone-extra-plist'
p887
(lp888
sS'ws81-ext-sdk-manifest-part'
p889
(lp890
sS'loader_name_prefix'
p891
NsS'iphone-launch-dir'
p892
NsS'nds-titlename'
p893
NsS'ws81-logo-image50x50'
p894
NsS'wp81-custom-manifest'
p895
NsS'osx-entitlements-plist'
p896
NsS'psp-dlgicon0'
p897
NsS'winmobile-nouninstall'
p898
NsS'psp-discid'
p899
NsS'tizen-dist2-password'
p900
NsS'ws8-ext-sdk-ref'
p901
(lp902
sS'iphone-extra-string'
p903
(lp904
sS'version-string'
p905
NsS'iphone-icon-high-res-ios7'
p906
NsS'blackberry-permissions-record-audio'
p907
NsS'ws8-certificate-end-date'
p908
NsS'tizen-so'
p909
(lp910
sS'wp8-tile-fliptemplate-small-image'
p911
NsS'playbook-authorid'
p912
NsS'iphone-signing-identity'
p913
NsS'roku-persist-quota'
p914
NsS'nds-bannertitle-fr'
p915
NsS'ws8-distribution-pfx'
p916
NsS'ws8-publisher-display-name'
p917
NsS'brew-icon-small'
p918
NsS'psp-dlgpic2'
p919
NsS'psp-dlgpic0'
p920
NsS'psp-pic0'
p921
NsS'psp-pic1'
p922
NsS'win32-pref-windowtitle'
p923
NsS'psp-icon0'
p924
NsS'psp-icon1'
p925
NsS'ws81-identity-name'
p926
NsS'winmobile-icon'
p927
NsS'iphone-no-splash'
p928
NsS'iphone-splash'
p929
NsS'iphone-app-fonts'
p930
NsS'wp8-ext-native-dll'
p931
(lp932
sS'wp81-splash-screen-image480x800'
p933
NsS'ws81-distribution-cer'
p934
NsS'iphone-backgroundmode-audio'
p935
NsS'uiq3-icon2'
p936
NsS'uiq3-icon3'
p937
NsS'uiq3-icon1'
p938
NsS'uiq3-icon1-format'
p939
NsS'ws8-logo-image50x50'
p940
NsS'iphone-icon-ipad-search'
p941
NsS'symbian-run-on-install'
p942
NsS'wp81-description'
p943
NsS'ws81-publisher-display-name'
p944
NsS'firefoxos-xulrunner'
p945
NsS'symbian-soundrecordsupport'
p946
NsS'nds-bannertitle-sp'
p947
NsS'psp-producer'
p948
NsS'iphone-apple-wwdr-cert'
p949
NsS'android-icon-nonstandard'
p950
NsS'win32-pref-processtitle'
p951
NsS'nds-bannertitle-hn'
p952
NsS'tizen-dist2-key'
p953
NsS'brew-depends'
p954
NsS'ws81-custom-manifest'
p955
NsS'iphone-allow-launch-rotation'
p956
NsS'iphone-icon-ipad-search-ios7'
p957
NsS'brew-icon-medium'
p958
NsS'iphone-bundle-url-name'
p959
NsS'wp8-tile-fliptemplate-large-front-image'
p960
NsS'tizen-dist2-CA-root-path'
p961
NsS'ws81-description'
p962
NsS'uiq3-icon3-format'
p963
NsS'ws81-logo-image30x30'
p964
NsS'win8-phone-extra-res'
p965
(lp966
sS'iphone-signing-host'
p967
NsS'tizen-icon'
p968
NsS'osx-info-plist'
p969
NsS'symbian-icon1-format'
p970
NsS'ws81-distribution-pfx'
p971
NsS'blackberry-authorid'
p972
NsS'ws81-publisher-id'
p973
NsS'win8-store-extra-res'
p974
(lp975
sS'wp8-description'
p976
NsS'iphone-link-opts'
p977
(lp978
sS'ws81-ext-sdk-ref'
p979
(lp980
sS'roku-splash-min-time'
p981
NsS'wp8-tile-fliptemplate-medium-front-image'
p982
NsS'iphone-disable-launch-images'
p983
NsS'provider'
p984
NsS'playbook-keystore'
p985
NsS'tizen-appid'
p986
NsS'wp8-extra-res'
p987
(lp988
sS'symbian-osexecsupport'
p989
NsS'android-install-location'
p990
NsS'nds-privatesavedatasize'
p991
NsS'iphone-disable-testflight'
p992
NsS'playbook-storepass'
p993
NsS'android-icon-ldpi'
p994
NsS'manufacturer'
p995
NsS'itunes-artwork'
p996
NsS'iphone-extra-sections'
p997
NsS'ws81-product-name'
p998
NsS'ws81-ext-native-dll'
p999
(lp1000
sS'ws8-extra-pri'
p1001
(lp1002
sS'wp8-product-id'
p1003
NsS'ws8-logo-image30x30'
p1004
NsS'wp8-ext-managed-dll'
p1005
(lp1006
sS'iphone-splashscreen-landscape'
p1007
NsS'symbian-maxheapsize'
p1008
NsS'android-extra-packages'
p1009
(lp1010
sS'priv-sign-key'
p1011
NsS'networking'
p1012
NsS'android-icon'
p1013
NsS'iphone-icon-settings'
p1014
NsS'wp81-phone-product-id'
p1015
NsS'firefoxos-icon-60X60'
p1016
NsS'iphone-distribution-cert'
p1017
NsS'android_extra_strings'
p1018
NsS'nds-bannertitle-en'
p1019
NsS'wp8-tile-fliptemplate-title'
p1020
NsS'android-so'
p1021
(lp1022
sS'wp8-higher-mem'
p1023
NsS'wp8-ext-sdk-ref'
p1024
(lp1025
sS'wp8-fast-resume-mode'
p1026
NsS'roku-splash-screen-hd'
p1027
NsS'iphone-bundle-url-schemes'
p1028
NsS'roku-screensaver-private'
p1029
NsS'osx-extra-res'
p1030
(lp1031
sS'ws81-extra-res'
p1032
(lp1033
sS'playbook-icon'
p1034
NsS'uid'
p1035
NsS'pkguid-as-uid'
p1036
NsS'wp81-ext-native-dll'
p1037
(lp1038
sS'tizen-dist1-password'
p1039
NsS'roku-screensaver-title'
p1040
NsS'osx-minimum-osx-version'
p1041
NsS'symbian-cert'
p1042
NsS'iphone-icon'
p1043
NsS'ws81-ext-capabilities'
p1044
(lp1045
sS'ws8-distribution-cer'
p1046
NsS'playbook-access-shared'
p1047
NsS'iphone-icon-ipad-high-res-ios7'
p1048
NsS'iphone-link-libs'
p1049
(lp1050
sS'wp8-exclude-wvga'
p1051
NsS'assets'
p1052
NsS'wp8-tile-fliptemplate-large-back-image'
p1053
NsS'wp8-custom-manifest-fill'
p1054
NsS'pub-sign-key'
p1055
NsS'android-extra-strings'
p1056
NsS'tizen-author-CA-path'
p1057
Nssg349
g583
sbssS'platform'
p1058
S'S3E'
p1059
sg68
S'1.0'
p1060
sS'arcade_platform'
p1061
g4
sS'extensions'
p1062
(dp1063
sS'source_groups_tree'
p1064
(dp1065
S'(libpng)'
p1066
(dp1067
S'h'
p1068
(dp1069
S'c:/marmalade/7.5/modules/third_party/libpng/h/png.h'
p1070
(lp1071
I1
a(dp1072
asS'c:/marmalade/7.5/modules/third_party/libpng/h/pngconf.h'
p1073
(lp1074
I1
ag1072
assS'c:/marmalade/7.5/modules/third_party/libpng/libpng.mkf'
p1075
(lp1076
I1
a(dp1077
assS'(libjpeg)'
p1078
(dp1079
S'c:/marmalade/7.5/modules/third_party/libjpeg/libjpeg.mkf'
p1080
(lp1081
I1
a(dp1082
asg1068
(dp1083
S'c:/marmalade/7.5/modules/third_party/libjpeg/h/jerror.h'
p1084
(lp1085
I1
a(dp1086
asS'c:/marmalade/7.5/modules/third_party/libjpeg/h/jdhuff.h'
p1087
(lp1088
I1
ag1086
asS'c:/marmalade/7.5/modules/third_party/libjpeg/h/cderror.h'
p1089
(lp1090
I1
ag1086
asS'c:/marmalade/7.5/modules/third_party/libjpeg/h/transupp.h'
p1091
(lp1092
I1
ag1086
asS'c:/marmalade/7.5/modules/third_party/libjpeg/h/jinclude.h'
p1093
(lp1094
I1
ag1086
asS'c:/marmalade/7.5/modules/third_party/libjpeg/h/jmorecfg.h'
p1095
(lp1096
I1
ag1086
asS'c:/marmalade/7.5/modules/third_party/libjpeg/h/jdct.h'
p1097
(lp1098
I1
ag1086
asS'c:/marmalade/7.5/modules/third_party/libjpeg/h/jmemsys.h'
p1099
(lp1100
I1
ag1086
asS'c:/marmalade/7.5/modules/third_party/libjpeg/h/jpegint.h'
p1101
(lp1102
I1
ag1086
asS'c:/marmalade/7.5/modules/third_party/libjpeg/h/jchuff.h'
p1103
(lp1104
I1
ag1086
asS'c:/marmalade/7.5/modules/third_party/libjpeg/h/cdjpeg.h'
p1105
(lp1106
I1
ag1086
asS'c:/marmalade/7.5/modules/third_party/libjpeg/h/jversion.h'
p1107
(lp1108
I1
ag1086
asS'c:/marmalade/7.5/modules/third_party/libjpeg/h/jconfig.h'
p1109
(lp1110
I1
ag1086
asS'c:/marmalade/7.5/modules/third_party/libjpeg/h/jpeglib.h'
p1111
(lp1112
I1
ag1086
asssS'(tiniconv)'
p1113
(dp1114
S'c:/marmalade/7.5/modules/third_party/tiniconv/tiniconv.mkf'
p1115
(lp1116
I1
a(dp1117
asS'c:/marmalade/7.5/modules/third_party/tiniconv/source/tiniconv_int.h'
p1118
(lp1119
I1
a(dp1120
asS'c:/marmalade/7.5/modules/third_party/tiniconv/source/tiniconv.h'
p1121
(lp1122
I1
ag1120
assS'Extensions'
p1123
(dp1124
S'PVRTexTool'
p1125
(dp1126
S'interface'
p1127
(dp1128
S'c:/marmalade/7.5/extensions/pvrtextool/interface/PVRTexTool.defines.txt'
p1129
(lp1130
I1
a(dp1131
asS'c:/marmalade/7.5/extensions/pvrtextool/interface/PVRTexTool_interface.cpp'
p1132
(lp1133
I1
ag1131
assS'c:/marmalade/7.5/extensions/pvrtextool/h/PVRTexTool.h'
p1134
(lp1135
I1
ag1131
asS'c:/marmalade/7.5/extensions/pvrtextool/pvrtextool.mkf'
p1136
(lp1137
I1
a(dp1138
asssS'(s3e-default)'
p1139
(dp1140
S'c:/marmalade/7.5/s3e/s3e-default.mkf'
p1141
(lp1142
I1
a(dp1143
assS"'Marmalade Studio'"
p1144
(dp1145
S'iw2dscenegraph'
p1146
(dp1147
S'c:/marmalade/7.5/modules/iw2dscenegraph/source/Iw2DSceneGraph.cpp'
p1148
(lp1149
I1
a(dp1150
asS'c:/marmalade/7.5/modules/iw2dscenegraph/docs/iw2dscenegraph.defines.txt'
p1151
(lp1152
I1
ag1150
asS'c:/marmalade/7.5/modules/iw2dscenegraph/h/Iw2DSceneGraph.h'
p1153
(lp1154
I1
ag1150
asS'c:/marmalade/7.5/modules/iw2dscenegraph/iw2dscenegraph.mkf'
p1155
(lp1156
I1
a(dp1157
assS'iwgl'
p1158
(dp1159
S'c:/marmalade/7.5/modules/iwgl/iwgl.mkf'
p1160
(lp1161
I1
a(dp1162
asS'c:/marmalade/7.5/modules/iwgl/h/IwGL.h'
p1163
(lp1164
I1
a(dp1165
asS'c:/marmalade/7.5/modules/iwgl/docs/iwgl.config.txt'
p1166
(lp1167
I1
ag1165
asS'c:/marmalade/7.5/modules/iwgl/h/IwGLExt.h'
p1168
(lp1169
I1
ag1165
assS'iw2d'
p1170
(dp1171
S'c:/marmalade/7.5/modules/iw2d/docs/iw2d_public.defines.txt'
p1172
(lp1173
I1
a(dp1174
asS'c:/marmalade/7.5/modules/iw2d/docs/iw2d.config.txt'
p1175
(lp1176
I1
ag1174
asS'c:/marmalade/7.5/modules/iw2d/h/Iw2D.h'
p1177
(lp1178
I1
ag1174
asS'c:/marmalade/7.5/modules/iw2d/iw2d.mkf'
p1179
(lp1180
I1
a(dp1181
assS'iwgxfont'
p1182
(dp1183
S'c:/marmalade/7.5/modules/iwgxfont/h/IwGxFontGlyph.h'
p1184
(lp1185
I1
a(dp1186
asS'c:/marmalade/7.5/modules/iwgxfont/h/IwGxFontTypes.h'
p1187
(lp1188
I1
ag1186
asS'c:/marmalade/7.5/modules/iwgxfont/docs/iwgxfont.config.txt'
p1189
(lp1190
I1
ag1186
asS'c:/marmalade/7.5/modules/iwgxfont/h/IwGxFontState.h'
p1191
(lp1192
I1
ag1186
asS'c:/marmalade/7.5/modules/iwgxfont/h/IwGxFontContainer.h'
p1193
(lp1194
I1
ag1186
asS'c:/marmalade/7.5/modules/iwgxfont/iwgxfont.mkf'
p1195
(lp1196
I1
a(dp1197
asS'c:/marmalade/7.5/modules/iwgxfont/h/IwGxFontPreparedData.h'
p1198
(lp1199
I1
ag1186
asS'c:/marmalade/7.5/modules/iwgxfont/h/IwGxFont.h'
p1200
(lp1201
I1
ag1186
asS'c:/marmalade/7.5/modules/iwgxfont/docs/iwgxfont_public.defines.txt'
p1202
(lp1203
I1
ag1186
assS'iwgeom'
p1204
(dp1205
S'c:/marmalade/7.5/modules/iwgeom/h/IwGeomSVec2.h'
p1206
(lp1207
I1
a(dp1208
asS'c:/marmalade/7.5/modules/iwgeom/h/IwGeomSphere.h'
p1209
(lp1210
I1
ag1208
asS'c:/marmalade/7.5/modules/iwgeom/h/IwGeomSVec3.h'
p1211
(lp1212
I1
ag1208
asS'c:/marmalade/7.5/modules/iwgeom/iwgeom.mkf'
p1213
(lp1214
I1
a(dp1215
asS'c:/marmalade/7.5/modules/iwgeom/h/IwGeomSqrt.h'
p1216
(lp1217
I1
ag1208
asS'c:/marmalade/7.5/modules/iwgeom/h/IwGeomFQuat.h'
p1218
(lp1219
I1
ag1208
asS'c:/marmalade/7.5/modules/iwgeom/h/IwGeomQuat.h.tpl'
p1220
(lp1221
I1
ag1208
asS'c:/marmalade/7.5/modules/iwgeom/h/IwGeomVec2.h'
p1222
(lp1223
I1
ag1208
asS'c:/marmalade/7.5/modules/iwgeom/h/IwGeomMat.h'
p1224
(lp1225
I1
ag1208
asS'c:/marmalade/7.5/modules/iwgeom/h/IwGeomVec3.h'
p1226
(lp1227
I1
ag1208
asS'c:/marmalade/7.5/modules/iwgeom/h/IwGeomLegacy.h'
p1228
(lp1229
I1
ag1208
asS'c:/marmalade/7.5/modules/iwgeom/h/IwGeom.h'
p1230
(lp1231
I1
ag1208
asS'c:/marmalade/7.5/modules/iwgeom/h/IwGeomSQuat.h'
p1232
(lp1233
I1
ag1208
asS'c:/marmalade/7.5/modules/iwgeom/h/IwGeomFBBox.h'
p1234
(lp1235
I1
ag1208
asS'c:/marmalade/7.5/modules/iwgeom/h/IwGeomFMat.h'
p1236
(lp1237
I1
ag1208
asS'c:/marmalade/7.5/modules/iwgeom/h/IwGeomPlane.h'
p1238
(lp1239
I1
ag1208
asS'c:/marmalade/7.5/modules/iwgeom/h/IwGeomMat2D.h'
p1240
(lp1241
I1
ag1208
asS'c:/marmalade/7.5/modules/iwgeom/h/IwGeomFVec2.h'
p1242
(lp1243
I1
ag1208
asS'c:/marmalade/7.5/modules/iwgeom/h/IwGeomSVec4.h'
p1244
(lp1245
I1
ag1208
asS'c:/marmalade/7.5/modules/iwgeom/h/IwGeomVec4.h'
p1246
(lp1247
I1
ag1208
asS'c:/marmalade/7.5/modules/iwgeom/h/IwGeomCore.h'
p1248
(lp1249
I1
ag1208
asS'c:/marmalade/7.5/modules/iwgeom/h/IwGeomVec.h.tpl'
p1250
(lp1251
I1
ag1208
asS'c:/marmalade/7.5/modules/iwgeom/h/IwGeomVec.h'
p1252
(lp1253
I1
ag1208
asS'c:/marmalade/7.5/modules/iwgeom/h/IwGeomIntersect.h'
p1254
(lp1255
I1
ag1208
asS'c:/marmalade/7.5/modules/iwgeom/h/IwGeomFVec4.h'
p1256
(lp1257
I1
ag1208
asS'c:/marmalade/7.5/modules/iwgeom/h/IwGeomMat.h.tpl'
p1258
(lp1259
I1
ag1208
asS'c:/marmalade/7.5/modules/iwgeom/h/IwGeomMat2D.h.tpl'
p1260
(lp1261
I1
ag1208
asS'c:/marmalade/7.5/modules/iwgeom/h/IwGeomFMat2D.h'
p1262
(lp1263
I1
ag1208
asS'c:/marmalade/7.5/modules/iwgeom/h/IwGeomMenu.h'
p1264
(lp1265
I1
ag1208
asS'c:/marmalade/7.5/modules/iwgeom/h/IwGeomBBox.h'
p1266
(lp1267
I1
ag1208
asS'c:/marmalade/7.5/modules/iwgeom/h/IwGeomFSphere.h'
p1268
(lp1269
I1
ag1208
asS'c:/marmalade/7.5/modules/iwgeom/h/IwGeomFVec3.h'
p1270
(lp1271
I1
ag1208
asS'c:/marmalade/7.5/modules/iwgeom/h/IwGeomFPlane.h'
p1272
(lp1273
I1
ag1208
asS'c:/marmalade/7.5/modules/iwgeom/docs/iwgeom.config.txt'
p1274
(lp1275
I1
ag1208
asS'c:/marmalade/7.5/modules/iwgeom/h/IwGeomQuat.h'
p1276
(lp1277
I1
ag1208
asS'c:/marmalade/7.5/modules/iwgeom/h/IwGeomFIntersect.h'
p1278
(lp1279
I1
ag1208
assS'iwresmanager'
p1280
(dp1281
S'c:/marmalade/7.5/modules/iwresmanager/h/IwResHandlerITX.h'
p1282
(lp1283
I1
a(dp1284
asS'c:/marmalade/7.5/modules/iwresmanager/h/IwResSerialise.h'
p1285
(lp1286
I1
ag1284
asS'c:/marmalade/7.5/modules/iwresmanager/h/IwResManagerClass.h'
p1287
(lp1288
I1
ag1284
asS'c:/marmalade/7.5/modules/iwresmanager/h/IwResHandlerGROUP.h'
p1289
(lp1290
I1
ag1284
asS'c:/marmalade/7.5/modules/iwresmanager/h/IwResManager.h'
p1291
(lp1292
I1
ag1284
asS'c:/marmalade/7.5/modules/iwresmanager/iwresmanager.mkf'
p1293
(lp1294
I1
a(dp1295
asS'c:/marmalade/7.5/modules/iwresmanager/docs/iwresmanager.config.txt'
p1296
(lp1297
I1
ag1284
asS'c:/marmalade/7.5/modules/iwresmanager/h/IwResGroup.h'
p1298
(lp1299
I1
ag1284
asS'c:/marmalade/7.5/modules/iwresmanager/h/IwResHandler.h'
p1300
(lp1301
I1
ag1284
asS'c:/marmalade/7.5/modules/iwresmanager/h/IwResHandlerImage.h'
p1302
(lp1303
I1
ag1284
assS'iwgx'
p1304
(dp1305
S'c:/marmalade/7.5/modules/iwgx/h/IwDebugPrim.h'
p1306
(lp1307
I1
a(dp1308
asS'c:/marmalade/7.5/modules/iwgx/h/IwGxTransformSW.h'
p1309
(lp1310
I1
ag1308
asS'c:/marmalade/7.5/modules/iwgx/h/IwTexture.h'
p1311
(lp1312
I1
ag1308
asS'c:/marmalade/7.5/modules/iwgx/h/IwGxFuncTable.h'
p1313
(lp1314
I1
ag1308
asS'c:/marmalade/7.5/modules/iwgx/h/IwResHandlerMTL.h'
p1315
(lp1316
I1
ag1308
asS'c:/marmalade/7.5/modules/iwgx/h/IwGxPrint.h'
p1317
(lp1318
I1
ag1308
asS'c:/marmalade/7.5/modules/iwgx/h/IwGxStream.h'
p1319
(lp1320
I1
ag1308
asS'c:/marmalade/7.5/modules/iwgx/h/IwMatAnim.h'
p1321
(lp1322
I1
ag1308
asS'c:/marmalade/7.5/modules/iwgx/h/IwClip.h'
p1323
(lp1324
I1
ag1308
asS'c:/marmalade/7.5/modules/iwgx/h/IwGxSurface.h'
p1325
(lp1326
I1
ag1308
asS'c:/marmalade/7.5/modules/iwgx/h/IwGxError.h'
p1327
(lp1328
I1
ag1308
asS'c:/marmalade/7.5/modules/iwgx/h/IwGx.h'
p1329
(lp1330
I1
ag1308
asS'c:/marmalade/7.5/modules/iwgx/docs/iwgx_public.defines.txt'
p1331
(lp1332
I1
ag1308
asS'c:/marmalade/7.5/modules/iwgx/h/IwGxDebug.h'
p1333
(lp1334
I1
ag1308
asS'c:/marmalade/7.5/modules/iwgx/h/IwGxShaderTechnique.h'
p1335
(lp1336
I1
ag1308
asS'c:/marmalade/7.5/modules/iwgx/h/IwMaterial.h'
p1337
(lp1338
I1
ag1308
asS'c:/marmalade/7.5/modules/iwgx/h/IwGxMetrics.h'
p1339
(lp1340
I1
ag1308
asS'c:/marmalade/7.5/modules/iwgx/h/IwClip.inl'
p1341
(lp1342
I1
ag1308
asS'c:/marmalade/7.5/modules/iwgx/h/IwFColour.h'
p1343
(lp1344
I1
ag1308
asS'c:/marmalade/7.5/modules/iwgx/h/IwGxTypes.h'
p1345
(lp1346
I1
ag1308
asS'c:/marmalade/7.5/modules/iwgx/iwgx.mkf'
p1347
(lp1348
I1
a(dp1349
asS'c:/marmalade/7.5/modules/iwgx/docs/iwgx.config.txt'
p1350
(lp1351
I1
ag1308
asS'c:/marmalade/7.5/modules/iwgx/h/IwColour.h'
p1352
(lp1353
I1
ag1308
asS'c:/marmalade/7.5/modules/iwgx/h/IwGxState.h'
p1354
(lp1355
I1
ag1308
asS'c:/marmalade/7.5/modules/iwgx/h/IwTPage.h'
p1356
(lp1357
I1
ag1308
assS'iw2dscenegraphcore'
p1358
(dp1359
S'c:/marmalade/7.5/modules/iw2dscenegraphcore/iw2dscenegraphcore.mkf'
p1360
(lp1361
I1
a(dp1362
asS'c:/marmalade/7.5/modules/iw2dscenegraphcore/h/Iw2DSceneGraphCore.h'
p1363
(lp1364
I1
a(dp1365
asS'c:/marmalade/7.5/modules/iw2dscenegraphcore/source/Iw2DSceneGraphCore.cpp'
p1366
(lp1367
I1
ag1365
assS'iwutil'
p1368
(dp1369
S'c:/marmalade/7.5/modules/iwutil/h/IwSingleton.h'
p1370
(lp1371
I1
a(dp1372
asS'c:/marmalade/7.5/modules/iwutil/h/IwMath.h'
p1373
(lp1374
I1
ag1372
asS'c:/marmalade/7.5/modules/iwutil/h/IwBuffer.h'
p1375
(lp1376
I1
ag1372
asS'c:/marmalade/7.5/modules/iwutil/h/IwCore.h'
p1377
(lp1378
I1
ag1372
asS'c:/marmalade/7.5/modules/iwutil/h/IwDivide.h'
p1379
(lp1380
I1
ag1372
asS'c:/marmalade/7.5/modules/iwutil/h/IwMemory.h'
p1381
(lp1382
I1
ag1372
asS'c:/marmalade/7.5/modules/iwutil/h/IwImageHelper.h'
p1383
(lp1384
I1
ag1372
asS'c:/marmalade/7.5/modules/iwutil/h/IwManagedList.h'
p1385
(lp1386
I1
ag1372
asS'c:/marmalade/7.5/modules/iwutil/h/IwProfileMenu.h'
p1387
(lp1388
I1
ag1372
asS'c:/marmalade/7.5/modules/iwutil/h/IwClassFactory.h'
p1389
(lp1390
I1
ag1372
asS'c:/marmalade/7.5/modules/iwutil/h/IwDivTable.h'
p1391
(lp1392
I1
ag1372
asS'c:/marmalade/7.5/modules/iwutil/h/IwManaged.h'
p1393
(lp1394
I1
ag1372
asS'c:/marmalade/7.5/modules/iwutil/h/IwTextParseable.h'
p1395
(lp1396
I1
ag1372
asS'c:/marmalade/7.5/modules/iwutil/h/IwChar.h'
p1397
(lp1398
I1
ag1372
asS'c:/marmalade/7.5/modules/iwutil/h/IwRandom.h'
p1399
(lp1400
I1
ag1372
asS'c:/marmalade/7.5/modules/iwutil/h/IwDebug.h'
p1401
(lp1402
I1
ag1372
asS'c:/marmalade/7.5/modules/iwutil/h/IwUTF8.h'
p1403
(lp1404
I1
ag1372
asS'c:/marmalade/7.5/modules/iwutil/docs/iwutil.config.txt'
p1405
(lp1406
I1
ag1372
asS'c:/marmalade/7.5/modules/iwutil/h/IwAllocator.h'
p1407
(lp1408
I1
ag1372
asS'c:/marmalade/7.5/modules/iwutil/h/IwMemBucketHelpers.h'
p1409
(lp1410
I1
ag1372
asS'c:/marmalade/7.5/modules/iwutil/h/IwTextParserITX.h'
p1411
(lp1412
I1
ag1372
asS'c:/marmalade/7.5/modules/iwutil/h/IwKeymap.h'
p1413
(lp1414
I1
ag1372
asS'c:/marmalade/7.5/modules/iwutil/h/IwImage.h'
p1415
(lp1416
I1
ag1372
asS'c:/marmalade/7.5/modules/iwutil/h/IwOptimiseARM.h'
p1417
(lp1418
I1
ag1372
asS'c:/marmalade/7.5/modules/iwutil/h/IwMemBucket.h'
p1419
(lp1420
I1
ag1372
asS'c:/marmalade/7.5/modules/iwutil/h/IwOptimiseSize.h'
p1421
(lp1422
I1
ag1372
asS'c:/marmalade/7.5/modules/iwutil/h/IwRuntime.h'
p1423
(lp1424
I1
ag1372
asS'c:/marmalade/7.5/modules/iwutil/h/IwMemManagerDL.h'
p1425
(lp1426
I1
ag1372
asS'c:/marmalade/7.5/modules/iwutil/h/IwPath.h'
p1427
(lp1428
I1
ag1372
asS'c:/marmalade/7.5/modules/iwutil/h/IwOptimiseSpeed.h'
p1429
(lp1430
I1
ag1372
asS'c:/marmalade/7.5/modules/iwutil/h/IwList.h'
p1431
(lp1432
I1
ag1372
asS'c:/marmalade/7.5/modules/iwutil/h/IwAutoFile.h'
p1433
(lp1434
I1
ag1372
asS'c:/marmalade/7.5/modules/iwutil/h/IwVariableBitField.h'
p1435
(lp1436
I1
ag1372
asS'c:/marmalade/7.5/modules/iwutil/h/IwHashString.h'
p1437
(lp1438
I1
ag1372
asS'c:/marmalade/7.5/modules/iwutil/h/IwOptimiseThumb.h'
p1439
(lp1440
I1
ag1372
asS'c:/marmalade/7.5/modules/iwutil/iwutil.mkf'
p1441
(lp1442
I1
a(dp1443
asS'c:/marmalade/7.5/modules/iwutil/h/IwUtil.h'
p1444
(lp1445
I1
ag1372
asS'c:/marmalade/7.5/modules/iwutil/h/IwString.h'
p1446
(lp1447
I1
ag1372
asS'c:/marmalade/7.5/modules/iwutil/h/IwFile.h'
p1448
(lp1449
I1
ag1372
asS'c:/marmalade/7.5/modules/iwutil/h/IwUncopyable.h'
p1450
(lp1451
I1
ag1372
asS'c:/marmalade/7.5/modules/iwutil/h/IwTextParser.h'
p1452
(lp1453
I1
ag1372
asS'c:/marmalade/7.5/modules/iwutil/h/IwCopyingPtr.h'
p1454
(lp1455
I1
ag1372
asS'c:/marmalade/7.5/modules/iwutil/h/IwEvent.h'
p1456
(lp1457
I1
ag1372
asS'c:/marmalade/7.5/modules/iwutil/h/IwFibre.h'
p1458
(lp1459
I1
ag1372
asS'c:/marmalade/7.5/modules/iwutil/h/IwArray.h'
p1460
(lp1461
I1
ag1372
asS'c:/marmalade/7.5/modules/iwutil/h/IwMenu.h'
p1462
(lp1463
I1
ag1372
asS'c:/marmalade/7.5/modules/iwutil/h/IwTypes.h'
p1464
(lp1465
I1
ag1372
asS'c:/marmalade/7.5/modules/iwutil/h/IwUtilInitTerm.h'
p1466
(lp1467
I1
ag1372
asS'c:/marmalade/7.5/modules/iwutil/h/IwResource.h'
p1468
(lp1469
I1
ag1372
asS'c:/marmalade/7.5/modules/iwutil/h/IwSerialise.h'
p1470
(lp1471
I1
ag1372
asssS'(zlib)'
p1472
(dp1473
g1068
(dp1474
S'c:/marmalade/7.5/modules/third_party/zlib/h/zconf.h'
p1475
(lp1476
I1
a(dp1477
asS'c:/marmalade/7.5/modules/third_party/zlib/h/zlib.h'
p1478
(lp1479
I1
ag1477
assS'c:/marmalade/7.5/modules/third_party/zlib/zlib.mkf'
p1480
(lp1481
I1
a(dp1482
assS'(iwtween)'
p1483
(dp1484
S'c:/marmalade/7.5/modules/iwtween/h/IwTween.h'
p1485
(lp1486
I1
a(dp1487
asS'c:/marmalade/7.5/modules/iwtween/source/IwTween.cpp'
p1488
(lp1489
I1
ag1487
asS'c:/marmalade/7.5/modules/iwtween/iwtween.mkf'
p1490
(lp1491
I1
a(dp1492
assS'd:/School/cs115/AmazingMaze/AmazingMaze.cpp'
p1493
(lp1494
I1
a(dp1495
assS'files'
p1496
(dp1497
S'IwGxFontPreparedData.h'
p1498
g323
(cmkb_main
File
p1499
g325
Ntp1500
Rp1501
(dp1502
S'flags'
p1503
g1186
sS'group'
p1504
(lp1505
S"'Marmalade Studio'"
p1506
ag1182
asg349
g1198
sbsS'iterator'
p1507
g323
(g1499
g325
Ntp1508
Rp1509
(dp1510
g1503
(dp1511
sg1504
(lp1512
S"'Marmalade System (S3E)'"
p1513
aS'stdc headers'
p1514
aS'c++'
p1515
asg349
S'c:/marmalade/7.5/s3e/h/std/c++/iterator'
p1516
sbsS'IwGL.h'
p1517
g323
(g1499
g325
Ntp1518
Rp1519
(dp1520
g1503
g1165
sg1504
(lp1521
S"'Marmalade Studio'"
p1522
ag1158
asg349
g1163
sbsS's3e.h'
p1523
g323
(g1499
g325
Ntp1524
Rp1525
(dp1526
g1503
g1511
sg1504
(lp1527
g1513
asg349
S'c:/marmalade/7.5/s3e/h/s3e.h'
p1528
sbsS'errno.h'
p1529
g323
(g1499
g325
Ntp1530
Rp1531
(dp1532
g1503
g1511
sg1504
(lp1533
g1513
aS'stdc headers'
p1534
asg349
S'c:/marmalade/7.5/s3e/h/std/errno.h'
p1535
sbsS'IwSingleton.h'
p1536
g323
(g1499
g325
Ntp1537
Rp1538
(dp1539
g1503
g1372
sg1504
(lp1540
S"'Marmalade Studio'"
p1541
ag1368
asg349
g1370
sbsS'dlfcn.h'
p1542
g323
(g1499
g325
Ntp1543
Rp1544
(dp1545
g1503
g1511
sg1504
g1533
sg349
S'c:/marmalade/7.5/s3e/h/std/dlfcn.h'
p1546
sbsS'stdio_streambuf'
p1547
g323
(g1499
g325
Ntp1548
Rp1549
(dp1550
g1503
g1511
sg1504
g1512
sg349
S'c:/marmalade/7.5/s3e/h/std/c++/stdio_streambuf'
p1551
sbsS'sched.h'
p1552
g323
(g1499
g325
Ntp1553
Rp1554
(dp1555
g1503
g1511
sg1504
g1533
sg349
S'c:/marmalade/7.5/s3e/h/std/sched.h'
p1556
sbsS'IwGeomFMat2D.h'
p1557
g323
(g1499
g325
Ntp1558
Rp1559
(dp1560
g1503
g1208
sg1504
(lp1561
S"'Marmalade Studio'"
p1562
ag1204
asg349
g1262
sbsS's3eExt.h'
p1563
g323
(g1499
g325
Ntp1564
Rp1565
(dp1566
g1503
g1511
sg1504
g1527
sg349
S'c:/marmalade/7.5/s3e/h/s3eExt.h'
p1567
sbsS'grp.h'
p1568
g323
(g1499
g325
Ntp1569
Rp1570
(dp1571
g1503
g1511
sg1504
g1533
sg349
S'c:/marmalade/7.5/s3e/h/std/grp.h'
p1572
sbsS'list'
p1573
g323
(g1499
g325
Ntp1574
Rp1575
(dp1576
g1503
g1511
sg1504
g1512
sg349
S'c:/marmalade/7.5/s3e/h/std/c++/list'
p1577
sbsS'IwGeomMat.h.tpl'
p1578
g323
(g1499
g325
Ntp1579
Rp1580
(dp1581
g1503
g1208
sg1504
g1561
sg349
g1258
sbsS'istream'
p1582
g323
(g1499
g325
Ntp1583
Rp1584
(dp1585
g1503
g1511
sg1504
g1512
sg349
S'c:/marmalade/7.5/s3e/h/std/c++/istream'
p1586
sbsS'jpeglib.h'
p1587
g323
(g1499
g325
Ntp1588
Rp1589
(dp1590
g1503
g1086
sg1504
(lp1591
g1078
ag1068
asg349
g1111
sbsS'iw2d_public.defines.txt'
p1592
g323
(g1499
g325
Ntp1593
Rp1594
(dp1595
g1503
g1174
sg1504
(lp1596
S"'Marmalade Studio'"
p1597
ag1170
asg349
g1172
sbsS'iostream.h'
p1598
g323
(g1499
g325
Ntp1599
Rp1600
(dp1601
g1503
g1511
sg1504
g1512
sg349
S'c:/marmalade/7.5/s3e/h/std/c++/iostream.h'
p1602
sbsS'string'
p1603
g323
(g1499
g325
Ntp1604
Rp1605
(dp1606
g1503
g1511
sg1504
g1512
sg349
S'c:/marmalade/7.5/s3e/h/std/c++/string'
p1607
sbsS'IwMemory.h'
p1608
g323
(g1499
g325
Ntp1609
Rp1610
(dp1611
g1503
g1372
sg1504
g1540
sg349
g1381
sbsS'IwGeomPlane.h'
p1612
g323
(g1499
g325
Ntp1613
Rp1614
(dp1615
g1503
g1208
sg1504
g1561
sg349
g1238
sbsS'iw2d.config.txt'
p1616
g323
(g1499
g325
Ntp1617
Rp1618
(dp1619
g1503
g1174
sg1504
g1596
sg349
g1175
sbsS'iomanip'
p1620
g323
(g1499
g325
Ntp1621
Rp1622
(dp1623
g1503
g1511
sg1504
g1512
sg349
S'c:/marmalade/7.5/s3e/h/std/c++/iomanip'
p1624
sbsS'iwgeom.mkf'
p1625
g323
(g1499
g325
Ntp1626
Rp1627
(dp1628
g1503
g1215
sg1504
g1561
sg349
g1213
sbsS'IwGxError.h'
p1629
g323
(g1499
g325
Ntp1630
Rp1631
(dp1632
g1503
g1308
sg1504
(lp1633
S"'Marmalade Studio'"
p1634
ag1304
asg349
g1327
sbsS'IwGeom.h'
p1635
g323
(g1499
g325
Ntp1636
Rp1637
(dp1638
g1503
g1208
sg1504
g1561
sg349
g1230
sbsS'IwGeomVec4.h'
p1639
g323
(g1499
g325
Ntp1640
Rp1641
(dp1642
g1503
g1208
sg1504
g1561
sg349
g1246
sbsS'dir.h'
p1643
g323
(g1499
g325
Ntp1644
Rp1645
(dp1646
g1503
g1511
sg1504
(lp1647
g1513
aS'stdc headers'
p1648
aS'sys'
p1649
asg349
S'c:/marmalade/7.5/s3e/h/std/sys/dir.h'
p1650
sbsS'locale.h'
p1651
g323
(g1499
g325
Ntp1652
Rp1653
(dp1654
g1503
g1511
sg1504
g1533
sg349
S'c:/marmalade/7.5/s3e/h/std/locale.h'
p1655
sbsS'vector'
p1656
g323
(g1499
g325
Ntp1657
Rp1658
(dp1659
g1503
g1511
sg1504
g1512
sg349
S'c:/marmalade/7.5/s3e/h/std/c++/vector'
p1660
sbsS'IwManaged.h'
p1661
g323
(g1499
g325
Ntp1662
Rp1663
(dp1664
g1503
g1372
sg1504
g1540
sg349
g1393
sbsS's3eCompass.h'
p1665
g323
(g1499
g325
Ntp1666
Rp1667
(dp1668
g1503
g1511
sg1504
g1527
sg349
S'c:/marmalade/7.5/s3e/h/s3eCompass.h'
p1669
sbsS'cderror.h'
p1670
g323
(g1499
g325
Ntp1671
Rp1672
(dp1673
g1503
g1086
sg1504
g1591
sg349
g1089
sbsS'climits'
p1674
g323
(g1499
g325
Ntp1675
Rp1676
(dp1677
g1503
g1511
sg1504
g1512
sg349
S'c:/marmalade/7.5/s3e/h/std/c++/climits'
p1678
sbsS's3eVibra.h'
p1679
g323
(g1499
g325
Ntp1680
Rp1681
(dp1682
g1503
g1511
sg1504
g1527
sg349
S'c:/marmalade/7.5/s3e/h/s3eVibra.h'
p1683
sbsS'jversion.h'
p1684
g323
(g1499
g325
Ntp1685
Rp1686
(dp1687
g1503
g1086
sg1504
g1591
sg349
g1107
sbsS'fnmatch.h'
p1688
g323
(g1499
g325
Ntp1689
Rp1690
(dp1691
g1503
g1511
sg1504
g1533
sg349
S'c:/marmalade/7.5/s3e/h/std/fnmatch.h'
p1692
sbsS'IwGxState.h'
p1693
g323
(g1499
g325
Ntp1694
Rp1695
(dp1696
g1503
g1308
sg1504
g1633
sg349
g1354
sbsS's3eAudio.h'
p1697
g323
(g1499
g325
Ntp1698
Rp1699
(dp1700
g1503
g1511
sg1504
g1527
sg349
S'c:/marmalade/7.5/s3e/h/s3eAudio.h'
p1701
sbsS's3eSurface.h'
p1702
g323
(g1499
g325
Ntp1703
Rp1704
(dp1705
g1503
g1511
sg1504
g1527
sg349
S'c:/marmalade/7.5/s3e/h/s3eSurface.h'
p1706
sbsS'new'
p1707
g323
(g1499
g325
Ntp1708
Rp1709
(dp1710
g1503
g1511
sg1504
g1512
sg349
S'c:/marmalade/7.5/s3e/h/std/c++/new'
p1711
sbsS's3eWindow.h'
p1712
g323
(g1499
g325
Ntp1713
Rp1714
(dp1715
g1503
g1511
sg1504
(lp1716
g1513
aS'Extensions'
p1717
asg349
S'c:/marmalade/7.5/s3e/h/ext/s3eWindow.h'
p1718
sbsS'IwBuffer.h'
p1719
g323
(g1499
g325
Ntp1720
Rp1721
(dp1722
g1503
g1372
sg1504
g1540
sg349
g1375
sbsS'IwGeomQuat.h.tpl'
p1723
g323
(g1499
g325
Ntp1724
Rp1725
(dp1726
g1503
g1208
sg1504
g1561
sg349
g1220
sbsS's3eOSExec.h'
p1727
g323
(g1499
g325
Ntp1728
Rp1729
(dp1730
g1503
g1511
sg1504
g1716
sg349
S'c:/marmalade/7.5/s3e/h/ext/s3eOSExec.h'
p1731
sbsS'IwGxTransformSW.h'
p1732
g323
(g1499
g325
Ntp1733
Rp1734
(dp1735
g1503
g1308
sg1504
g1633
sg349
g1309
sbsS'IwGxMetrics.h'
p1736
g323
(g1499
g325
Ntp1737
Rp1738
(dp1739
g1503
g1308
sg1504
g1633
sg349
g1339
sbsS'iwgxfont.config.txt'
p1740
g323
(g1499
g325
Ntp1741
Rp1742
(dp1743
g1503
g1186
sg1504
g1505
sg349
g1189
sbsS'gl2platform.h'
p1744
g323
(g1499
g325
Ntp1745
Rp1746
(dp1747
g1503
g1511
sg1504
(lp1748
g1513
aS'GL'
p1749
aS'GLES 2.0'
p1750
asg349
S'c:/marmalade/7.5/s3e/h/GLES2/gl2platform.h'
p1751
sbsS'iw2dscenegraph.defines.txt'
p1752
g323
(g1499
g325
Ntp1753
Rp1754
(dp1755
g1503
g1150
sg1504
(lp1756
S"'Marmalade Studio'"
p1757
ag1146
asg349
g1151
sbsS'queue'
p1758
g323
(g1499
g325
Ntp1759
Rp1760
(dp1761
g1503
g1511
sg1504
g1512
sg349
S'c:/marmalade/7.5/s3e/h/std/c++/queue'
p1762
sbsS'time_1.h'
p1763
g323
(g1499
g325
Ntp1764
Rp1765
(dp1766
g1503
g1511
sg1504
g1647
sg349
S'c:/marmalade/7.5/s3e/h/std/sys/time.h'
p1767
sbsS'Iw2D.h'
p1768
g323
(g1499
g325
Ntp1769
Rp1770
(dp1771
g1503
g1174
sg1504
g1596
sg349
g1177
sbsS'IwGeomVec2.h'
p1772
g323
(g1499
g325
Ntp1773
Rp1774
(dp1775
g1503
g1208
sg1504
g1561
sg349
g1222
sbsS's3eDevice.h'
p1776
g323
(g1499
g325
Ntp1777
Rp1778
(dp1779
g1503
g1511
sg1504
g1527
sg349
S'c:/marmalade/7.5/s3e/h/s3eDevice.h'
p1780
sbsS'malloc.h'
p1781
g323
(g1499
g325
Ntp1782
Rp1783
(dp1784
g1503
g1511
sg1504
g1533
sg349
S'c:/marmalade/7.5/s3e/h/std/malloc.h'
p1785
sbsS'stdarg.h'
p1786
g323
(g1499
g325
Ntp1787
Rp1788
(dp1789
g1503
g1511
sg1504
g1533
sg349
S'c:/marmalade/7.5/s3e/h/std/stdarg.h'
p1790
sbsS'IwGeomCore.h'
p1791
g323
(g1499
g325
Ntp1792
Rp1793
(dp1794
g1503
g1208
sg1504
g1561
sg349
g1248
sbsS'Iw2DSceneGraph.h'
p1795
g323
(g1499
g325
Ntp1796
Rp1797
(dp1798
g1503
g1150
sg1504
g1756
sg349
g1153
sbsS'AmazingMaze.cpp'
p1799
g323
(g1499
g325
Ntp1800
Rp1801
(dp1802
g1503
g1495
sg1504
(lp1803
sg349
g1493
sbsS'endian.h'
p1804
g323
(g1499
g325
Ntp1805
Rp1806
(dp1807
g1503
g1511
sg1504
g1533
sg349
S'c:/marmalade/7.5/s3e/h/std/endian.h'
p1808
sbsS'gl3ext.h'
p1809
g323
(g1499
g325
Ntp1810
Rp1811
(dp1812
g1503
g1511
sg1504
(lp1813
g1513
aS'GL'
p1814
aS'GLES 3.0'
p1815
asg349
S'c:/marmalade/7.5/s3e/h/GLES3/gl3ext.h'
p1816
sbsS'glob.h'
p1817
g323
(g1499
g325
Ntp1818
Rp1819
(dp1820
g1503
g1511
sg1504
g1533
sg349
S'c:/marmalade/7.5/s3e/h/std/glob.h'
p1821
sbsS'fstream'
p1822
g323
(g1499
g325
Ntp1823
Rp1824
(dp1825
g1503
g1511
sg1504
g1512
sg349
S'c:/marmalade/7.5/s3e/h/std/c++/fstream'
p1826
sbsS's3eCamera.h'
p1827
g323
(g1499
g325
Ntp1828
Rp1829
(dp1830
g1503
g1511
sg1504
g1527
sg349
S'c:/marmalade/7.5/s3e/h/s3eCamera.h'
p1831
sbsS'jconfig.h'
p1832
g323
(g1499
g325
Ntp1833
Rp1834
(dp1835
g1503
g1086
sg1504
g1591
sg349
g1109
sbsS'memory'
p1836
g323
(g1499
g325
Ntp1837
Rp1838
(dp1839
g1503
g1511
sg1504
g1512
sg349
S'c:/marmalade/7.5/s3e/h/std/c++/memory'
p1840
sbsS'egl.h'
p1841
g323
(g1499
g325
Ntp1842
Rp1843
(dp1844
g1503
g1511
sg1504
(lp1845
g1513
aS'GL'
p1846
aS'EGL'
p1847
asg349
S'c:/marmalade/7.5/s3e/h/EGL/egl.h'
p1848
sbsS'IwClip.inl'
p1849
g323
(g1499
g325
Ntp1850
Rp1851
(dp1852
g1503
g1308
sg1504
g1633
sg349
g1341
sbsS'IwMemManagerDL.h'
p1853
g323
(g1499
g325
Ntp1854
Rp1855
(dp1856
g1503
g1372
sg1504
g1540
sg349
g1425
sbsS'deque'
p1857
g323
(g1499
g325
Ntp1858
Rp1859
(dp1860
g1503
g1511
sg1504
g1512
sg349
S'c:/marmalade/7.5/s3e/h/std/c++/deque'
p1861
sbsS'IwString.h'
p1862
g323
(g1499
g325
Ntp1863
Rp1864
(dp1865
g1503
g1372
sg1504
g1540
sg349
g1446
sbsS'cwchar'
p1866
g323
(g1499
g325
Ntp1867
Rp1868
(dp1869
g1503
g1511
sg1504
g1512
sg349
S'c:/marmalade/7.5/s3e/h/std/c++/cwchar'
p1870
sbsS'iwutil.mkf'
p1871
g323
(g1499
g325
Ntp1872
Rp1873
(dp1874
g1503
g1443
sg1504
g1540
sg349
g1441
sbsS'csignal'
p1875
g323
(g1499
g325
Ntp1876
Rp1877
(dp1878
g1503
g1511
sg1504
g1512
sg349
S'c:/marmalade/7.5/s3e/h/std/c++/csignal'
p1879
sbsS'float.h'
p1880
g323
(g1499
g325
Ntp1881
Rp1882
(dp1883
g1503
g1511
sg1504
g1533
sg349
S'c:/marmalade/7.5/s3e/h/std/float.h'
p1884
sbsS'pthread_alloc'
p1885
g323
(g1499
g325
Ntp1886
Rp1887
(dp1888
g1503
g1511
sg1504
g1512
sg349
S'c:/marmalade/7.5/s3e/h/std/c++/pthread_alloc'
p1889
sbsS'getopt.h'
p1890
g323
(g1499
g325
Ntp1891
Rp1892
(dp1893
g1503
g1511
sg1504
g1533
sg349
S'c:/marmalade/7.5/s3e/h/std/getopt.h'
p1894
sbsS'IwOptimiseARM.h'
p1895
g323
(g1499
g325
Ntp1896
Rp1897
(dp1898
g1503
g1372
sg1504
g1540
sg349
g1417
sbsS'times.h'
p1899
g323
(g1499
g325
Ntp1900
Rp1901
(dp1902
g1503
g1511
sg1504
g1647
sg349
S'c:/marmalade/7.5/s3e/h/std/sys/times.h'
p1903
sbsS'IwGeomFSphere.h'
p1904
g323
(g1499
g325
Ntp1905
Rp1906
(dp1907
g1503
g1208
sg1504
g1561
sg349
g1268
sbsS'IwTypes.h'
p1908
g323
(g1499
g325
Ntp1909
Rp1910
(dp1911
g1503
g1372
sg1504
g1540
sg349
g1464
sbsS'unistd.h'
p1912
g323
(g1499
g325
Ntp1913
Rp1914
(dp1915
g1503
g1511
sg1504
g1533
sg349
S'c:/marmalade/7.5/s3e/h/std/unistd.h'
p1916
sbsS's3eCompression.h'
p1917
g323
(g1499
g325
Ntp1918
Rp1919
(dp1920
g1503
g1511
sg1504
g1527
sg349
S'c:/marmalade/7.5/s3e/h/s3eCompression.h'
p1921
sbsS'langinfo.h'
p1922
g323
(g1499
g325
Ntp1923
Rp1924
(dp1925
g1503
g1511
sg1504
g1533
sg349
S'c:/marmalade/7.5/s3e/h/std/langinfo.h'
p1926
sbsS's3edebugHeap.h'
p1927
g323
(g1499
g325
Ntp1928
Rp1929
(dp1930
g1503
g1511
sg1504
g1716
sg349
S'c:/marmalade/7.5/s3e/h/ext/s3edebugHeap.h'
p1931
sbsS'AirplayVersion.h'
p1932
g323
(g1499
g325
Ntp1933
Rp1934
(dp1935
g1503
g1511
sg1504
g1527
sg349
S'c:/marmalade/7.5/s3e/h/AirplayVersion.h'
p1936
sbsS'gl2extimg.h'
p1937
g323
(g1499
g325
Ntp1938
Rp1939
(dp1940
g1503
g1511
sg1504
g1748
sg349
S'c:/marmalade/7.5/s3e/h/GLES2/gl2extimg.h'
p1941
sbsS'app.config.txt'
p1942
g323
(g1499
g325
Ntp1943
Rp1944
(dp1945
g1503
(dp1946
sg1504
g4
sg349
S'd:/School/cs115/AmazingMaze/data/app.config.txt'
p1947
sbsS'IwGeomSqrt.h'
p1948
g323
(g1499
g325
Ntp1949
Rp1950
(dp1951
g1503
g1208
sg1504
g1561
sg349
g1216
sbsS'tiniconv_int.h'
p1952
g323
(g1499
g325
Ntp1953
Rp1954
(dp1955
g1503
g1120
sg1504
(lp1956
g1113
asg349
g1118
sbsS'syslog.h'
p1957
g323
(g1499
g325
Ntp1958
Rp1959
(dp1960
g1503
g1511
sg1504
g1533
sg349
S'c:/marmalade/7.5/s3e/h/std/syslog.h'
p1961
sbsS'IwGxFontTypes.h'
p1962
g323
(g1499
g325
Ntp1963
Rp1964
(dp1965
g1503
g1186
sg1504
g1505
sg349
g1187
sbsS'IwGeomFIntersect.h'
p1966
g323
(g1499
g325
Ntp1967
Rp1968
(dp1969
g1503
g1208
sg1504
g1561
sg349
g1278
sbsS'hash_map'
p1970
g323
(g1499
g325
Ntp1971
Rp1972
(dp1973
g1503
g1511
sg1504
g1512
sg349
S'c:/marmalade/7.5/s3e/h/std/c++/hash_map'
p1974
sbsS's3e.mkf'
p1975
g323
(g1499
g325
Ntp1976
Rp1977
(dp1978
g1503
(dp1979
sg1504
g1527
sg349
S'c:/marmalade/7.5/s3e/s3e.mkf'
p1980
sbsS'IwGeomMat2D.h.tpl'
p1981
g323
(g1499
g325
Ntp1982
Rp1983
(dp1984
g1503
g1208
sg1504
g1561
sg349
g1260
sbsS's3eOSReadString.h'
p1985
g323
(g1499
g325
Ntp1986
Rp1987
(dp1988
g1503
g1511
sg1504
g1716
sg349
S'c:/marmalade/7.5/s3e/h/ext/s3eOSReadString.h'
p1989
sbsS'map'
p1990
g323
(g1499
g325
Ntp1991
Rp1992
(dp1993
g1503
g1511
sg1504
g1512
sg349
S'c:/marmalade/7.5/s3e/h/std/c++/map'
p1994
sbsS'iwtween.mkf'
p1995
g323
(g1499
g325
Ntp1996
Rp1997
(dp1998
g1503
g1492
sg1504
(lp1999
g1483
asg349
g1490
sbsS'IwOptimiseSpeed.h'
p2000
g323
(g1499
g325
Ntp2001
Rp2002
(dp2003
g1503
g1372
sg1504
g1540
sg349
g1429
sbsS'msl_string.h'
p2004
g323
(g1499
g325
Ntp2005
Rp2006
(dp2007
g1503
g1511
sg1504
g1512
sg349
S'c:/marmalade/7.5/s3e/h/std/c++/msl_string.h'
p2008
sbsS'select.h'
p2009
g323
(g1499
g325
Ntp2010
Rp2011
(dp2012
g1503
g1511
sg1504
g1647
sg349
S'c:/marmalade/7.5/s3e/h/std/sys/select.h'
p2013
sbsS'zlib.mkf'
p2014
g323
(g1499
g325
Ntp2015
Rp2016
(dp2017
g1503
g1482
sg1504
(lp2018
g1472
asg349
g1480
sbsS'signal.h'
p2019
g323
(g1499
g325
Ntp2020
Rp2021
(dp2022
g1503
g1511
sg1504
g1533
sg349
S'c:/marmalade/7.5/s3e/h/std/signal.h'
p2023
sbsS'sigcontext.h'
p2024
g323
(g1499
g325
Ntp2025
Rp2026
(dp2027
g1503
g1511
sg1504
g1533
sg349
S'c:/marmalade/7.5/s3e/h/std/sigcontext.h'
p2028
sbsS'libpng.mkf'
p2029
g323
(g1499
g325
Ntp2030
Rp2031
(dp2032
g1503
g1077
sg1504
(lp2033
g1066
asg349
g1075
sbsS's3eClipboard.h'
p2034
g323
(g1499
g325
Ntp2035
Rp2036
(dp2037
g1503
g1511
sg1504
g1527
sg349
S'c:/marmalade/7.5/s3e/h/s3eClipboard.h'
p2038
sbsS'IwGxFuncTable.h'
p2039
g323
(g1499
g325
Ntp2040
Rp2041
(dp2042
g1503
g1308
sg1504
g1633
sg349
g1313
sbsS'IwResHandlerGROUP.h'
p2043
g323
(g1499
g325
Ntp2044
Rp2045
(dp2046
g1503
g1284
sg1504
(lp2047
g1144
ag1280
asg349
g1289
sbsS's3eDebug.h'
p2048
g323
(g1499
g325
Ntp2049
Rp2050
(dp2051
g1503
g1511
sg1504
g1527
sg349
S'c:/marmalade/7.5/s3e/h/s3eDebug.h'
p2052
sbsS'socket.h'
p2053
g323
(g1499
g325
Ntp2054
Rp2055
(dp2056
g1503
g1511
sg1504
g1647
sg349
S'c:/marmalade/7.5/s3e/h/std/sys/socket.h'
p2057
sbsS'glext.h'
p2058
g323
(g1499
g325
Ntp2059
Rp2060
(dp2061
g1503
g1511
sg1504
(lp2062
g1513
aS'GL'
p2063
aS'GLES 1.x'
p2064
asg349
S'c:/marmalade/7.5/s3e/h/GLES/glext.h'
p2065
sbsS'typeinfo.h'
p2066
g323
(g1499
g325
Ntp2067
Rp2068
(dp2069
g1503
g1511
sg1504
g1512
sg349
S'c:/marmalade/7.5/s3e/h/std/c++/typeinfo.h'
p2070
sbsS'typeinfo'
p2071
g323
(g1499
g325
Ntp2072
Rp2073
(dp2074
g1503
g1511
sg1504
g1512
sg349
S'c:/marmalade/7.5/s3e/h/std/c++/typeinfo'
p2075
sbsS'fstream.h'
p2076
g323
(g1499
g325
Ntp2077
Rp2078
(dp2079
g1503
g1511
sg1504
g1512
sg349
S'c:/marmalade/7.5/s3e/h/std/c++/fstream.h'
p2080
sbsS's3ePointer.h'
p2081
g323
(g1499
g325
Ntp2082
Rp2083
(dp2084
g1503
g1511
sg1504
g1527
sg349
S'c:/marmalade/7.5/s3e/h/s3ePointer.h'
p2085
sbsS'IwMemBucket.h'
p2086
g323
(g1499
g325
Ntp2087
Rp2088
(dp2089
g1503
g1372
sg1504
g1540
sg349
g1419
sbsS'PVRTexTool.h'
p2090
g323
(g1499
g325
Ntp2091
Rp2092
(dp2093
g1503
g1131
sg1504
(lp2094
g1123
ag1125
asg349
g1134
sbsS's3eGL.h'
p2095
g323
(g1499
g325
Ntp2096
Rp2097
(dp2098
g1503
g1511
sg1504
g1527
sg349
S'c:/marmalade/7.5/s3e/h/s3eGL.h'
p2099
sbsS'IwGeomFVec2.h'
p2100
g323
(g1499
g325
Ntp2101
Rp2102
(dp2103
g1503
g1208
sg1504
g1561
sg349
g1242
sbsS'IwGeomSVec4.h'
p2104
g323
(g1499
g325
Ntp2105
Rp2106
(dp2107
g1503
g1208
sg1504
g1561
sg349
g1244
sbsS'poll.h'
p2108
g323
(g1499
g325
Ntp2109
Rp2110
(dp2111
g1503
g1511
sg1504
g1533
sg349
S'c:/marmalade/7.5/s3e/h/std/poll.h'
p2112
sbsS'IwMatAnim.h'
p2113
g323
(g1499
g325
Ntp2114
Rp2115
(dp2116
g1503
g1308
sg1504
g1633
sg349
g1321
sbsS'PVRTexTool.defines.txt'
p2117
g323
(g1499
g325
Ntp2118
Rp2119
(dp2120
g1503
g1131
sg1504
(lp2121
g1123
ag1125
ag1127
asg349
g1129
sbsS'IwGx.h'
p2122
g323
(g1499
g325
Ntp2123
Rp2124
(dp2125
g1503
g1308
sg1504
g1633
sg349
g1329
sbsS'valarray'
p2126
g323
(g1499
g325
Ntp2127
Rp2128
(dp2129
g1503
g1511
sg1504
g1512
sg349
S'c:/marmalade/7.5/s3e/h/std/c++/valarray'
p2130
sbsS'iosfwd'
p2131
g323
(g1499
g325
Ntp2132
Rp2133
(dp2134
g1503
g1511
sg1504
g1512
sg349
S'c:/marmalade/7.5/s3e/h/std/c++/iosfwd'
p2135
sbsS'gl2.h'
p2136
g323
(g1499
g325
Ntp2137
Rp2138
(dp2139
g1503
g1511
sg1504
g1748
sg349
S'c:/marmalade/7.5/s3e/h/GLES2/gl2.h'
p2140
sbsS'jpegint.h'
p2141
g323
(g1499
g325
Ntp2142
Rp2143
(dp2144
g1503
g1086
sg1504
g1591
sg349
g1101
sbsS'stdiostream.h'
p2145
g323
(g1499
g325
Ntp2146
Rp2147
(dp2148
g1503
g1511
sg1504
g1512
sg349
S'c:/marmalade/7.5/s3e/h/std/c++/stdiostream.h'
p2149
sbsS'mem.h'
p2150
g323
(g1499
g325
Ntp2151
Rp2152
(dp2153
g1503
g1511
sg1504
g1512
sg349
S'c:/marmalade/7.5/s3e/h/std/c++/mem.h'
p2154
sbsS'jerror.h'
p2155
g323
(g1499
g325
Ntp2156
Rp2157
(dp2158
g1503
g1086
sg1504
g1591
sg349
g1084
sbsS'zconf.h'
p2159
g323
(g1499
g325
Ntp2160
Rp2161
(dp2162
g1503
g1477
sg1504
(lp2163
g1472
ag1068
asg349
g1475
sbsS's3e.config.txt'
p2164
g323
(g1499
g325
Ntp2165
Rp2166
(dp2167
g1503
g1511
sg1504
g1527
sg349
S'c:/marmalade/7.5/s3e/s3e.config.txt'
p2168
sbsS'numeric'
p2169
g323
(g1499
g325
Ntp2170
Rp2171
(dp2172
g1503
g1511
sg1504
g1512
sg349
S'c:/marmalade/7.5/s3e/h/std/c++/numeric'
p2173
sbsS'utime.h'
p2174
g323
(g1499
g325
Ntp2175
Rp2176
(dp2177
g1503
g1511
sg1504
g1533
sg349
S'c:/marmalade/7.5/s3e/h/std/utime.h'
p2178
sbsS'jdhuff.h'
p2179
g323
(g1499
g325
Ntp2180
Rp2181
(dp2182
g1503
g1086
sg1504
g1591
sg349
g1087
sbsS'IwGxStream.h'
p2183
g323
(g1499
g325
Ntp2184
Rp2185
(dp2186
g1503
g1308
sg1504
g1633
sg349
g1319
sbsS'IwImage.h'
p2187
g323
(g1499
g325
Ntp2188
Rp2189
(dp2190
g1503
g1372
sg1504
g1540
sg349
g1415
sbsS's3eImagePicker.h'
p2191
g323
(g1499
g325
Ntp2192
Rp2193
(dp2194
g1503
g1511
sg1504
g1716
sg349
S'c:/marmalade/7.5/s3e/h/ext/s3eImagePicker.h'
p2195
sbsS'IwTextParserITX.h'
p2196
g323
(g1499
g325
Ntp2197
Rp2198
(dp2199
g1503
g1372
sg1504
g1540
sg349
g1411
sbsS'stdlib.h'
p2200
g323
(g1499
g325
Ntp2201
Rp2202
(dp2203
g1503
g1511
sg1504
g1533
sg349
S'c:/marmalade/7.5/s3e/h/std/stdlib.h'
p2204
sbsS'IwCopyingPtr.h'
p2205
g323
(g1499
g325
Ntp2206
Rp2207
(dp2208
g1503
g1372
sg1504
g1540
sg349
g1454
sbsS'iostream'
p2209
g323
(g1499
g325
Ntp2210
Rp2211
(dp2212
g1503
g1511
sg1504
g1512
sg349
S'c:/marmalade/7.5/s3e/h/std/c++/iostream'
p2213
sbsS'png.h'
p2214
g323
(g1499
g325
Ntp2215
Rp2216
(dp2217
g1503
g1072
sg1504
(lp2218
g1066
ag1068
asg349
g1070
sbsS'stddef.h'
p2219
g323
(g1499
g325
Ntp2220
Rp2221
(dp2222
g1503
g1511
sg1504
g1533
sg349
S'c:/marmalade/7.5/s3e/h/std/stddef.h'
p2223
sbsS'setjmp_win32.h'
p2224
g323
(g1499
g325
Ntp2225
Rp2226
(dp2227
g1503
g1511
sg1504
g1533
sg349
S'c:/marmalade/7.5/s3e/h/std/setjmp_win32.h'
p2228
sbsS'IwGxPrint.h'
p2229
g323
(g1499
g325
Ntp2230
Rp2231
(dp2232
g1503
g1308
sg1504
g1633
sg349
g1317
sbsS'iwgx_public.defines.txt'
p2233
g323
(g1499
g325
Ntp2234
Rp2235
(dp2236
g1503
g1308
sg1504
g1633
sg349
g1331
sbsS'streambuf.h'
p2237
g323
(g1499
g325
Ntp2238
Rp2239
(dp2240
g1503
g1511
sg1504
g1512
sg349
S'c:/marmalade/7.5/s3e/h/std/c++/streambuf.h'
p2241
sbsS'IwGeomFPlane.h'
p2242
g323
(g1499
g325
Ntp2243
Rp2244
(dp2245
g1503
g1208
sg1504
g1561
sg349
g1272
sbsS'wchar.h'
p2246
g323
(g1499
g325
Ntp2247
Rp2248
(dp2249
g1503
g1511
sg1504
g1533
sg349
S'c:/marmalade/7.5/s3e/h/std/wchar.h'
p2250
sbsS's3eCameraCapture.h'
p2251
g323
(g1499
g325
Ntp2252
Rp2253
(dp2254
g1503
g1511
sg1504
g1716
sg349
S'c:/marmalade/7.5/s3e/h/ext/s3eCameraCapture.h'
p2255
sbsS'eglext.h'
p2256
g323
(g1499
g325
Ntp2257
Rp2258
(dp2259
g1503
g1511
sg1504
g1845
sg349
S'c:/marmalade/7.5/s3e/h/EGL/eglext.h'
p2260
sbsS'IwResHandlerImage.h'
p2261
g323
(g1499
g325
Ntp2262
Rp2263
(dp2264
g1503
g1284
sg1504
g2047
sg349
g1302
sbsS'strstream.h'
p2265
g323
(g1499
g325
Ntp2266
Rp2267
(dp2268
g1503
g1511
sg1504
g1512
sg349
S'c:/marmalade/7.5/s3e/h/std/c++/strstream.h'
p2269
sbsS'tiniconv.h'
p2270
g323
(g1499
g325
Ntp2271
Rp2272
(dp2273
g1503
g1120
sg1504
g1956
sg349
g1121
sbsS'IwGLExt.h'
p2274
g323
(g1499
g325
Ntp2275
Rp2276
(dp2277
g1503
g1165
sg1504
g1521
sg349
g1168
sbsS'app.icf'
p2278
g323
(g1499
g325
Ntp2279
Rp2280
(dp2281
g1503
(dp2282
sg1504
g4
sg349
S'd:/School/cs115/AmazingMaze/data/app.icf'
p2283
sbsS'IwClassFactory.h'
p2284
g323
(g1499
g325
Ntp2285
Rp2286
(dp2287
g1503
g1372
sg1504
g1540
sg349
g1389
sbsS'file.h'
p2288
g323
(g1499
g325
Ntp2289
Rp2290
(dp2291
g1503
g1511
sg1504
g1647
sg349
S'c:/marmalade/7.5/s3e/h/std/sys/file.h'
p2292
sbsS'cstring'
p2293
g323
(g1499
g325
Ntp2294
Rp2295
(dp2296
g1503
g1511
sg1504
g1512
sg349
S'c:/marmalade/7.5/s3e/h/std/c++/cstring'
p2297
sbsS'iwutil.config.txt'
p2298
g323
(g1499
g325
Ntp2299
Rp2300
(dp2301
g1503
g1372
sg1504
g1540
sg349
g1405
sbsS's3eSMS.h'
p2302
g323
(g1499
g325
Ntp2303
Rp2304
(dp2305
g1503
g1511
sg1504
g1716
sg349
S'c:/marmalade/7.5/s3e/h/ext/s3eSMS.h'
p2306
sbsS'limits.h'
p2307
g323
(g1499
g325
Ntp2308
Rp2309
(dp2310
g1503
g1511
sg1504
g1533
sg349
S'c:/marmalade/7.5/s3e/h/std/limits.h'
p2311
sbsS'iwgl.config.txt'
p2312
g323
(g1499
g325
Ntp2313
Rp2314
(dp2315
g1503
g1165
sg1504
g1521
sg349
g1166
sbsS'IwMaterial.h'
p2316
g323
(g1499
g325
Ntp2317
Rp2318
(dp2319
g1503
g1308
sg1504
g1633
sg349
g1337
sbsS'PVRTexTool_interface.cpp'
p2320
g323
(g1499
g325
Ntp2321
Rp2322
(dp2323
g1503
g1131
sg1504
g2121
sg349
g1132
sbsS'IwGxSurface.h'
p2324
g323
(g1499
g325
Ntp2325
Rp2326
(dp2327
g1503
g1308
sg1504
g1633
sg349
g1325
sbsS's3eSocket.h'
p2328
g323
(g1499
g325
Ntp2329
Rp2330
(dp2331
g1503
g1511
sg1504
g1527
sg349
S'c:/marmalade/7.5/s3e/h/s3eSocket.h'
p2332
sbsS'IwAutoFile.h'
p2333
g323
(g1499
g325
Ntp2334
Rp2335
(dp2336
g1503
g1372
sg1504
g1540
sg349
g1433
sbsS'ipc.h'
p2337
g323
(g1499
g325
Ntp2338
Rp2339
(dp2340
g1503
g1511
sg1504
g1647
sg349
S'c:/marmalade/7.5/s3e/h/std/sys/ipc.h'
p2341
sbsS'poll_1.h'
p2342
g323
(g1499
g325
Ntp2343
Rp2344
(dp2345
g1503
g1511
sg1504
g1647
sg349
S'c:/marmalade/7.5/s3e/h/std/sys/poll.h'
p2346
sbsS's3eThread.h'
p2347
g323
(g1499
g325
Ntp2348
Rp2349
(dp2350
g1503
g1511
sg1504
g1527
sg349
S'c:/marmalade/7.5/s3e/h/s3eThread.h'
p2351
sbsS'ucontext.h'
p2352
g323
(g1499
g325
Ntp2353
Rp2354
(dp2355
g1503
g1511
sg1504
g1533
sg349
S'c:/marmalade/7.5/s3e/h/std/ucontext.h'
p2356
sbsS'time.h'
p2357
g323
(g1499
g325
Ntp2358
Rp2359
(dp2360
g1503
g1511
sg1504
g1533
sg349
S'c:/marmalade/7.5/s3e/h/std/time.h'
p2361
sbsS'jchuff.h'
p2362
g323
(g1499
g325
Ntp2363
Rp2364
(dp2365
g1503
g1086
sg1504
g1591
sg349
g1103
sbsS's3eSoundRecord.h'
p2366
g323
(g1499
g325
Ntp2367
Rp2368
(dp2369
g1503
g1511
sg1504
g1527
sg349
S'c:/marmalade/7.5/s3e/h/s3eSoundRecord.h'
p2370
sbsS'IwFibre.h'
p2371
g323
(g1499
g325
Ntp2372
Rp2373
(dp2374
g1503
g1372
sg1504
g1540
sg349
g1458
sbsS's3eVersion.h'
p2375
g323
(g1499
g325
Ntp2376
Rp2377
(dp2378
g1503
g1511
sg1504
g1527
sg349
S'c:/marmalade/7.5/s3e/h/s3eVersion.h'
p2379
sbsS'IwGxFontGlyph.h'
p2380
g323
(g1499
g325
Ntp2381
Rp2382
(dp2383
g1503
g1186
sg1504
g1505
sg349
g1184
sbsS's3eTypes.h'
p2384
g323
(g1499
g325
Ntp2385
Rp2386
(dp2387
g1503
g1511
sg1504
g1527
sg349
S'c:/marmalade/7.5/s3e/h/s3eTypes.h'
p2388
sbsS'signal_2.h'
p2389
g323
(g1499
g325
Ntp2390
Rp2391
(dp2392
g1503
g1511
sg1504
g1512
sg349
S'c:/marmalade/7.5/s3e/h/std/c++/signal.h'
p2393
sbsS'termios.h'
p2394
g323
(g1499
g325
Ntp2395
Rp2396
(dp2397
g1503
g1511
sg1504
g1533
sg349
S'c:/marmalade/7.5/s3e/h/std/termios.h'
p2398
sbsS'iw2dscenegraph.mkf'
p2399
g323
(g1499
g325
Ntp2400
Rp2401
(dp2402
g1503
g1157
sg1504
g1756
sg349
g1155
sbsS'slist'
p2403
g323
(g1499
g325
Ntp2404
Rp2405
(dp2406
g1503
g1511
sg1504
g1512
sg349
S'c:/marmalade/7.5/s3e/h/std/c++/slist'
p2407
sbsS'cstdlib'
p2408
g323
(g1499
g325
Ntp2409
Rp2410
(dp2411
g1503
g1511
sg1504
g1512
sg349
S'c:/marmalade/7.5/s3e/h/std/c++/cstdlib'
p2412
sbsS's3eLocation.h'
p2413
g323
(g1499
g325
Ntp2414
Rp2415
(dp2416
g1503
g1511
sg1504
g1527
sg349
S'c:/marmalade/7.5/s3e/h/s3eLocation.h'
p2417
sbsS'IwMemBucketHelpers.h'
p2418
g323
(g1499
g325
Ntp2419
Rp2420
(dp2421
g1503
g1372
sg1504
g1540
sg349
g1409
sbsS's3eHash.h'
p2422
g323
(g1499
g325
Ntp2423
Rp2424
(dp2425
g1503
g1511
sg1504
g1527
sg349
S'c:/marmalade/7.5/s3e/h/s3eHash.h'
p2426
sbsS'IwGeomFMat.h'
p2427
g323
(g1499
g325
Ntp2428
Rp2429
(dp2430
g1503
g1208
sg1504
g1561
sg349
g1236
sbsS'type_traits.h'
p2431
g323
(g1499
g325
Ntp2432
Rp2433
(dp2434
g1503
g1511
sg1504
g1512
sg349
S'c:/marmalade/7.5/s3e/h/std/c++/type_traits.h'
p2435
sbsS's3eAtomic.h'
p2436
g323
(g1499
g325
Ntp2437
Rp2438
(dp2439
g1503
g1511
sg1504
g1527
sg349
S'c:/marmalade/7.5/s3e/h/s3eAtomic.h'
p2440
sbsS'IwMenu.h'
p2441
g323
(g1499
g325
Ntp2442
Rp2443
(dp2444
g1503
g1372
sg1504
g1540
sg349
g1462
sbsS'IwResHandlerITX.h'
p2445
g323
(g1499
g325
Ntp2446
Rp2447
(dp2448
g1503
g1284
sg1504
g2047
sg349
g1282
sbsS'IwArray.h'
p2449
g323
(g1499
g325
Ntp2450
Rp2451
(dp2452
g1503
g1372
sg1504
g1540
sg349
g1460
sbsS'IwUTF8.h'
p2453
g323
(g1499
g325
Ntp2454
Rp2455
(dp2456
g1503
g1372
sg1504
g1540
sg349
g1403
sbsS'math_rvct.h'
p2457
g323
(g1499
g325
Ntp2458
Rp2459
(dp2460
g1503
g1511
sg1504
g1533
sg349
S'c:/marmalade/7.5/s3e/h/std/math_rvct.h'
p2461
sbsS'IwUtil.h'
p2462
g323
(g1499
g325
Ntp2463
Rp2464
(dp2465
g1503
g1372
sg1504
g1540
sg349
g1444
sbsS'IwFColour.h'
p2466
g323
(g1499
g325
Ntp2467
Rp2468
(dp2469
g1503
g1308
sg1504
g1633
sg349
g1343
sbsS'wctype.h'
p2470
g323
(g1499
g325
Ntp2471
Rp2472
(dp2473
g1503
g1511
sg1504
g1533
sg349
S'c:/marmalade/7.5/s3e/h/std/wctype.h'
p2474
sbsS'cstddef'
p2475
g323
(g1499
g325
Ntp2476
Rp2477
(dp2478
g1503
g1511
sg1504
g1512
sg349
S'c:/marmalade/7.5/s3e/h/std/c++/cstddef'
p2479
sbsS'assert.h'
p2480
g323
(g1499
g325
Ntp2481
Rp2482
(dp2483
g1503
g1511
sg1504
g1533
sg349
S'c:/marmalade/7.5/s3e/h/std/assert.h'
p2484
sbsS'mman.h'
p2485
g323
(g1499
g325
Ntp2486
Rp2487
(dp2488
g1503
g1511
sg1504
g1647
sg349
S'c:/marmalade/7.5/s3e/h/std/sys/mman.h'
p2489
sbsS'IwRandom.h'
p2490
g323
(g1499
g325
Ntp2491
Rp2492
(dp2493
g1503
g1372
sg1504
g1540
sg349
g1399
sbsS'libgen.h'
p2494
g323
(g1499
g325
Ntp2495
Rp2496
(dp2497
g1503
g1511
sg1504
g1533
sg349
S'c:/marmalade/7.5/s3e/h/std/libgen.h'
p2498
sbsS'utsname.h'
p2499
g323
(g1499
g325
Ntp2500
Rp2501
(dp2502
g1503
g1511
sg1504
g1647
sg349
S'c:/marmalade/7.5/s3e/h/std/sys/utsname.h'
p2503
sbsS'wait.h'
p2504
g323
(g1499
g325
Ntp2505
Rp2506
(dp2507
g1503
g1511
sg1504
g1647
sg349
S'c:/marmalade/7.5/s3e/h/std/sys/wait.h'
p2508
sbsS'param.h'
p2509
g323
(g1499
g325
Ntp2510
Rp2511
(dp2512
g1503
g1511
sg1504
g1647
sg349
S'c:/marmalade/7.5/s3e/h/std/sys/param.h'
p2513
sbsS'IwDivide.h'
p2514
g323
(g1499
g325
Ntp2515
Rp2516
(dp2517
g1503
g1372
sg1504
g1540
sg349
g1379
sbsS'Iw2DSceneGraphCore.cpp'
p2518
g323
(g1499
g325
Ntp2519
Rp2520
(dp2521
g1503
g1365
sg1504
(lp2522
S"'Marmalade Studio'"
p2523
ag1358
asg349
g1366
sbsS'IwResManager.h'
p2524
g323
(g1499
g325
Ntp2525
Rp2526
(dp2527
g1503
g1284
sg1504
g2047
sg349
g1291
sbsS'ostream'
p2528
g323
(g1499
g325
Ntp2529
Rp2530
(dp2531
g1503
g1511
sg1504
g1512
sg349
S'c:/marmalade/7.5/s3e/h/std/c++/ostream'
p2532
sbsS'cwctype'
p2533
g323
(g1499
g325
Ntp2534
Rp2535
(dp2536
g1503
g1511
sg1504
g1512
sg349
S'c:/marmalade/7.5/s3e/h/std/c++/cwctype'
p2537
sbsS'set'
p2538
g323
(g1499
g325
Ntp2539
Rp2540
(dp2541
g1503
g1511
sg1504
g1512
sg349
S'c:/marmalade/7.5/s3e/h/std/c++/set'
p2542
sbsS'IwGeomSQuat.h'
p2543
g323
(g1499
g325
Ntp2544
Rp2545
(dp2546
g1503
g1208
sg1504
g1561
sg349
g1232
sbsS'locale'
p2547
g323
(g1499
g325
Ntp2548
Rp2549
(dp2550
g1503
g1511
sg1504
g1512
sg349
S'c:/marmalade/7.5/s3e/h/std/c++/locale'
p2551
sbsS'cstdio'
p2552
g323
(g1499
g325
Ntp2553
Rp2554
(dp2555
g1503
g1511
sg1504
g1512
sg349
S'c:/marmalade/7.5/s3e/h/std/c++/cstdio'
p2556
sbsS'cdjpeg.h'
p2557
g323
(g1499
g325
Ntp2558
Rp2559
(dp2560
g1503
g1086
sg1504
g1591
sg349
g1105
sbsS'IwList.h'
p2561
g323
(g1499
g325
Ntp2562
Rp2563
(dp2564
g1503
g1372
sg1504
g1540
sg349
g1431
sbsS'inttypes.h'
p2565
g323
(g1499
g325
Ntp2566
Rp2567
(dp2568
g1503
g1511
sg1504
g1533
sg349
S'c:/marmalade/7.5/s3e/h/std/inttypes.h'
p2569
sbsS'dirent.h'
p2570
g323
(g1499
g325
Ntp2571
Rp2572
(dp2573
g1503
g1511
sg1504
g1533
sg349
S'c:/marmalade/7.5/s3e/h/std/dirent.h'
p2574
sbsS'IwGeomVec3.h'
p2575
g323
(g1499
g325
Ntp2576
Rp2577
(dp2578
g1503
g1208
sg1504
g1561
sg349
g1226
sbsS'transupp.h'
p2579
g323
(g1499
g325
Ntp2580
Rp2581
(dp2582
g1503
g1086
sg1504
g1591
sg349
g1091
sbsS'IwMath.h'
p2583
g323
(g1499
g325
Ntp2584
Rp2585
(dp2586
g1503
g1372
sg1504
g1540
sg349
g1373
sbsS'IwGeomQuat.h'
p2587
g323
(g1499
g325
Ntp2588
Rp2589
(dp2590
g1503
g1208
sg1504
g1561
sg349
g1276
sbsS'glplatform.h'
p2591
g323
(g1499
g325
Ntp2592
Rp2593
(dp2594
g1503
g1511
sg1504
g2062
sg349
S'c:/marmalade/7.5/s3e/h/GLES/glplatform.h'
p2595
sbsS's3e-default.mkf'
p2596
g323
(g1499
g325
Ntp2597
Rp2598
(dp2599
g1503
g1143
sg1504
(lp2600
g1139
asg349
g1141
sbsS'bitset'
p2601
g323
(g1499
g325
Ntp2602
Rp2603
(dp2604
g1503
g1511
sg1504
g1512
sg349
S'c:/marmalade/7.5/s3e/h/std/c++/bitset'
p2605
sbsS'alloca.h'
p2606
g323
(g1499
g325
Ntp2607
Rp2608
(dp2609
g1503
g1511
sg1504
g1533
sg349
S'c:/marmalade/7.5/s3e/h/std/alloca.h'
p2610
sbsS'IwResHandler.h'
p2611
g323
(g1499
g325
Ntp2612
Rp2613
(dp2614
g1503
g1284
sg1504
g2047
sg349
g1300
sbsS'IwResHandlerMTL.h'
p2615
g323
(g1499
g325
Ntp2616
Rp2617
(dp2618
g1503
g1308
sg1504
g1633
sg349
g1315
sbsS'IwRuntime.h'
p2619
g323
(g1499
g325
Ntp2620
Rp2621
(dp2622
g1503
g1372
sg1504
g1540
sg349
g1423
sbsS'limits'
p2623
g323
(g1499
g325
Ntp2624
Rp2625
(dp2626
g1503
g1511
sg1504
g1512
sg349
S'c:/marmalade/7.5/s3e/h/std/c++/limits'
p2627
sbsS'IwGeomBBox.h'
p2628
g323
(g1499
g325
Ntp2629
Rp2630
(dp2631
g1503
g1208
sg1504
g1561
sg349
g1266
sbsS's3eContacts.h'
p2632
g323
(g1499
g325
Ntp2633
Rp2634
(dp2635
g1503
g1511
sg1504
g1527
sg349
S'c:/marmalade/7.5/s3e/h/s3eContacts.h'
p2636
sbsS's3eLicense.h'
p2637
g323
(g1499
g325
Ntp2638
Rp2639
(dp2640
g1503
g1511
sg1504
g1527
sg349
S'c:/marmalade/7.5/s3e/h/s3eLicense.h'
p2641
sbsS'iwgx.config.txt'
p2642
g323
(g1499
g325
Ntp2643
Rp2644
(dp2645
g1503
g1308
sg1504
g1633
sg349
g1350
sbsS'IwTextParser.h'
p2646
g323
(g1499
g325
Ntp2647
Rp2648
(dp2649
g1503
g1372
sg1504
g1540
sg349
g1452
sbsS's3eTimer.h'
p2650
g323
(g1499
g325
Ntp2651
Rp2652
(dp2653
g1503
g1511
sg1504
g1527
sg349
S'c:/marmalade/7.5/s3e/h/s3eTimer.h'
p2654
sbsS'IwGeomVec.h'
p2655
g323
(g1499
g325
Ntp2656
Rp2657
(dp2658
g1503
g1208
sg1504
g1561
sg349
g1252
sbsS'IwSerialise.h'
p2659
g323
(g1499
g325
Ntp2660
Rp2661
(dp2662
g1503
g1372
sg1504
g1540
sg349
g1470
sbsS'cstdarg'
p2663
g323
(g1499
g325
Ntp2664
Rp2665
(dp2666
g1503
g1511
sg1504
g1512
sg349
S'c:/marmalade/7.5/s3e/h/std/c++/cstdarg'
p2667
sbsS'gl2ext.h'
p2668
g323
(g1499
g325
Ntp2669
Rp2670
(dp2671
g1503
g1511
sg1504
g1748
sg349
S'c:/marmalade/7.5/s3e/h/GLES2/gl2ext.h'
p2672
sbsS'IwChar.h'
p2673
g323
(g1499
g325
Ntp2674
Rp2675
(dp2676
g1503
g1372
sg1504
g1540
sg349
g1397
sbsS's3eSound.h'
p2677
g323
(g1499
g325
Ntp2678
Rp2679
(dp2680
g1503
g1511
sg1504
g1527
sg349
S'c:/marmalade/7.5/s3e/h/s3eSound.h'
p2681
sbsS'IwOptimiseThumb.h'
p2682
g323
(g1499
g325
Ntp2683
Rp2684
(dp2685
g1503
g1372
sg1504
g1540
sg349
g1439
sbsS'exception.h'
p2686
g323
(g1499
g325
Ntp2687
Rp2688
(dp2689
g1503
g1511
sg1504
g1512
sg349
S'c:/marmalade/7.5/s3e/h/std/c++/exception.h'
p2690
sbsS'iwgeom.config.txt'
p2691
g323
(g1499
g325
Ntp2692
Rp2693
(dp2694
g1503
g1208
sg1504
g1561
sg349
g1274
sbsS'iwgx.mkf'
p2695
g323
(g1499
g325
Ntp2696
Rp2697
(dp2698
g1503
g1349
sg1504
g1633
sg349
g1347
sbsS'gl.h'
p2699
g323
(g1499
g325
Ntp2700
Rp2701
(dp2702
g1503
g1511
sg1504
g2062
sg349
S'c:/marmalade/7.5/s3e/h/GLES/gl.h'
p2703
sbsS'zlib.h'
p2704
g323
(g1499
g325
Ntp2705
Rp2706
(dp2707
g1503
g1477
sg1504
g2163
sg349
g1478
sbsS'temp_defines_release.h'
p2708
g323
(g1499
g325
Ntp2709
Rp2710
(dp2711
g1503
(lp2712
sg1504
(lp2713
S"'generated files'"
p2714
asg349
S'd:/School/cs115/AmazingMaze/build_amazingmaze_vc12/temp_defines_release.h'
p2715
sbsS'iwgl.mkf'
p2716
g323
(g1499
g325
Ntp2717
Rp2718
(dp2719
g1503
g1162
sg1504
g1521
sg349
g1160
sbsS'IwColour.h'
p2720
g323
(g1499
g325
Ntp2721
Rp2722
(dp2723
g1503
g1308
sg1504
g1633
sg349
g1352
sbsS's3eLibrary.h'
p2724
g323
(g1499
g325
Ntp2725
Rp2726
(dp2727
g1503
g1511
sg1504
g1716
sg349
S'c:/marmalade/7.5/s3e/h/ext/s3eLibrary.h'
p2728
sbsS'types.h'
p2729
g323
(g1499
g325
Ntp2730
Rp2731
(dp2732
g1503
g1511
sg1504
g1647
sg349
S'c:/marmalade/7.5/s3e/h/std/sys/types.h'
p2733
sbsS'ifaddrs.h'
p2734
g323
(g1499
g325
Ntp2735
Rp2736
(dp2737
g1503
g1511
sg1504
g1533
sg349
S'c:/marmalade/7.5/s3e/h/std/ifaddrs.h'
p2738
sbsS'strstream'
p2739
g323
(g1499
g325
Ntp2740
Rp2741
(dp2742
g1503
g1511
sg1504
g1512
sg349
S'c:/marmalade/7.5/s3e/h/std/c++/strstream'
p2743
sbsS'IwTween.cpp'
p2744
g323
(g1499
g325
Ntp2745
Rp2746
(dp2747
g1503
g1487
sg1504
g1999
sg349
g1488
sbsS'exception'
p2748
g323
(g1499
g325
Ntp2749
Rp2750
(dp2751
g1503
g1511
sg1504
g1512
sg349
S'c:/marmalade/7.5/s3e/h/std/c++/exception'
p2752
sbsS'rlocks.h'
p2753
g323
(g1499
g325
Ntp2754
Rp2755
(dp2756
g1503
g1511
sg1504
g1512
sg349
S'c:/marmalade/7.5/s3e/h/std/c++/rlocks.h'
p2757
sbsS'ioctl.h'
p2758
g323
(g1499
g325
Ntp2759
Rp2760
(dp2761
g1503
g1511
sg1504
g1647
sg349
S'c:/marmalade/7.5/s3e/h/std/sys/ioctl.h'
p2762
sbsS'rope'
p2763
g323
(g1499
g325
Ntp2764
Rp2765
(dp2766
g1503
g1511
sg1504
g1512
sg349
S'c:/marmalade/7.5/s3e/h/std/c++/rope'
p2767
sbsS'jinclude.h'
p2768
g323
(g1499
g325
Ntp2769
Rp2770
(dp2771
g1503
g1086
sg1504
g1591
sg349
g1093
sbsS'IwEvent.h'
p2772
g323
(g1499
g325
Ntp2773
Rp2774
(dp2775
g1503
g1372
sg1504
g1540
sg349
g1456
sbsS'IwOptimiseSize.h'
p2776
g323
(g1499
g325
Ntp2777
Rp2778
(dp2779
g1503
g1372
sg1504
g1540
sg349
g1421
sbsS'iwgxfont_public.defines.txt'
p2780
g323
(g1499
g325
Ntp2781
Rp2782
(dp2783
g1503
g1186
sg1504
g1505
sg349
g1202
sbsS'iconv.h'
p2784
g323
(g1499
g325
Ntp2785
Rp2786
(dp2787
g1503
g1511
sg1504
g1533
sg349
S'c:/marmalade/7.5/s3e/h/std/iconv.h'
p2788
sbsS'sendfile.h'
p2789
g323
(g1499
g325
Ntp2790
Rp2791
(dp2792
g1503
g1511
sg1504
g1647
sg349
S'c:/marmalade/7.5/s3e/h/std/sys/sendfile.h'
p2793
sbsS'IwGeomSphere.h'
p2794
g323
(g1499
g325
Ntp2795
Rp2796
(dp2797
g1503
g1208
sg1504
g1561
sg349
g1209
sbsS'tiniconv.mkf'
p2798
g323
(g1499
g325
Ntp2799
Rp2800
(dp2801
g1503
g1117
sg1504
g1956
sg349
g1115
sbsS'IwResManagerClass.h'
p2802
g323
(g1499
g325
Ntp2803
Rp2804
(dp2805
g1503
g1284
sg1504
g2047
sg349
g1287
sbsS'jdct.h'
p2806
g323
(g1499
g325
Ntp2807
Rp2808
(dp2809
g1503
g1086
sg1504
g1591
sg349
g1097
sbsS'cctype'
p2810
g323
(g1499
g325
Ntp2811
Rp2812
(dp2813
g1503
g1511
sg1504
g1512
sg349
S'c:/marmalade/7.5/s3e/h/std/c++/cctype'
p2814
sbsS's3eConfig.h'
p2815
g323
(g1499
g325
Ntp2816
Rp2817
(dp2818
g1503
g1511
sg1504
g1527
sg349
S'c:/marmalade/7.5/s3e/h/s3eConfig.h'
p2819
sbsS'IwHashString.h'
p2820
g323
(g1499
g325
Ntp2821
Rp2822
(dp2823
g1503
g1372
sg1504
g1540
sg349
g1437
sbsS'stat.h'
p2824
g323
(g1499
g325
Ntp2825
Rp2826
(dp2827
g1503
g1511
sg1504
g1647
sg349
S'c:/marmalade/7.5/s3e/h/std/sys/stat.h'
p2828
sbsS'byteswap.h'
p2829
g323
(g1499
g325
Ntp2830
Rp2831
(dp2832
g1503
g1511
sg1504
g1533
sg349
S'c:/marmalade/7.5/s3e/h/std/byteswap.h'
p2833
sbsS'iwresmanager.mkf'
p2834
g323
(g1499
g325
Ntp2835
Rp2836
(dp2837
g1503
g1295
sg1504
g2047
sg349
g1293
sbsS'IwUtilInitTerm.h'
p2838
g323
(g1499
g325
Ntp2839
Rp2840
(dp2841
g1503
g1372
sg1504
g1540
sg349
g1466
sbsS'pthread_1.h'
p2842
g323
(g1499
g325
Ntp2843
Rp2844
(dp2845
g1503
g1511
sg1504
g1512
sg349
S'c:/marmalade/7.5/s3e/h/std/c++/pthread.h'
p2846
sbsS'iw2d.mkf'
p2847
g323
(g1499
g325
Ntp2848
Rp2849
(dp2850
g1503
g1181
sg1504
g1596
sg349
g1179
sbsS'complex'
p2851
g323
(g1499
g325
Ntp2852
Rp2853
(dp2854
g1503
g1511
sg1504
g1512
sg349
S'c:/marmalade/7.5/s3e/h/std/c++/complex'
p2855
sbsS's3e.icf'
p2856
g323
(g1499
g325
Ntp2857
Rp2858
(dp2859
g1503
g1511
sg1504
g1527
sg349
S'c:/marmalade/7.5/s3e/s3e.icf'
p2860
sbsS'IwVariableBitField.h'
p2861
g323
(g1499
g325
Ntp2862
Rp2863
(dp2864
g1503
g1372
sg1504
g1540
sg349
g1435
sbsS'sem.h'
p2865
g323
(g1499
g325
Ntp2866
Rp2867
(dp2868
g1503
g1511
sg1504
g1647
sg349
S'c:/marmalade/7.5/s3e/h/std/sys/sem.h'
p2869
sbsS'IwGxFontState.h'
p2870
g323
(g1499
g325
Ntp2871
Rp2872
(dp2873
g1503
g1186
sg1504
g1505
sg349
g1191
sbsS'stdio.h'
p2874
g323
(g1499
g325
Ntp2875
Rp2876
(dp2877
g1503
g1511
sg1504
g1533
sg349
S'c:/marmalade/7.5/s3e/h/std/stdio.h'
p2878
sbsS'jmemsys.h'
p2879
g323
(g1499
g325
Ntp2880
Rp2881
(dp2882
g1503
g1086
sg1504
g1591
sg349
g1099
sbsS'ios'
p2883
g323
(g1499
g325
Ntp2884
Rp2885
(dp2886
g1503
g1511
sg1504
g1512
sg349
S'c:/marmalade/7.5/s3e/h/std/c++/ios'
p2887
sbsS'IwTween.h'
p2888
g323
(g1499
g325
Ntp2889
Rp2890
(dp2891
g1503
g1487
sg1504
g1999
sg349
g1485
sbsS'IwGeomFVec4.h'
p2892
g323
(g1499
g325
Ntp2893
Rp2894
(dp2895
g1503
g1208
sg1504
g1561
sg349
g1256
sbsS'stack'
p2896
g323
(g1499
g325
Ntp2897
Rp2898
(dp2899
g1503
g1511
sg1504
g1512
sg349
S'c:/marmalade/7.5/s3e/h/std/c++/stack'
p2900
sbsS'new.h'
p2901
g323
(g1499
g325
Ntp2902
Rp2903
(dp2904
g1503
g1511
sg1504
g1512
sg349
S'c:/marmalade/7.5/s3e/h/std/c++/new.h'
p2905
sbsS's3eEMail.h'
p2906
g323
(g1499
g325
Ntp2907
Rp2908
(dp2909
g1503
g1511
sg1504
g1716
sg349
S'c:/marmalade/7.5/s3e/h/ext/s3eEMail.h'
p2910
sbsS's3eVideo.h'
p2911
g323
(g1499
g325
Ntp2912
Rp2913
(dp2914
g1503
g1511
sg1504
g1527
sg349
S'c:/marmalade/7.5/s3e/h/s3eVideo.h'
p2915
sbsS'pngconf.h'
p2916
g323
(g1499
g325
Ntp2917
Rp2918
(dp2919
g1503
g1072
sg1504
g2218
sg349
g1073
sbsS'pwd.h'
p2920
g323
(g1499
g325
Ntp2921
Rp2922
(dp2923
g1503
g1511
sg1504
g1533
sg349
S'c:/marmalade/7.5/s3e/h/std/pwd.h'
p2924
sbsS'gl3.h'
p2925
g323
(g1499
g325
Ntp2926
Rp2927
(dp2928
g1503
g1511
sg1504
g1813
sg349
S'c:/marmalade/7.5/s3e/h/GLES3/gl3.h'
p2929
sbsS'IwClip.h'
p2930
g323
(g1499
g325
Ntp2931
Rp2932
(dp2933
g1503
g1308
sg1504
g1633
sg349
g1323
sbsS'iwresmanager.config.txt'
p2934
g323
(g1499
g325
Ntp2935
Rp2936
(dp2937
g1503
g1284
sg1504
g2047
sg349
g1296
sbsS'IwGxShaderTechnique.h'
p2938
g323
(g1499
g325
Ntp2939
Rp2940
(dp2941
g1503
g1308
sg1504
g1633
sg349
g1335
sbsS'IwCore.h'
p2942
g323
(g1499
g325
Ntp2943
Rp2944
(dp2945
g1503
g1372
sg1504
g1540
sg349
g1377
sbsS'cfloat'
p2946
g323
(g1499
g325
Ntp2947
Rp2948
(dp2949
g1503
g1511
sg1504
g1512
sg349
S'c:/marmalade/7.5/s3e/h/std/c++/cfloat'
p2950
sbsS'IwGeomMat2D.h'
p2951
g323
(g1499
g325
Ntp2952
Rp2953
(dp2954
g1503
g1208
sg1504
g1561
sg349
g1240
sbsS'IwAllocator.h'
p2955
g323
(g1499
g325
Ntp2956
Rp2957
(dp2958
g1503
g1372
sg1504
g1540
sg349
g1407
sbsS'IwPath.h'
p2959
g323
(g1499
g325
Ntp2960
Rp2961
(dp2962
g1503
g1372
sg1504
g1540
sg349
g1427
sbsS'iwgxfont.mkf'
p2963
g323
(g1499
g325
Ntp2964
Rp2965
(dp2966
g1503
g1197
sg1504
g1505
sg349
g1195
sbsS'IwTexture.h'
p2967
g323
(g1499
g325
Ntp2968
Rp2969
(dp2970
g1503
g1308
sg1504
g1633
sg349
g1311
sbsS'IwGeomVec.h.tpl'
p2971
g323
(g1499
g325
Ntp2972
Rp2973
(dp2974
g1503
g1208
sg1504
g1561
sg349
g1250
sbsS's3eAccelerometer.h'
p2975
g323
(g1499
g325
Ntp2976
Rp2977
(dp2978
g1503
g1511
sg1504
g1527
sg349
S'c:/marmalade/7.5/s3e/h/s3eAccelerometer.h'
p2979
sbsS'setjmp.h'
p2980
g323
(g1499
g325
Ntp2981
Rp2982
(dp2983
g1503
g1511
sg1504
g1533
sg349
S'c:/marmalade/7.5/s3e/h/std/setjmp.h'
p2984
sbsS'IwFile.h'
p2985
g323
(g1499
g325
Ntp2986
Rp2987
(dp2988
g1503
g1372
sg1504
g1540
sg349
g1448
sbsS'IwTextParseable.h'
p2989
g323
(g1499
g325
Ntp2990
Rp2991
(dp2992
g1503
g1372
sg1504
g1540
sg349
g1395
sbsS'istream.h'
p2993
g323
(g1499
g325
Ntp2994
Rp2995
(dp2996
g1503
g1511
sg1504
g1512
sg349
S'c:/marmalade/7.5/s3e/h/std/c++/istream.h'
p2997
sbsS'stdint.h'
p2998
g323
(g1499
g325
Ntp2999
Rp3000
(dp3001
g1503
g1511
sg1504
g1533
sg349
S'c:/marmalade/7.5/s3e/h/std/stdint.h'
p3002
sbsS'semaphore.h'
p3003
g323
(g1499
g325
Ntp3004
Rp3005
(dp3006
g1503
g1511
sg1504
g1533
sg349
S'c:/marmalade/7.5/s3e/h/std/semaphore.h'
p3007
sbsS'ctime'
p3008
g323
(g1499
g325
Ntp3009
Rp3010
(dp3011
g1503
g1511
sg1504
g1512
sg349
S'c:/marmalade/7.5/s3e/h/std/c++/ctime'
p3012
sbsS'sstream'
p3013
g323
(g1499
g325
Ntp3014
Rp3015
(dp3016
g1503
g1511
sg1504
g1512
sg349
S'c:/marmalade/7.5/s3e/h/std/c++/sstream'
p3017
sbsS'IwGeomFBBox.h'
p3018
g323
(g1499
g325
Ntp3019
Rp3020
(dp3021
g1503
g1208
sg1504
g1561
sg349
g1234
sbsS'IwDebugPrim.h'
p3022
g323
(g1499
g325
Ntp3023
Rp3024
(dp3025
g1503
g1308
sg1504
g1633
sg349
g1306
sbsS'IwGxFontContainer.h'
p3026
g323
(g1499
g325
Ntp3027
Rp3028
(dp3029
g1503
g1186
sg1504
g1505
sg349
g1193
sbsS'IwGeomSVec3.h'
p3030
g323
(g1499
g325
Ntp3031
Rp3032
(dp3033
g1503
g1208
sg1504
g1561
sg349
g1211
sbsS'iw2dscenegraphcore.mkf'
p3034
g323
(g1499
g325
Ntp3035
Rp3036
(dp3037
g1503
g1362
sg1504
g2522
sg349
g1360
sbsS'cassert'
p3038
g323
(g1499
g325
Ntp3039
Rp3040
(dp3041
g1503
g1511
sg1504
g1512
sg349
S'c:/marmalade/7.5/s3e/h/std/c++/cassert'
p3042
sbsS'IwGeomFVec3.h'
p3043
g323
(g1499
g325
Ntp3044
Rp3045
(dp3046
g1503
g1208
sg1504
g1561
sg349
g1270
sbsS'streambuf'
p3047
g323
(g1499
g325
Ntp3048
Rp3049
(dp3050
g1503
g1511
sg1504
g1512
sg349
S'c:/marmalade/7.5/s3e/h/std/c++/streambuf'
p3051
sbsS's3eMetrics.h'
p3052
g323
(g1499
g325
Ntp3053
Rp3054
(dp3055
g1503
g1511
sg1504
g1716
sg349
S'c:/marmalade/7.5/s3e/h/ext/s3eMetrics.h'
p3056
sbsS'IwGxFont.h'
p3057
g323
(g1499
g325
Ntp3058
Rp3059
(dp3060
g1503
g1186
sg1504
g1505
sg349
g1200
sbsS's3eSecureStorage.h'
p3061
g323
(g1499
g325
Ntp3062
Rp3063
(dp3064
g1503
g1511
sg1504
g1527
sg349
S'c:/marmalade/7.5/s3e/h/s3eSecureStorage.h'
p3065
sbsS'string.h'
p3066
g323
(g1499
g325
Ntp3067
Rp3068
(dp3069
g1503
g1511
sg1504
g1533
sg349
S'c:/marmalade/7.5/s3e/h/std/string.h'
p3070
sbsS'IwResource.h'
p3071
g323
(g1499
g325
Ntp3072
Rp3073
(dp3074
g1503
g1372
sg1504
g1540
sg349
g1468
sbsS'IwGeomSVec2.h'
p3075
g323
(g1499
g325
Ntp3076
Rp3077
(dp3078
g1503
g1208
sg1504
g1561
sg349
g1206
sbsS'libjpeg.mkf'
p3079
g323
(g1499
g325
Ntp3080
Rp3081
(dp3082
g1503
g1082
sg1504
(lp3083
g1078
asg349
g1080
sbsS'IwGxDebug.h'
p3084
g323
(g1499
g325
Ntp3085
Rp3086
(dp3087
g1503
g1308
sg1504
g1633
sg349
g1333
sbsS'pthread_types.h'
p3088
g323
(g1499
g325
Ntp3089
Rp3090
(dp3091
g1503
g1511
sg1504
g1533
sg349
S'c:/marmalade/7.5/s3e/h/std/pthread_types.h'
p3092
sbsS'iomanip.h'
p3093
g323
(g1499
g325
Ntp3094
Rp3095
(dp3096
g1503
g1511
sg1504
g1512
sg349
S'c:/marmalade/7.5/s3e/h/std/c++/iomanip.h'
p3097
sbsS'IwKeymap.h'
p3098
g323
(g1499
g325
Ntp3099
Rp3100
(dp3101
g1503
g1372
sg1504
g1540
sg349
g1413
sbsS'IwDebug.h'
p3102
g323
(g1499
g325
Ntp3103
Rp3104
(dp3105
g1503
g1372
sg1504
g1540
sg349
g1401
sbsS's3eIOSBackgroundAudio.h'
p3106
g323
(g1499
g325
Ntp3107
Rp3108
(dp3109
g1503
g1511
sg1504
g1716
sg349
S'c:/marmalade/7.5/s3e/h/ext/s3eIOSBackgroundAudio.h'
p3110
sbsS'IwGeomMenu.h'
p3111
g323
(g1499
g325
Ntp3112
Rp3113
(dp3114
g1503
g1208
sg1504
g1561
sg349
g1264
sbsS'IwDivTable.h'
p3115
g323
(g1499
g325
Ntp3116
Rp3117
(dp3118
g1503
g1372
sg1504
g1540
sg349
g1391
sbsS'ctype.h'
p3119
g323
(g1499
g325
Ntp3120
Rp3121
(dp3122
g1503
g1511
sg1504
g1533
sg349
S'c:/marmalade/7.5/s3e/h/std/ctype.h'
p3123
sbsS'IwGeomMat.h'
p3124
g323
(g1499
g325
Ntp3125
Rp3126
(dp3127
g1503
g1208
sg1504
g1561
sg349
g1224
sbsS'IwResGroup.h'
p3128
g323
(g1499
g325
Ntp3129
Rp3130
(dp3131
g1503
g1284
sg1504
g2047
sg349
g1298
sbsS'signal_1.h'
p3132
g323
(g1499
g325
Ntp3133
Rp3134
(dp3135
g1503
g1511
sg1504
g1647
sg349
S'c:/marmalade/7.5/s3e/h/std/sys/signal.h'
p3136
sbsS'functional'
p3137
g323
(g1499
g325
Ntp3138
Rp3139
(dp3140
g1503
g1511
sg1504
g1512
sg349
S'c:/marmalade/7.5/s3e/h/std/c++/functional'
p3141
sbsS'shm.h'
p3142
g323
(g1499
g325
Ntp3143
Rp3144
(dp3145
g1503
g1511
sg1504
g1647
sg349
S'c:/marmalade/7.5/s3e/h/std/sys/shm.h'
p3146
sbsS'IwManagedList.h'
p3147
g323
(g1499
g325
Ntp3148
Rp3149
(dp3150
g1503
g1372
sg1504
g1540
sg349
g1385
sbsS'prctl.h'
p3151
g323
(g1499
g325
Ntp3152
Rp3153
(dp3154
g1503
g1511
sg1504
g1647
sg349
S'c:/marmalade/7.5/s3e/h/std/sys/prctl.h'
p3155
sbsS'un.h'
p3156
g323
(g1499
g325
Ntp3157
Rp3158
(dp3159
g1503
g1511
sg1504
g1647
sg349
S'c:/marmalade/7.5/s3e/h/std/sys/un.h'
p3160
sbsS'temp_defines_debug.h'
p3161
g323
(g1499
g325
Ntp3162
Rp3163
(dp3164
g1503
(lp3165
sg1504
(lp3166
g2714
asg349
S'd:/School/cs115/AmazingMaze/build_amazingmaze_vc12/temp_defines_debug.h'
p3167
sbsS'utility'
p3168
g323
(g1499
g325
Ntp3169
Rp3170
(dp3171
g1503
g1511
sg1504
g1512
sg349
S'c:/marmalade/7.5/s3e/h/std/c++/utility'
p3172
sbsS'IwGeomLegacy.h'
p3173
g323
(g1499
g325
Ntp3174
Rp3175
(dp3176
g1503
g1208
sg1504
g1561
sg349
g1228
sbsS'IwTPage.h'
p3177
g323
(g1499
g325
Ntp3178
Rp3179
(dp3180
g1503
g1308
sg1504
g1633
sg349
g1356
sbsS'IwResSerialise.h'
p3181
g323
(g1499
g325
Ntp3182
Rp3183
(dp3184
g1503
g1284
sg1504
g2047
sg349
g1285
sbsS's3eCrypto.h'
p3185
g323
(g1499
g325
Ntp3186
Rp3187
(dp3188
g1503
g1511
sg1504
g1527
sg349
S'c:/marmalade/7.5/s3e/h/s3eCrypto.h'
p3189
sbsS's3eKeyboard.h'
p3190
g323
(g1499
g325
Ntp3191
Rp3192
(dp3193
g1503
g1511
sg1504
g1527
sg349
S'c:/marmalade/7.5/s3e/h/s3eKeyboard.h'
p3194
sbsS'fcntl.h'
p3195
g323
(g1499
g325
Ntp3196
Rp3197
(dp3198
g1503
g1511
sg1504
g1533
sg349
S'c:/marmalade/7.5/s3e/h/std/fcntl.h'
p3199
sbsS'Iw2DSceneGraphCore.h'
p3200
g323
(g1499
g325
Ntp3201
Rp3202
(dp3203
g1503
g1365
sg1504
g2522
sg349
g1363
sbsS'memory.h'
p3204
g323
(g1499
g325
Ntp3205
Rp3206
(dp3207
g1503
g1511
sg1504
g1533
sg349
S'c:/marmalade/7.5/s3e/h/std/memory.h'
p3208
sbsS'pthread.h'
p3209
g323
(g1499
g325
Ntp3210
Rp3211
(dp3212
g1503
g1511
sg1504
g1533
sg349
S'c:/marmalade/7.5/s3e/h/std/pthread.h'
p3213
sbsS'IwGeomIntersect.h'
p3214
g323
(g1499
g325
Ntp3215
Rp3216
(dp3217
g1503
g1208
sg1504
g1561
sg349
g1254
sbsS'algorithm'
p3218
g323
(g1499
g325
Ntp3219
Rp3220
(dp3221
g1503
g1511
sg1504
g1512
sg349
S'c:/marmalade/7.5/s3e/h/std/c++/algorithm'
p3222
sbsS'egl_1.h'
p3223
g323
(g1499
g325
Ntp3224
Rp3225
(dp3226
g1503
g1511
sg1504
g2062
sg349
S'c:/marmalade/7.5/s3e/h/GLES/egl.h'
p3227
sbsS'Iw2DSceneGraph.cpp'
p3228
g323
(g1499
g325
Ntp3229
Rp3230
(dp3231
g1503
g1150
sg1504
g1756
sg349
g1148
sbsS'ostream.h'
p3232
g323
(g1499
g325
Ntp3233
Rp3234
(dp3235
g1503
g1511
sg1504
g1512
sg349
S'c:/marmalade/7.5/s3e/h/std/c++/ostream.h'
p3236
sbsS'stl_user_config.h'
p3237
g323
(g1499
g325
Ntp3238
Rp3239
(dp3240
g1503
g1511
sg1504
g1512
sg349
S'c:/marmalade/7.5/s3e/h/std/c++/stl_user_config.h'
p3241
sbsS'IwProfileMenu.h'
p3242
g323
(g1499
g325
Ntp3243
Rp3244
(dp3245
g1503
g1372
sg1504
g1540
sg349
g1387
sbsS'MarmaladeVersion.h'
p3246
g323
(g1499
g325
Ntp3247
Rp3248
(dp3249
g1503
g1511
sg1504
g1527
sg349
S'c:/marmalade/7.5/s3e/h/MarmaladeVersion.h'
p3250
sbsS'gl3platform.h'
p3251
g323
(g1499
g325
Ntp3252
Rp3253
(dp3254
g1503
g1511
sg1504
g1813
sg349
S'c:/marmalade/7.5/s3e/h/GLES3/gl3platform.h'
p3255
sbsS'ios.h'
p3256
g323
(g1499
g325
Ntp3257
Rp3258
(dp3259
g1503
g1511
sg1504
g1512
sg349
S'c:/marmalade/7.5/s3e/h/std/c++/ios.h'
p3260
sbsS'IwImageHelper.h'
p3261
g323
(g1499
g325
Ntp3262
Rp3263
(dp3264
g1503
g1372
sg1504
g1540
sg349
g1383
sbsS'hash_set'
p3265
g323
(g1499
g325
Ntp3266
Rp3267
(dp3268
g1503
g1511
sg1504
g1512
sg349
S'c:/marmalade/7.5/s3e/h/std/c++/hash_set'
p3269
sbsS'IwGeomFQuat.h'
p3270
g323
(g1499
g325
Ntp3271
Rp3272
(dp3273
g1503
g1208
sg1504
g1561
sg349
g1218
sbsS'jmorecfg.h'
p3274
g323
(g1499
g325
Ntp3275
Rp3276
(dp3277
g1503
g1086
sg1504
g1591
sg349
g1095
sbsS'eglplatform.h'
p3278
g323
(g1499
g325
Ntp3279
Rp3280
(dp3281
g1503
g1511
sg1504
g1845
sg349
S'c:/marmalade/7.5/s3e/h/EGL/eglplatform.h'
p3282
sbsS'cmath'
p3283
g323
(g1499
g325
Ntp3284
Rp3285
(dp3286
g1503
g1511
sg1504
g1512
sg349
S'c:/marmalade/7.5/s3e/h/std/c++/cmath'
p3287
sbsS'math_gcc.h'
p3288
g323
(g1499
g325
Ntp3289
Rp3290
(dp3291
g1503
g1511
sg1504
g1533
sg349
S'c:/marmalade/7.5/s3e/h/std/math_gcc.h'
p3292
sbsS's3eMemory.h'
p3293
g323
(g1499
g325
Ntp3294
Rp3295
(dp3296
g1503
g1511
sg1504
g1527
sg349
S'c:/marmalade/7.5/s3e/h/s3eMemory.h'
p3297
sbsS'strings.h'
p3298
g323
(g1499
g325
Ntp3299
Rp3300
(dp3301
g1503
g1511
sg1504
g1533
sg349
S'c:/marmalade/7.5/s3e/h/std/strings.h'
p3302
sbsS's3eFile.h'
p3303
g323
(g1499
g325
Ntp3304
Rp3305
(dp3306
g1503
g1511
sg1504
g1527
sg349
S'c:/marmalade/7.5/s3e/h/s3eFile.h'
p3307
sbsS'IwGxTypes.h'
p3308
g323
(g1499
g325
Ntp3309
Rp3310
(dp3311
g1503
g1308
sg1504
g1633
sg349
g1345
sbsS'cerrno'
p3312
g323
(g1499
g325
Ntp3313
Rp3314
(dp3315
g1503
g1511
sg1504
g1512
sg349
S'c:/marmalade/7.5/s3e/h/std/c++/cerrno'
p3316
sbsS'resource.h'
p3317
g323
(g1499
g325
Ntp3318
Rp3319
(dp3320
g1503
g1511
sg1504
g1647
sg349
S'c:/marmalade/7.5/s3e/h/std/sys/resource.h'
p3321
sbsS'clocale'
p3322
g323
(g1499
g325
Ntp3323
Rp3324
(dp3325
g1503
g1511
sg1504
g1512
sg349
S'c:/marmalade/7.5/s3e/h/std/c++/clocale'
p3326
sbsS'pvrtextool.mkf'
p3327
g323
(g1499
g325
Ntp3328
Rp3329
(dp3330
g1503
g1138
sg1504
g2094
sg349
g1136
sbsS'csetjmp'
p3331
g323
(g1499
g325
Ntp3332
Rp3333
(dp3334
g1503
g1511
sg1504
g1512
sg349
S'c:/marmalade/7.5/s3e/h/std/c++/csetjmp'
p3335
sbsS'netdb.h'
p3336
g323
(g1499
g325
Ntp3337
Rp3338
(dp3339
g1503
g1511
sg1504
g1533
sg349
S'c:/marmalade/7.5/s3e/h/std/netdb.h'
p3340
sbsS's3eAndroidJNI.h'
p3341
g323
(g1499
g325
Ntp3342
Rp3343
(dp3344
g1503
g1511
sg1504
g1716
sg349
S'c:/marmalade/7.5/s3e/h/ext/s3eAndroidJNI.h'
p3345
sbsS'stdexcept'
p3346
g323
(g1499
g325
Ntp3347
Rp3348
(dp3349
g1503
g1511
sg1504
g1512
sg349
S'c:/marmalade/7.5/s3e/h/std/c++/stdexcept'
p3350
sbsS'math.h'
p3351
g323
(g1499
g325
Ntp3352
Rp3353
(dp3354
g1503
g1511
sg1504
g1533
sg349
S'c:/marmalade/7.5/s3e/h/std/math.h'
p3355
sbsS'stdbool.h'
p3356
g323
(g1499
g325
Ntp3357
Rp3358
(dp3359
g1503
g1511
sg1504
g1533
sg349
S'c:/marmalade/7.5/s3e/h/std/stdbool.h'
p3360
sbsS'uio.h'
p3361
g323
(g1499
g325
Ntp3362
Rp3363
(dp3364
g1503
g1511
sg1504
g1647
sg349
S'c:/marmalade/7.5/s3e/h/std/sys/uio.h'
p3365
sbsS'IwUncopyable.h'
p3366
g323
(g1499
g325
Ntp3367
Rp3368
(dp3369
g1503
g1372
sg1504
g1540
sg349
g1450
sbssS'juice_build_type'
p3370
g4
sS'tests'
p3371
(lp3372
sS'project_name'
p3373
g331
sS'root_file'
p3374
g131
sS'current_root'
p3375
S'd:/School/cs115/AmazingMaze'
p3376
sS'dependencies'
p3377
(lp3378
sS'include_paths'
p3379
(lp3380
S'c:/marmalade/7.5/modules/iwutil/h'
p3381
aS'c:/marmalade/7.5/modules/third_party/libjpeg/h'
p3382
aS'c:/marmalade/7.5/modules/third_party/zlib/h'
p3383
aS'c:/marmalade/7.5/modules/third_party/libpng/h'
p3384
aS'c:/marmalade/7.5/modules/iw2dscenegraphcore/h'
p3385
aS'c:/marmalade/7.5/modules/iw2dscenegraph/h'
p3386
aS'c:/marmalade/7.5/modules/iw2d/h'
p3387
aS'c:/marmalade/7.5/modules/iwgx/h'
p3388
aS'c:/marmalade/7.5/modules/iwgl/h'
p3389
aS'c:/marmalade/7.5/modules/iwgeom/h'
p3390
aS'c:/marmalade/7.5/modules/iwresmanager/h'
p3391
aS'c:/marmalade/7.5/extensions/pvrtextool/h'
p3392
aS'c:/marmalade/7.5/modules/iwgxfont/h'
p3393
aS'c:/marmalade/7.5/modules/third_party/tiniconv/source'
p3394
aS'c:/marmalade/7.5/modules/iwtween/h'
p3395
aS'c:/marmalade/7.5/s3e/h'
p3396
aS'c:/marmalade/7.5/s3e/h/ext'
p3397
aS'c:/marmalade/7.5/s3e/h/std'
p3398
aS'c:/marmalade/7.5/s3e/h/std/c++'
p3399
aS'c:/marmalade/7.5/s3e/h/ext_legacy'
p3400
aS'c:/marmalade/7.5/s3e/h/legacy'
p3401
asS'weak_frameworks'
p3402
(lp3403
sS'extprojects'
p3404
(dp3405
sg589
(dp3406
g583
(lp3407
(g87
S'.'
p3408
I0
tp3409
assS'macro_types'
p3410
(dp3411
g522
I1
sg523
I0
sg524
I0
sg525
I0
sg526
I0
sg527
I0
sg528
I0
sg529
I0
sg530
I0
sg532
I0
sg533
I0
sg534
I0
sg535
I0
sg536
I0
sg538
I0
sg540
I0
sg541
I0
sg542
I0
sg543
I0
sg544
I0
sg545
I0
sg546
I1
sg547
I0
sg548
I0
sg549
I0
sg550
I0
sg551
I01
sg552
I1
sg553
I0
sg554
I0
sg555
I0
sg556
I0
sg557
I0
sg559
I0
sg560
I0
ssS'commands'
p3412
(lp3413
sg591
(g1059
S'VC12'
p3414
S'X86ARMAARCH64'
p3415
tp3416
sS'build_libs'
p3417
(dp3418
sg593
g0
sS'frameworks'
p3419
(lp3420
sS'environ'
p3421
(dp3422
sS'target_name_debug'
p3423
g331
sS'builders'
p3424
(dp3425
g583
(dp3426
S'.S'
p3427
(dp3428
S'gcc_aarch64'
p3429
(lp3430
S'.obj'
p3431
aS'echo AARCH64 Assembling(GCC) ${SOURCE}...'
p3432
aS'c:/marmalade/7.5/s3e\\gcc\\win32\\aarch64\\bin\\aarch64-none-elf-gcc -c -o ${TARGET} ${SOURCE}'
p3433
asS'rvct'
p3434
(lp3435
g3431
aS'echo ARM Assembling(RVCT) ${SOURCE}...'
p3436
aS'c:/marmalade/7.5/s3e\\rvct\\bin\\armasm -o ${TARGET} ${SOURCE}'
p3437
asg445
(lp3438
g3431
aS'echo ARM Assembling(GCC) ${SOURCE}...'
p3439
aS'c:/marmalade/7.5/s3e\\gcc\\win32\\arm\\bin\\arm-none-eabi-gcc -c -o ${TARGET} ${SOURCE}'
p3440
asS'ppu'
p3441
(lp3442
S'.a'
p3443
aS'echo PPU Assembling(SNC) ${SOURCE}...'
p3444
aS'c:/marmalade/7.5/s3e\\rvct\\bin\\armasm -o ${TARGET} ${SOURCE}'
p3445
assS'.s'
p3446
g3428
sS'.vp'
p3447
(lp3448
NaS'"C:/Marmalade/7.5/s3e/python/python.exe" "c:/marmalade/7.5/modules/iwgx/tools/compile_shaders.py" ${SOURCE}'
p3449
asssS'extproject_names'
p3450
(lp3451
sbtp3452
.