	.file	"MazeGenerator.cpp"
	.text
.Ltext0:
	.local	_ZN4_STLL8_LocInitE
	.comm	_ZN4_STLL8_LocInitE,1,1
	.local	_ZN4_STLL8_IosInitE
	.comm	_ZN4_STLL8_IosInitE,1,1
	.globl	_Z15MazeInitializerv
	.hidden	_Z15MazeInitializerv
	.type	_Z15MazeInitializerv, @function
_Z15MazeInitializerv:
.LFB2968:
	.file 1 "/Users/xiaolilillytang/Desktop/AmazingMaze/MazeGenerator.cpp"
	.loc 1 22 0
	.cfi_startproc
	pushl	%ebp
	.cfi_def_cfa_offset 8
	.cfi_offset 5, -8
	movl	%esp, %ebp
	.cfi_def_cfa_register 5
	pushl	%esi
	pushl	%ebx
	leal	-16(%esp), %esp
	.cfi_offset 6, -12
	.cfi_offset 3, -16
	call	__x86.get_pc_thunk.bx
	addl	$_GLOBAL_OFFSET_TABLE_, %ebx
.LBB2:
.LBB3:
	.loc 1 23 0
	movl	$0, -12(%ebp)
	jmp	.L2
.L7:
.LBB4:
.LBB5:
	.loc 1 24 0
	movl	$0, -16(%ebp)
	jmp	.L3
.L6:
.LBB6:
.LBB7:
	.loc 1 25 0
	movl	$0, -20(%ebp)
	jmp	.L4
.L5:
	.loc 1 26 0 discriminator 2
	movl	level@GOT(%ebx), %ecx
	movl	-16(%ebp), %edx
	movl	-12(%ebp), %esi
	movl	%edx, %eax
	sall	$4, %eax
	subl	%edx, %eax
	imull	$300, %esi, %edx
	addl	%eax, %edx
	movl	-20(%ebp), %eax
	addl	%eax, %edx
	movl	.LC0@GOTOFF(%ebx), %eax
	movl	%eax, (%ecx,%edx,4)
	.loc 1 25 0 discriminator 2
	addl	$1, -20(%ebp)
.L4:
	.loc 1 25 0 is_stmt 0 discriminator 1
	cmpl	$14, -20(%ebp)
	jle	.L5
.LBE7:
.LBE6:
	.loc 1 24 0 is_stmt 1
	addl	$1, -16(%ebp)
.L3:
	.loc 1 24 0 is_stmt 0 discriminator 1
	cmpl	$19, -16(%ebp)
	jle	.L6
.LBE5:
.LBE4:
	.loc 1 23 0 is_stmt 1
	addl	$1, -12(%ebp)
.L2:
	.loc 1 23 0 is_stmt 0 discriminator 1
	cmpl	$8, -12(%ebp)
	jle	.L7
.LBE3:
.LBE2:
	.loc 1 30 0 is_stmt 1
	leal	16(%esp), %esp
	popl	%ebx
	.cfi_restore 3
	popl	%esi
	.cfi_restore 6
	popl	%ebp
	.cfi_restore 5
	.cfi_def_cfa 4, 4
	ret
	.cfi_endproc
.LFE2968:
	.size	_Z15MazeInitializerv, .-_Z15MazeInitializerv
	.section	.rodata
.LC2:
	.string	"MaxLevel = %i \n"
	.align 4
.LC3:
	.string	"door amount = %i, MaxLevel = %i "
.LC4:
	.string	"level 1: leftpt = %f"
.LC9:
	.string	"resetting......."
	.text
	.globl	_Z13DoorGeneratorv
	.hidden	_Z13DoorGeneratorv
	.type	_Z13DoorGeneratorv, @function
_Z13DoorGeneratorv:
.LFB2969:
	.loc 1 32 0
	.cfi_startproc
	pushl	%ebp
	.cfi_def_cfa_offset 8
	.cfi_offset 5, -8
	movl	%esp, %ebp
	.cfi_def_cfa_register 5
	pushl	%edi
	pushl	%esi
	pushl	%ebx
	leal	-108(%esp), %esp
	.cfi_offset 7, -12
	.cfi_offset 6, -16
	.cfi_offset 3, -20
	call	__x86.get_pc_thunk.bx
	addl	$_GLOBAL_OFFSET_TABLE_, %ebx
.LBB8:
	.loc 1 34 0
	movl	.LC1@GOTOFF(%ebx), %eax
	movl	%eax, -28(%ebp)
	.loc 1 39 0
	movl	MaxLevel@GOT(%ebx), %eax
	movl	(%eax), %eax
	movl	%eax, 4(%esp)
	leal	.LC2@GOTOFF(%ebx), %eax
	movl	%eax, (%esp)
	call	printf@PLT
.LBB9:
	.loc 1 40 0
	movl	$1, -36(%ebp)
	jmp	.L9
.L34:
.LBB10:
	.loc 1 41 0
	movl	$0, (%esp)
	call	time@PLT
	movl	%eax, (%esp)
	call	srand@PLT
	.loc 1 42 0
	call	rand@PLT
	movl	-36(%ebp), %edx
	movl	%edx, %ecx
	addl	%edx, %ecx
	movl	%eax, %edx
	sarl	$31, %edx
	idivl	%ecx
	movl	%edx, %eax
	addl	$2, %eax
	movl	%eax, -40(%ebp)
	.loc 1 43 0
	cmpl	$1, -36(%ebp)
	je	.L10
	.loc 1 44 0
	movl	-32(%ebp), %eax
	movl	%eax, 4(%esp)
	movl	-36(%ebp), %eax
	movl	%eax, (%esp)
	call	_Z17AssignParentChildii
	movl	%eax, -40(%ebp)
.L10:
	.loc 1 46 0
	movl	MaxLevel@GOT(%ebx), %eax
	movl	(%eax), %eax
	movl	%eax, 8(%esp)
	movl	-40(%ebp), %eax
	movl	%eax, 4(%esp)
	leal	.LC3@GOTOFF(%ebx), %eax
	movl	%eax, (%esp)
	call	printf@PLT
.LBB11:
	.loc 1 47 0
	movl	$1, -44(%ebp)
	jmp	.L11
.L33:
.LBB12:
.LBB13:
	.loc 1 48 0
	cmpl	$1, -36(%ebp)
	jne	.L12
	.loc 1 49 0
	movl	$0, (%esp)
	call	time@PLT
	movl	%eax, (%esp)
	call	srand@PLT
	.loc 1 50 0
	cmpl	$1, -44(%ebp)
	jne	.L13
	.loc 1 50 0 is_stmt 0 discriminator 1
	call	rand@PLT
	movl	%eax, %ecx
	movl	$628, %eax
	movl	%eax, %edx
	sarl	$31, %edx
	idivl	-40(%ebp)
	imull	-44(%ebp), %eax
	movl	%eax, %esi
	movl	%ecx, %eax
	movl	%eax, %edx
	sarl	$31, %edx
	idivl	%esi
	movl	%edx, %eax
	cvtsi2ss	%eax, %xmm7
	movd	%xmm7, %eax
	movl	%eax, -28(%ebp)
.L13:
	.loc 1 52 0 is_stmt 1
	movl	$0, (%esp)
	call	time@PLT
	movl	%eax, (%esp)
	call	srand@PLT
	.loc 1 53 0
	cmpl	$1, -44(%ebp)
	je	.L14
	.loc 1 53 0 is_stmt 0 discriminator 1
	call	rand@PLT
	movl	%eax, %ecx
	movl	$628, %eax
	movl	%eax, %edx
	sarl	$31, %edx
	idivl	-40(%ebp)
	movl	%eax, %esi
	movl	%ecx, %eax
	movl	%eax, %edx
	sarl	$31, %edx
	idivl	%esi
	movl	%edx, %ecx
	movl	$628, %eax
	movl	%eax, %edx
	sarl	$31, %edx
	idivl	-40(%ebp)
	movl	-44(%ebp), %edx
	subl	$1, %edx
	imull	%edx, %eax
	addl	%ecx, %eax
	cvtsi2ss	%eax, %xmm7
	movd	%xmm7, %eax
	movl	%eax, -28(%ebp)
.L14:
	.loc 1 54 0 is_stmt 1 discriminator 1
	cvtss2sd	-28(%ebp), %xmm0
	movsd	%xmm0, 4(%esp)
	leal	.LC4@GOTOFF(%ebx), %eax
	movl	%eax, (%esp)
	call	printf@PLT
	.loc 1 55 0 discriminator 1
	movl	-44(%ebp), %eax
	subl	$1, %eax
	movl	%eax, -108(%ebp)
	movl	-28(%ebp), %eax
	movl	.LC5@GOTOFF(%ebx), %edx
	movd	%eax, %xmm2
	movd	%edx, %xmm3
	divss	%xmm3, %xmm2
	movd	%xmm2, %ecx
	movl	level@GOT(%ebx), %esi
	movl	-36(%ebp), %edi
	movl	-108(%ebp), %eax
	sall	$2, %eax
	movl	%eax, %edx
	sall	$4, %edx
	subl	%eax, %edx
	imull	$1200, %edi, %eax
	addl	%edx, %eax
	addl	%esi, %eax
	leal	4(%eax), %eax
	movl	%ecx, (%eax)
	.loc 1 56 0 discriminator 1
	movl	-44(%ebp), %eax
	subl	$1, %eax
	movl	level@GOT(%ebx), %ecx
	movl	-36(%ebp), %esi
	sall	$2, %eax
	movl	%eax, %edx
	sall	$4, %edx
	subl	%eax, %edx
	imull	$1200, %esi, %eax
	addl	%edx, %eax
	leal	(%ecx,%eax), %edx
	movl	.LC6@GOTOFF(%ebx), %eax
	movl	%eax, (%edx)
	.loc 1 57 0 discriminator 1
	movl	-44(%ebp), %eax
	subl	$1, %eax
	movl	level@GOT(%ebx), %ecx
	movl	-36(%ebp), %esi
	sall	$2, %eax
	movl	%eax, %edx
	sall	$4, %edx
	subl	%eax, %edx
	imull	$1200, %esi, %eax
	addl	%edx, %eax
	addl	%ecx, %eax
	leal	12(%eax), %edx
	movl	.LC6@GOTOFF(%ebx), %eax
	movl	%eax, (%edx)
	.loc 1 58 0 discriminator 1
	movl	-44(%ebp), %eax
	subl	$1, %eax
	movl	level@GOT(%ebx), %ecx
	movl	-36(%ebp), %esi
	sall	$2, %eax
	movl	%eax, %edx
	sall	$4, %edx
	subl	%eax, %edx
	imull	$1200, %esi, %eax
	addl	%edx, %eax
	addl	%ecx, %eax
	leal	16(%eax), %edx
	movl	.LC6@GOTOFF(%ebx), %eax
	movl	%eax, (%edx)
	jmp	.L15
.L12:
.LBB14:
	.loc 1 61 0
	movl	$0, (%esp)
	call	time@PLT
	movl	%eax, (%esp)
	call	srand@PLT
	.loc 1 62 0
	movl	-44(%ebp), %eax
	subl	$1, %eax
	movl	level@GOT(%ebx), %ecx
	movl	-36(%ebp), %esi
	sall	$2, %eax
	movl	%eax, %edx
	sall	$4, %edx
	subl	%eax, %edx
	imull	$1200, %esi, %eax
	addl	%edx, %eax
	addl	%ecx, %eax
	leal	12(%eax), %eax
	movl	(%eax), %eax
	movl	%eax, -60(%ebp)
	.loc 1 63 0
	movl	-44(%ebp), %eax
	subl	$1, %eax
	movl	level@GOT(%ebx), %ecx
	movl	-36(%ebp), %esi
	sall	$2, %eax
	movl	%eax, %edx
	sall	$4, %edx
	subl	%eax, %edx
	imull	$1200, %esi, %eax
	addl	%edx, %eax
	addl	%ecx, %eax
	leal	16(%eax), %eax
	movl	(%eax), %eax
	movl	%eax, -64(%ebp)
	.loc 1 64 0
	movl	-64(%ebp), %eax
	movd	%eax, %xmm3
	subss	-60(%ebp), %xmm3
	movd	%xmm3, %eax
	movl	%eax, -48(%ebp)
	.loc 1 65 0
	movl	.LC1@GOTOFF(%ebx), %eax
	movd	%eax, %xmm2
	ucomiss	-48(%ebp), %xmm2
	jb	.L16
	.loc 1 66 0
	cvtss2sd	-64(%ebp), %xmm1
	movsd	.LC7@GOTOFF(%ebx), %xmm0
	addsd	%xmm1, %xmm0
	cvtsd2ss	%xmm0, %xmm4
	movss	%xmm4, -64(%ebp)
	.loc 1 67 0
	movl	-64(%ebp), %eax
	movd	%eax, %xmm4
	subss	-60(%ebp), %xmm4
	movd	%xmm4, %eax
	movl	%eax, -48(%ebp)
.L16:
	.loc 1 69 0
	movl	-44(%ebp), %eax
	subl	$1, %eax
	movl	level@GOT(%ebx), %ecx
	movl	-36(%ebp), %esi
	sall	$2, %eax
	movl	%eax, %edx
	sall	$4, %edx
	subl	%eax, %edx
	imull	$1200, %esi, %eax
	addl	%edx, %eax
	leal	(%eax,%ecx), %eax
	movl	(%eax), %eax
	movd	%eax, %xmm5
	cvttss2si	%xmm5, %eax
	movl	%eax, -68(%ebp)
	.loc 1 70 0
	movl	-36(%ebp), %eax
	movl	%eax, %esi
	subl	$1, %esi
	movl	level@GOT(%ebx), %ecx
	movl	-68(%ebp), %eax
	sall	$2, %eax
	movl	%eax, %edx
	sall	$4, %edx
	subl	%eax, %edx
	imull	$1200, %esi, %eax
	addl	%edx, %eax
	addl	%ecx, %eax
	leal	20(%eax), %eax
	movl	(%eax), %eax
	movd	%eax, %xmm6
	cvttss2si	%xmm6, %eax
	movl	%eax, -72(%ebp)
.LBB15:
	.loc 1 71 0
	cmpl	$1, -72(%ebp)
	jne	.L18
.LBB16:
	.loc 1 72 0
	movl	-48(%ebp), %edx
	movl	.LC5@GOTOFF(%ebx), %eax
	movd	%edx, %xmm5
	movd	%eax, %xmm7
	mulss	%xmm7, %xmm5
	movd	%xmm5, %eax
	movd	%eax, %xmm2
	cvttss2si	%xmm2, %eax
	subl	$50, %eax
	movl	%eax, -76(%ebp)
	.loc 1 73 0
	call	rand@PLT
	movl	%eax, %edx
	sarl	$31, %edx
	idivl	-76(%ebp)
	movl	%edx, %eax
	cvtsi2ss	%eax, %xmm1
	movl	-60(%ebp), %edx
	movl	.LC5@GOTOFF(%ebx), %eax
	movd	%edx, %xmm0
	movd	%eax, %xmm3
	mulss	%xmm3, %xmm0
	addss	%xmm0, %xmm1
	movd	%xmm1, %eax
	movl	%eax, -28(%ebp)
	.loc 1 74 0
	movl	-28(%ebp), %eax
	movd	%eax, %xmm4
	ucomiss	.LC8@GOTOFF(%ebx), %xmm4
	jbe	.L19
	.loc 1 74 0 is_stmt 0 discriminator 1
	movl	-28(%ebp), %eax
	movl	.LC8@GOTOFF(%ebx), %edx
	movd	%eax, %xmm6
	movd	%edx, %xmm5
	subss	%xmm5, %xmm6
	movd	%xmm6, %eax
	movl	%eax, -28(%ebp)
.L19:
.LBB17:
	.loc 1 75 0 is_stmt 1
	movl	MaxLevel@GOT(%ebx), %eax
	movl	(%eax), %eax
	cmpl	%eax, -36(%ebp)
	jne	.L21
.LBB18:
	.loc 1 76 0
	movl	level@GOT(%ebx), %ecx
	movl	-68(%ebp), %eax
	movl	-36(%ebp), %esi
	sall	$2, %eax
	movl	%eax, %edx
	sall	$4, %edx
	subl	%eax, %edx
	imull	$1200, %esi, %eax
	addl	%edx, %eax
	addl	%ecx, %eax
	leal	4(%eax), %eax
	movl	(%eax), %edx
	movl	-28(%ebp), %eax
	movd	%eax, %xmm7
	movd	%edx, %xmm6
	subss	%xmm6, %xmm7
	movd	%xmm7, %eax
	movd	%eax, %xmm7
	cvttss2si	%xmm7, %eax
	movl	%eax, -80(%ebp)
	.loc 1 77 0
	movl	-28(%ebp), %edx
	movl	.LC5@GOTOFF(%ebx), %eax
	movd	%edx, %xmm2
	movd	%eax, %xmm3
	mulss	%xmm3, %xmm2
	movd	%xmm2, %eax
	movd	%eax, %xmm2
	cvttss2si	%xmm2, %eax
	movl	%eax, -84(%ebp)
	.loc 1 78 0
	movl	level@GOT(%ebx), %ecx
	movl	-68(%ebp), %eax
	movl	-36(%ebp), %esi
	sall	$2, %eax
	movl	%eax, %edx
	sall	$4, %edx
	subl	%eax, %edx
	imull	$1200, %esi, %eax
	addl	%edx, %eax
	addl	%ecx, %eax
	leal	4(%eax), %eax
	movl	(%eax), %edx
	movl	.LC5@GOTOFF(%ebx), %eax
	movd	%edx, %xmm3
	movd	%eax, %xmm4
	mulss	%xmm4, %xmm3
	movd	%xmm3, %eax
	movd	%eax, %xmm5
	cvttss2si	%xmm5, %eax
	movl	%eax, -88(%ebp)
	.loc 1 79 0
	jmp	.L22
.L24:
	.loc 1 80 0
	leal	.LC9@GOTOFF(%ebx), %eax
	movl	%eax, (%esp)
	call	puts@PLT
.L22:
	.loc 1 79 0 discriminator 1
	movl	-88(%ebp), %eax
	movl	-84(%ebp), %edx
	subl	%eax, %edx
	movl	%edx, %eax
	cmpl	$-69, %eax
	jl	.L23
	.loc 1 79 0 is_stmt 0 discriminator 2
	movl	-88(%ebp), %eax
	movl	-84(%ebp), %edx
	subl	%eax, %edx
	movl	%edx, %eax
	cmpl	$69, %eax
	jle	.L24
.L23:
	.loc 1 81 0 is_stmt 1
	call	rand@PLT
	movl	%eax, %edx
	sarl	$31, %edx
	idivl	-76(%ebp)
	movl	%edx, %eax
	cvtsi2ss	%eax, %xmm1
	movl	-60(%ebp), %edx
	movl	.LC5@GOTOFF(%ebx), %eax
	movd	%edx, %xmm0
	movd	%eax, %xmm6
	mulss	%xmm6, %xmm0
	addss	%xmm0, %xmm1
	movd	%xmm1, %eax
	movl	%eax, -28(%ebp)
	.loc 1 82 0
	movl	-28(%ebp), %edx
	movl	.LC5@GOTOFF(%ebx), %eax
	movd	%edx, %xmm4
	movd	%eax, %xmm7
	mulss	%xmm7, %xmm4
	movd	%xmm4, %eax
	movd	%eax, %xmm2
	cvttss2si	%xmm2, %eax
	movl	%eax, -84(%ebp)
	.loc 1 83 0
	movl	-28(%ebp), %eax
	movd	%eax, %xmm3
	ucomiss	.LC8@GOTOFF(%ebx), %xmm3
	ja	.L38
.LBE18:
	jmp	.L21
.L38:
.LBB19:
	.loc 1 83 0 is_stmt 0 discriminator 1
	movl	-28(%ebp), %eax
	movl	.LC8@GOTOFF(%ebx), %edx
	movd	%eax, %xmm5
	movd	%edx, %xmm4
	subss	%xmm4, %xmm5
	movd	%xmm5, %eax
	movl	%eax, -28(%ebp)
.L21:
.LBE19:
.LBE17:
	.loc 1 85 0 is_stmt 1 discriminator 1
	movl	-44(%ebp), %eax
	subl	$1, %eax
	movl	%eax, -108(%ebp)
	movl	-28(%ebp), %edx
	movl	.LC10@GOTOFF(%ebx), %eax
	movd	%edx, %xmm6
	movd	%eax, %xmm5
	addss	%xmm5, %xmm6
	movd	%xmm6, %eax
	movl	.LC5@GOTOFF(%ebx), %edx
	movd	%eax, %xmm7
	movd	%edx, %xmm6
	divss	%xmm6, %xmm7
	movd	%xmm7, %ecx
	movl	level@GOT(%ebx), %esi
	movl	-36(%ebp), %edi
	movl	-108(%ebp), %eax
	sall	$2, %eax
	movl	%eax, %edx
	sall	$4, %edx
	subl	%eax, %edx
	imull	$1200, %edi, %eax
	addl	%edx, %eax
	addl	%esi, %eax
	leal	4(%eax), %eax
	movl	%ecx, (%eax)
.LBE16:
	jmp	.L15
.L18:
.LBB20:
.LBB21:
	.loc 1 87 0
	cmpl	$1, -72(%ebp)
	jle	.L15
.LBB22:
	.loc 1 88 0
	movl	-48(%ebp), %edx
	movl	.LC5@GOTOFF(%ebx), %eax
	movd	%edx, %xmm2
	movd	%eax, %xmm7
	mulss	%xmm7, %xmm2
	movd	%xmm2, %eax
	movd	%eax, %xmm2
	cvttss2si	%xmm2, %eax
	movl	%eax, -92(%ebp)
	.loc 1 89 0
	movl	-92(%ebp), %eax
	movl	%eax, %edx
	sarl	$31, %edx
	idivl	-72(%ebp)
	cvtsi2ss	%eax, %xmm3
	movd	%xmm3, %eax
	movl	%eax, -96(%ebp)
	.loc 1 90 0
	movl	$0, -52(%ebp)
.LBB23:
	.loc 1 91 0
	movl	$6, -56(%ebp)
	jmp	.L27
.L30:
	.loc 1 92 0
	movl	-36(%ebp), %eax
	movl	%eax, %esi
	subl	$1, %esi
	movl	level@GOT(%ebx), %ecx
	movl	-68(%ebp), %edx
	movl	%edx, %eax
	sall	$4, %eax
	subl	%edx, %eax
	imull	$300, %esi, %edx
	addl	%eax, %edx
	movl	-56(%ebp), %eax
	leal	(%eax,%edx), %eax
	movl	(%ecx,%eax,4), %eax
	movl	-44(%ebp), %edx
	subl	$1, %edx
	cvtsi2ss	%edx, %xmm0
	movd	%eax, %xmm4
	ucomiss	%xmm0, %xmm4
	jp	.L28
	movd	%eax, %xmm5
	ucomiss	%xmm0, %xmm5
	jne	.L28
	.loc 1 93 0
	movl	-56(%ebp), %eax
	subl	$5, %eax
	movl	%eax, -52(%ebp)
.L28:
	.loc 1 91 0
	addl	$1, -56(%ebp)
.L27:
	.loc 1 91 0 is_stmt 0 discriminator 1
	movl	-72(%ebp), %eax
	addl	$6, %eax
	cmpl	-56(%ebp), %eax
	jg	.L30
.LBE23:
	.loc 1 96 0 is_stmt 1
	movl	-60(%ebp), %edx
	movl	.LC5@GOTOFF(%ebx), %eax
	movd	%edx, %xmm1
	movd	%eax, %xmm6
	mulss	%xmm6, %xmm1
	movl	-52(%ebp), %eax
	subl	$1, %eax
	cvtsi2ss	%eax, %xmm7
	movd	%xmm7, %eax
	movd	%eax, %xmm0
	mulss	-96(%ebp), %xmm0
	addss	%xmm0, %xmm1
	movd	%xmm1, %eax
	movd	%eax, %xmm2
	cvttss2si	%xmm2, %eax
	movl	%eax, -100(%ebp)
	.loc 1 97 0
	movl	-60(%ebp), %edx
	movl	.LC5@GOTOFF(%ebx), %eax
	movd	%edx, %xmm1
	movd	%eax, %xmm3
	mulss	%xmm3, %xmm1
	cvtsi2ss	-52(%ebp), %xmm4
	movd	%xmm4, %eax
	movd	%eax, %xmm0
	mulss	-96(%ebp), %xmm0
	addss	%xmm0, %xmm1
	movd	%xmm1, %eax
	movl	.LC11@GOTOFF(%ebx), %edx
	movd	%eax, %xmm3
	movd	%edx, %xmm5
	subss	%xmm5, %xmm3
	movd	%xmm3, %eax
	movd	%eax, %xmm6
	cvttss2si	%xmm6, %eax
	movl	%eax, -104(%ebp)
	.loc 1 98 0
	call	rand@PLT
	movl	-100(%ebp), %edx
	movl	-104(%ebp), %ecx
	subl	%edx, %ecx
	movl	%eax, %edx
	sarl	$31, %edx
	idivl	%ecx
	movl	-100(%ebp), %eax
	addl	%edx, %eax
	cvtsi2ss	%eax, %xmm7
	movd	%xmm7, %eax
	movl	%eax, -28(%ebp)
	.loc 1 99 0
	movl	-28(%ebp), %eax
	movd	%eax, %xmm2
	ucomiss	.LC8@GOTOFF(%ebx), %xmm2
	jbe	.L31
	.loc 1 99 0 is_stmt 0 discriminator 1
	movl	-28(%ebp), %eax
	movl	.LC8@GOTOFF(%ebx), %edx
	movd	%eax, %xmm4
	movd	%edx, %xmm3
	subss	%xmm3, %xmm4
	movd	%xmm4, %eax
	movl	%eax, -28(%ebp)
.L31:
	.loc 1 100 0 is_stmt 1 discriminator 1
	movl	-44(%ebp), %eax
	subl	$1, %eax
	movl	%eax, -108(%ebp)
	movl	-28(%ebp), %edx
	movl	.LC12@GOTOFF(%ebx), %eax
	movd	%edx, %xmm5
	movd	%eax, %xmm4
	addss	%xmm4, %xmm5
	movd	%xmm5, %eax
	movl	.LC5@GOTOFF(%ebx), %edx
	movd	%eax, %xmm6
	movd	%edx, %xmm5
	divss	%xmm5, %xmm6
	movd	%xmm6, %ecx
	movl	level@GOT(%ebx), %esi
	movl	-36(%ebp), %edi
	movl	-108(%ebp), %eax
	sall	$2, %eax
	movl	%eax, %edx
	sall	$4, %edx
	subl	%eax, %edx
	imull	$1200, %edi, %eax
	addl	%edx, %eax
	addl	%esi, %eax
	leal	4(%eax), %eax
	movl	%ecx, (%eax)
.L15:
.LBE22:
.LBE21:
.LBE20:
.LBE15:
.LBE14:
.LBE13:
.LBE12:
	.loc 1 47 0
	addl	$1, -44(%ebp)
.L11:
	.loc 1 47 0 is_stmt 0 discriminator 1
	movl	-44(%ebp), %eax
	cmpl	-40(%ebp), %eax
	jle	.L33
.LBE11:
	.loc 1 104 0 is_stmt 1
	movl	-40(%ebp), %eax
	movl	%eax, -32(%ebp)
	.loc 1 105 0
	movl	-32(%ebp), %eax
	movl	%eax, 4(%esp)
	movl	-36(%ebp), %eax
	movl	%eax, (%esp)
	call	_Z14BlockGeneratorii
.LBE10:
	.loc 1 40 0
	addl	$1, -36(%ebp)
.L9:
	.loc 1 40 0 is_stmt 0 discriminator 1
	movl	MaxLevel@GOT(%ebx), %eax
	movl	(%eax), %eax
	cmpl	%eax, -36(%ebp)
	jle	.L34
.LBE9:
	.loc 1 107 0 is_stmt 1
	movl	$1, %eax
.LBE8:
	.loc 1 108 0
	leal	108(%esp), %esp
	popl	%ebx
	.cfi_restore 3
	popl	%esi
	.cfi_restore 6
	popl	%edi
	.cfi_restore 7
	popl	%ebp
	.cfi_restore 5
	.cfi_def_cfa 4, 4
	ret
	.cfi_endproc
.LFE2969:
	.size	_Z13DoorGeneratorv, .-_Z13DoorGeneratorv
	.section	.rodata
.LC16:
	.string	"rander = %i \n"
	.align 4
.LC17:
	.string	"-----------------didn't show-----------------------"
	.text
	.globl	_Z17AssignParentChildii
	.hidden	_Z17AssignParentChildii
	.type	_Z17AssignParentChildii, @function
_Z17AssignParentChildii:
.LFB2970:
	.loc 1 110 0
	.cfi_startproc
	pushl	%ebp
	.cfi_def_cfa_offset 8
	.cfi_offset 5, -8
	movl	%esp, %ebp
	.cfi_def_cfa_register 5
	pushl	%edi
	pushl	%esi
	pushl	%ebx
	leal	-76(%esp), %esp
	.cfi_offset 7, -12
	.cfi_offset 6, -16
	.cfi_offset 3, -20
	call	__x86.get_pc_thunk.bx
	addl	$_GLOBAL_OFFSET_TABLE_, %ebx
.LBB24:
	.loc 1 112 0
	movl	$0, -28(%ebp)
	.loc 1 117 0
	movl	$6, -44(%ebp)
.LBB25:
	.loc 1 118 0
	movl	$0, -48(%ebp)
	jmp	.L42
.L54:
.LBB26:
.LBB27:
	.loc 1 119 0
	movl	MaxLevel@GOT(%ebx), %eax
	movl	(%eax), %eax
	cmpl	%eax, 8(%ebp)
	jne	.L43
.LBB28:
	.loc 1 120 0
	movl	$0, (%esp)
	call	time@PLT
	movl	%eax, (%esp)
	call	srand@PLT
	.loc 1 121 0
	call	rand@PLT
	movl	%eax, %edx
	sarl	$31, %edx
	idivl	12(%ebp)
	movl	%edx, -56(%ebp)
	.loc 1 122 0
	movl	8(%ebp), %eax
	movl	%eax, %esi
	subl	$1, %esi
	movl	12(%ebp), %eax
	subl	$1, %eax
	movl	level@GOT(%ebx), %ecx
	sall	$2, %eax
	movl	%eax, %edx
	sall	$4, %edx
	subl	%eax, %edx
	imull	$1200, %esi, %eax
	addl	%edx, %eax
	addl	%ecx, %eax
	leal	8(%eax), %eax
	movl	(%eax), %eax
	movl	%eax, -36(%ebp)
	.loc 1 123 0
	cmpl	$0, -56(%ebp)
	je	.L44
	.loc 1 123 0 is_stmt 0 discriminator 1
	movl	8(%ebp), %eax
	movl	%eax, %esi
	subl	$1, %esi
	movl	-56(%ebp), %eax
	subl	$1, %eax
	movl	level@GOT(%ebx), %ecx
	sall	$2, %eax
	movl	%eax, %edx
	sall	$4, %edx
	subl	%eax, %edx
	imull	$1200, %esi, %eax
	addl	%edx, %eax
	addl	%ecx, %eax
	leal	8(%eax), %eax
	movl	(%eax), %eax
	movl	%eax, -36(%ebp)
.L44:
	.loc 1 124 0 is_stmt 1
	movl	8(%ebp), %eax
	movl	%eax, %esi
	subl	$1, %esi
	movl	level@GOT(%ebx), %ecx
	movl	-56(%ebp), %eax
	sall	$2, %eax
	movl	%eax, %edx
	sall	$4, %edx
	subl	%eax, %edx
	imull	$1200, %esi, %eax
	addl	%edx, %eax
	addl	%ecx, %eax
	leal	8(%eax), %eax
	movl	(%eax), %eax
	movl	%eax, -32(%ebp)
	.loc 1 125 0
	movl	8(%ebp), %eax
	movl	%eax, %esi
	subl	$1, %esi
	movl	level@GOT(%ebx), %ecx
	movl	-56(%ebp), %eax
	sall	$2, %eax
	movl	%eax, %edx
	sall	$4, %edx
	subl	%eax, %edx
	imull	$1200, %esi, %eax
	addl	%edx, %eax
	addl	%ecx, %eax
	leal	24(%eax), %edx
	movl	.LC1@GOTOFF(%ebx), %eax
	movl	%eax, (%edx)
	.loc 1 126 0
	movl	8(%ebp), %eax
	movl	%eax, %esi
	subl	$1, %esi
	movl	level@GOT(%ebx), %ecx
	movl	-56(%ebp), %eax
	sall	$2, %eax
	movl	%eax, %edx
	sall	$4, %edx
	subl	%eax, %edx
	imull	$1200, %esi, %eax
	addl	%edx, %eax
	addl	%ecx, %eax
	leal	20(%eax), %edx
	movl	.LC13@GOTOFF(%ebx), %eax
	movl	%eax, (%edx)
	.loc 1 127 0
	cvtsi2ss	-56(%ebp), %xmm5
	movd	%xmm5, %eax
	movl	level@GOT(%ebx), %ecx
	movl	8(%ebp), %edx
	imull	$1200, %edx, %edx
	leal	(%edx,%ecx), %edx
	movl	%eax, (%edx)
	.loc 1 128 0
	movl	level@GOT(%ebx), %edx
	movl	8(%ebp), %eax
	imull	$1200, %eax, %eax
	addl	%edx, %eax
	leal	12(%eax), %edx
	movl	-36(%ebp), %eax
	movl	%eax, (%edx)
	.loc 1 129 0
	movl	level@GOT(%ebx), %edx
	movl	8(%ebp), %eax
	imull	$1200, %eax, %eax
	addl	%edx, %eax
	leal	16(%eax), %edx
	movl	-32(%ebp), %eax
	movl	%eax, (%edx)
	.loc 1 130 0
	movl	$1, %eax
	jmp	.L45
.L43:
.LBE28:
.LBE27:
	.loc 1 132 0
	movl	8(%ebp), %eax
	movl	%eax, %esi
	subl	$1, %esi
	movl	12(%ebp), %eax
	subl	$1, %eax
	movl	level@GOT(%ebx), %ecx
	sall	$2, %eax
	movl	%eax, %edx
	sall	$4, %edx
	subl	%eax, %edx
	imull	$1200, %esi, %eax
	addl	%edx, %eax
	addl	%ecx, %eax
	leal	8(%eax), %eax
	movl	(%eax), %eax
	movl	%eax, -36(%ebp)
	.loc 1 133 0
	cmpl	$0, -48(%ebp)
	je	.L46
	.loc 1 133 0 is_stmt 0 discriminator 1
	movl	8(%ebp), %eax
	movl	%eax, %esi
	subl	$1, %esi
	movl	-48(%ebp), %eax
	subl	$1, %eax
	movl	level@GOT(%ebx), %ecx
	sall	$2, %eax
	movl	%eax, %edx
	sall	$4, %edx
	subl	%eax, %edx
	imull	$1200, %esi, %eax
	addl	%edx, %eax
	addl	%ecx, %eax
	leal	8(%eax), %eax
	movl	(%eax), %eax
	movl	%eax, -36(%ebp)
.L46:
	.loc 1 134 0 is_stmt 1
	movl	8(%ebp), %eax
	movl	%eax, %esi
	subl	$1, %esi
	movl	level@GOT(%ebx), %ecx
	movl	-48(%ebp), %eax
	sall	$2, %eax
	movl	%eax, %edx
	sall	$4, %edx
	subl	%eax, %edx
	imull	$1200, %esi, %eax
	addl	%edx, %eax
	addl	%ecx, %eax
	leal	8(%eax), %eax
	movl	(%eax), %eax
	movl	%eax, -32(%ebp)
	.loc 1 135 0
	movl	-32(%ebp), %eax
	movd	%eax, %xmm2
	subss	-36(%ebp), %xmm2
	movd	%xmm2, %eax
	movl	%eax, -40(%ebp)
	.loc 1 136 0
	movl	.LC1@GOTOFF(%ebx), %eax
	movd	%eax, %xmm6
	ucomiss	-40(%ebp), %xmm6
	jb	.L47
	.loc 1 136 0 is_stmt 0 discriminator 1
	cvtss2sd	-40(%ebp), %xmm1
	movsd	.LC7@GOTOFF(%ebx), %xmm0
	addsd	%xmm1, %xmm0
	cvtsd2ss	%xmm0, %xmm7
	movss	%xmm7, -40(%ebp)
.L47:
	.loc 1 137 0 is_stmt 1
	cmpl	$1, 12(%ebp)
	jne	.L49
	.loc 1 138 0
	cvtss2sd	-36(%ebp), %xmm0
	movsd	.LC14@GOTOFF(%ebx), %xmm1
	subsd	%xmm1, %xmm0
	cvtsd2ss	%xmm0, %xmm5
	movss	%xmm5, -32(%ebp)
	.loc 1 139 0
	movl	-32(%ebp), %eax
	movd	%eax, %xmm3
	subss	-36(%ebp), %xmm3
	movd	%xmm3, %eax
	movl	%eax, -40(%ebp)
.L49:
	.loc 1 141 0
	cvtss2sd	-40(%ebp), %xmm0
	movsd	.LC15@GOTOFF(%ebx), %xmm1
	divsd	%xmm1, %xmm0
	cvttsd2si	%xmm0, %eax
	movl	%eax, -60(%ebp)
	.loc 1 142 0
	movl	$6, -44(%ebp)
	.loc 1 143 0
	movl	8(%ebp), %eax
	movl	%eax, %esi
	subl	$1, %esi
	movl	level@GOT(%ebx), %ecx
	movl	-48(%ebp), %eax
	sall	$2, %eax
	movl	%eax, %edx
	sall	$4, %edx
	subl	%eax, %edx
	imull	$1200, %esi, %eax
	addl	%edx, %eax
	addl	%ecx, %eax
	leal	20(%eax), %edx
	movl	.LC1@GOTOFF(%ebx), %eax
	movl	%eax, (%edx)
.LBB29:
	.loc 1 144 0
	movl	$0, -52(%ebp)
	jmp	.L50
.L53:
.LBB30:
	.loc 1 146 0
	call	rand@PLT
	movl	%eax, -64(%ebp)
	.loc 1 147 0
	movl	-64(%ebp), %eax
	movl	%eax, 4(%esp)
	leal	.LC16@GOTOFF(%ebx), %eax
	movl	%eax, (%esp)
	call	printf@PLT
	.loc 1 148 0
	movl	-64(%ebp), %ecx
	movl	$1374389535, %edx
	movl	%ecx, %eax
	imull	%edx
	sarl	$5, %edx
	movl	%ecx, %eax
	sarl	$31, %eax
	subl	%eax, %edx
	movl	%edx, %eax
	imull	$100, %eax, %eax
	subl	%eax, %ecx
	movl	%ecx, %eax
	cmpl	$74, %eax
	jg	.L51
	.loc 1 149 0
	movl	8(%ebp), %eax
	movl	%eax, %edi
	subl	$1, %edi
	cvtsi2ss	-28(%ebp), %xmm6
	movd	%xmm6, %edx
	movl	level@GOT(%ebx), %esi
	movl	-48(%ebp), %ecx
	movl	%ecx, %eax
	sall	$4, %eax
	subl	%ecx, %eax
	imull	$300, %edi, %ecx
	addl	%eax, %ecx
	movl	-44(%ebp), %eax
	leal	(%eax,%ecx), %eax
	movl	%edx, (%esi,%eax,4)
	.loc 1 150 0
	movl	8(%ebp), %eax
	movl	%eax, %esi
	subl	$1, %esi
	movl	level@GOT(%ebx), %ecx
	movl	-48(%ebp), %eax
	sall	$2, %eax
	movl	%eax, %edx
	sall	$4, %edx
	subl	%eax, %edx
	imull	$1200, %esi, %eax
	addl	%edx, %eax
	addl	%ecx, %eax
	leal	20(%eax), %eax
	movl	(%eax), %edx
	movl	.LC13@GOTOFF(%ebx), %eax
	movd	%edx, %xmm4
	movd	%eax, %xmm7
	addss	%xmm7, %xmm4
	movd	%xmm4, %ecx
	movl	level@GOT(%ebx), %edi
	movl	-48(%ebp), %eax
	sall	$2, %eax
	movl	%eax, %edx
	sall	$4, %edx
	subl	%eax, %edx
	imull	$1200, %esi, %eax
	addl	%edx, %eax
	addl	%edi, %eax
	leal	20(%eax), %eax
	movl	%ecx, (%eax)
	.loc 1 152 0
	cvtsi2ss	-48(%ebp), %xmm2
	movd	%xmm2, %ecx
	movl	level@GOT(%ebx), %esi
	movl	-28(%ebp), %eax
	movl	8(%ebp), %edi
	sall	$2, %eax
	movl	%eax, %edx
	sall	$4, %edx
	subl	%eax, %edx
	imull	$1200, %edi, %eax
	addl	%edx, %eax
	leal	(%eax,%esi), %eax
	movl	%ecx, (%eax)
	.loc 1 153 0
	movl	level@GOT(%ebx), %ecx
	movl	-28(%ebp), %eax
	movl	8(%ebp), %esi
	sall	$2, %eax
	movl	%eax, %edx
	sall	$4, %edx
	subl	%eax, %edx
	imull	$1200, %esi, %eax
	addl	%edx, %eax
	addl	%ecx, %eax
	leal	12(%eax), %edx
	movl	-36(%ebp), %eax
	movl	%eax, (%edx)
	.loc 1 154 0
	movl	level@GOT(%ebx), %ecx
	movl	-28(%ebp), %eax
	movl	8(%ebp), %esi
	sall	$2, %eax
	movl	%eax, %edx
	sall	$4, %edx
	subl	%eax, %edx
	imull	$1200, %esi, %eax
	addl	%edx, %eax
	addl	%ecx, %eax
	leal	16(%eax), %edx
	movl	-32(%ebp), %eax
	movl	%eax, (%edx)
	.loc 1 155 0
	addl	$1, -28(%ebp)
	.loc 1 156 0
	addl	$1, -44(%ebp)
	jmp	.L52
.L51:
	.loc 1 159 0
	leal	.LC17@GOTOFF(%ebx), %eax
	movl	%eax, (%esp)
	call	puts@PLT
.L52:
.LBE30:
	.loc 1 144 0
	addl	$1, -52(%ebp)
.L50:
	.loc 1 144 0 is_stmt 0 discriminator 1
	movl	-52(%ebp), %eax
	cmpl	-60(%ebp), %eax
	jl	.L53
.LBE29:
.LBE26:
	.loc 1 118 0 is_stmt 1
	addl	$1, -48(%ebp)
.L42:
	.loc 1 118 0 is_stmt 0 discriminator 1
	movl	-48(%ebp), %eax
	cmpl	12(%ebp), %eax
	jl	.L54
.LBE25:
	.loc 1 164 0 is_stmt 1
	movl	MaxLevel@GOT(%ebx), %eax
	movl	(%eax), %eax
	cmpl	%eax, 8(%ebp)
	je	.L55
	.loc 1 164 0 is_stmt 0 discriminator 1
	cmpl	$0, -28(%ebp)
	jne	.L55
	.loc 1 165 0 is_stmt 1
	movl	12(%ebp), %eax
	movl	%eax, 4(%esp)
	movl	8(%ebp), %eax
	movl	%eax, (%esp)
	call	_Z17AssignParentChildii
	jmp	.L45
.L55:
	.loc 1 167 0
	movl	-28(%ebp), %eax
.L45:
.LBE24:
	.loc 1 168 0
	leal	76(%esp), %esp
	popl	%ebx
	.cfi_restore 3
	popl	%esi
	.cfi_restore 6
	popl	%edi
	.cfi_restore 7
	popl	%ebp
	.cfi_restore 5
	.cfi_def_cfa 4, 4
	ret
	.cfi_endproc
.LFE2970:
	.size	_Z17AssignParentChildii, .-_Z17AssignParentChildii
	.section	.rodata
.LC20:
	.string	"leftEdge = %i\n"
.LC22:
	.string	"blockpt = %f \n "
	.text
	.globl	_Z14BlockGeneratorii
	.hidden	_Z14BlockGeneratorii
	.type	_Z14BlockGeneratorii, @function
_Z14BlockGeneratorii:
.LFB2971:
	.loc 1 171 0
	.cfi_startproc
	pushl	%ebp
	.cfi_def_cfa_offset 8
	.cfi_offset 5, -8
	movl	%esp, %ebp
	.cfi_def_cfa_register 5
	pushl	%edi
	pushl	%esi
	pushl	%ebx
	leal	-60(%esp), %esp
	.cfi_offset 7, -12
	.cfi_offset 6, -16
	.cfi_offset 3, -20
	call	__x86.get_pc_thunk.bx
	addl	$_GLOBAL_OFFSET_TABLE_, %ebx
.LBB31:
.LBB32:
	.loc 1 173 0
	movl	$1, -32(%ebp)
	jmp	.L58
.L63:
.LBB33:
	.loc 1 174 0
	movl	$0, (%esp)
	call	time@PLT
	movl	%eax, (%esp)
	call	srand@PLT
	.loc 1 175 0
	movl	-32(%ebp), %eax
	subl	$1, %eax
	movl	level@GOT(%ebx), %ecx
	movl	8(%ebp), %esi
	sall	$2, %eax
	movl	%eax, %edx
	sall	$4, %edx
	subl	%eax, %edx
	imull	$1200, %esi, %eax
	addl	%edx, %eax
	addl	%ecx, %eax
	leal	4(%eax), %eax
	movl	(%eax), %eax
	movd	%eax, %xmm4
	cvtss2sd	%xmm4, %xmm1
	movsd	.LC18@GOTOFF(%ebx), %xmm0
	addsd	%xmm0, %xmm1
	movsd	.LC19@GOTOFF(%ebx), %xmm0
	mulsd	%xmm1, %xmm0
	cvttsd2si	%xmm0, %eax
	movl	%eax, -44(%ebp)
	.loc 1 176 0
	movl	-44(%ebp), %eax
	movl	%eax, 4(%esp)
	leal	.LC20@GOTOFF(%ebx), %eax
	movl	%eax, (%esp)
	call	printf@PLT
	.loc 1 177 0
	movl	level@GOT(%ebx), %ecx
	movl	-32(%ebp), %eax
	movl	8(%ebp), %esi
	sall	$2, %eax
	movl	%eax, %edx
	sall	$4, %edx
	subl	%eax, %edx
	imull	$1200, %esi, %eax
	addl	%edx, %eax
	addl	%ecx, %eax
	leal	4(%eax), %eax
	movl	(%eax), %eax
	movd	%eax, %xmm5
	cvtss2sd	%xmm5, %xmm0
	movsd	.LC18@GOTOFF(%ebx), %xmm1
	subsd	%xmm1, %xmm0
	movapd	%xmm0, %xmm1
	movsd	.LC19@GOTOFF(%ebx), %xmm0
	mulsd	%xmm1, %xmm0
	cvttsd2si	%xmm0, %eax
	movl	%eax, -36(%ebp)
	.loc 1 178 0
	movl	-32(%ebp), %eax
	cmpl	12(%ebp), %eax
	jne	.L59
	.loc 1 178 0 is_stmt 0 discriminator 1
	movl	level@GOT(%ebx), %edx
	movl	8(%ebp), %eax
	imull	$1200, %eax, %eax
	addl	%edx, %eax
	leal	4(%eax), %eax
	movl	(%eax), %eax
	movd	%eax, %xmm6
	cvtss2sd	%xmm6, %xmm0
	movsd	.LC18@GOTOFF(%ebx), %xmm1
	subsd	%xmm1, %xmm0
	movapd	%xmm0, %xmm1
	movsd	.LC19@GOTOFF(%ebx), %xmm0
	mulsd	%xmm1, %xmm0
	cvttsd2si	%xmm0, %eax
	movl	%eax, -36(%ebp)
.L59:
	.loc 1 179 0 is_stmt 1
	movl	-44(%ebp), %eax
	movl	-36(%ebp), %edx
	subl	%eax, %edx
	movl	%edx, %eax
	movl	%eax, -40(%ebp)
	.loc 1 180 0
	cmpl	$0, -40(%ebp)
	jg	.L60
	.loc 1 180 0 is_stmt 0 discriminator 1
	addl	$628, -40(%ebp)
.L60:
	.loc 1 181 0 is_stmt 1
	call	rand@PLT
	movl	%eax, %edx
	sarl	$31, %edx
	idivl	-40(%ebp)
	movl	-44(%ebp), %eax
	addl	%edx, %eax
	cvtsi2ss	%eax, %xmm7
	movd	%xmm7, %eax
	movl	%eax, -28(%ebp)
	.loc 1 182 0
	movl	-28(%ebp), %eax
	movd	%eax, %xmm4
	ucomiss	.LC21@GOTOFF(%ebx), %xmm4
	jbe	.L61
	.loc 1 182 0 is_stmt 0 discriminator 1
	movl	-28(%ebp), %eax
	movl	.LC21@GOTOFF(%ebx), %edx
	movd	%eax, %xmm2
	movd	%edx, %xmm5
	subss	%xmm5, %xmm2
	movd	%xmm2, %eax
	movl	%eax, -28(%ebp)
.L61:
	.loc 1 183 0 is_stmt 1
	cvtss2sd	-28(%ebp), %xmm0
	movsd	%xmm0, 4(%esp)
	leal	.LC22@GOTOFF(%ebx), %eax
	movl	%eax, (%esp)
	call	printf@PLT
	.loc 1 184 0
	movl	-32(%ebp), %eax
	subl	$1, %eax
	movl	%eax, -60(%ebp)
	movl	-28(%ebp), %eax
	movl	.LC5@GOTOFF(%ebx), %edx
	movd	%eax, %xmm3
	movd	%edx, %xmm6
	divss	%xmm6, %xmm3
	movd	%xmm3, %ecx
	movl	level@GOT(%ebx), %esi
	movl	8(%ebp), %edi
	movl	-60(%ebp), %eax
	sall	$2, %eax
	movl	%eax, %edx
	sall	$4, %edx
	subl	%eax, %edx
	imull	$1200, %edi, %eax
	addl	%edx, %eax
	addl	%esi, %eax
	leal	8(%eax), %eax
	movl	%ecx, (%eax)
.LBE33:
	.loc 1 173 0
	addl	$1, -32(%ebp)
.L58:
	.loc 1 173 0 is_stmt 0 discriminator 1
	movl	-32(%ebp), %eax
	cmpl	12(%ebp), %eax
	jle	.L63
.LBE32:
.LBE31:
	.loc 1 186 0 is_stmt 1
	leal	60(%esp), %esp
	popl	%ebx
	.cfi_restore 3
	popl	%esi
	.cfi_restore 6
	popl	%edi
	.cfi_restore 7
	popl	%ebp
	.cfi_restore 5
	.cfi_def_cfa 4, 4
	ret
	.cfi_endproc
.LFE2971:
	.size	_Z14BlockGeneratorii, .-_Z14BlockGeneratorii
	.globl	_Z14setDifficulityi
	.hidden	_Z14setDifficulityi
	.type	_Z14setDifficulityi, @function
_Z14setDifficulityi:
.LFB2972:
	.loc 1 188 0
	.cfi_startproc
	pushl	%ebp
	.cfi_def_cfa_offset 8
	.cfi_offset 5, -8
	movl	%esp, %ebp
	.cfi_def_cfa_register 5
	pushl	%ebx
	leal	-20(%esp), %esp
	.cfi_offset 3, -12
	call	__x86.get_pc_thunk.bx
	addl	$_GLOBAL_OFFSET_TABLE_, %ebx
	.loc 1 189 0
	movl	$0, (%esp)
	call	time@PLT
	movl	%eax, (%esp)
	call	srand@PLT
	.loc 1 190 0
	cmpl	$1, 8(%ebp)
	jne	.L66
	.loc 1 190 0 is_stmt 0 discriminator 1
	movl	MaxLevel@GOT(%ebx), %eax
	movl	$3, (%eax)
.L66:
	.loc 1 191 0 is_stmt 1
	cmpl	$2, 8(%ebp)
	jne	.L67
	.loc 1 191 0 is_stmt 0 discriminator 1
	call	rand@PLT
	movl	%eax, %edx
	sarl	$31, %edx
	shrl	$31, %edx
	addl	%edx, %eax
	andl	$1, %eax
	subl	%edx, %eax
	movl	%eax, %edx
	addl	$4, %edx
	movl	MaxLevel@GOT(%ebx), %eax
	movl	%edx, (%eax)
.L67:
	.loc 1 192 0 is_stmt 1
	cmpl	$3, 8(%ebp)
	jne	.L68
	.loc 1 192 0 is_stmt 0 discriminator 1
	call	rand@PLT
	movl	%eax, %edx
	sarl	$31, %edx
	shrl	$31, %edx
	addl	%edx, %eax
	andl	$1, %eax
	subl	%edx, %eax
	movl	%eax, %edx
	addl	$6, %edx
	movl	MaxLevel@GOT(%ebx), %eax
	movl	%edx, (%eax)
.L68:
	.loc 1 194 0 is_stmt 1
	movl	MaxLevel@GOT(%ebx), %eax
	movl	(%eax), %eax
	.loc 1 195 0
	leal	20(%esp), %esp
	popl	%ebx
	.cfi_restore 3
	popl	%ebp
	.cfi_restore 5
	.cfi_def_cfa 4, 4
	ret
	.cfi_endproc
.LFE2972:
	.size	_Z14setDifficulityi, .-_Z14setDifficulityi
	.type	_Z41__static_initialization_and_destruction_0ii, @function
_Z41__static_initialization_and_destruction_0ii:
.LFB3282:
	.loc 1 195 0
	.cfi_startproc
	pushl	%ebp
	.cfi_def_cfa_offset 8
	.cfi_offset 5, -8
	movl	%esp, %ebp
	.cfi_def_cfa_register 5
	pushl	%ebx
	leal	-20(%esp), %esp
	.cfi_offset 3, -12
	call	__x86.get_pc_thunk.bx
	addl	$_GLOBAL_OFFSET_TABLE_, %ebx
	.loc 1 195 0
	cmpl	$1, 8(%ebp)
	jne	.L70
	.loc 1 195 0 is_stmt 0 discriminator 1
	cmpl	$65535, 12(%ebp)
	jne	.L70
	.file 2 "/Applications/Marmalade.app/Contents/s3e/h/std/c++/iostream"
	.loc 2 69 0 is_stmt 1
	leal	_ZN4_STLL8_LocInitE@GOTOFF(%ebx), %eax
	movl	%eax, (%esp)
	call	_ZN4_STL8ios_base9_Loc_initC1Ev@PLT
	leal	__dso_handle@GOTOFF(%ebx), %eax
	movl	%eax, 8(%esp)
	leal	_ZN4_STLL8_LocInitE@GOTOFF(%ebx), %eax
	movl	%eax, 4(%esp)
	movl	_ZN4_STL8ios_base9_Loc_initD1Ev@GOT(%ebx), %eax
	movl	%eax, (%esp)
	call	__cxa_atexit@PLT
	.loc 2 75 0
	leal	_ZN4_STLL8_IosInitE@GOTOFF(%ebx), %eax
	movl	%eax, (%esp)
	call	_ZN4_STL8ios_base4InitC1Ev@PLT
	leal	__dso_handle@GOTOFF(%ebx), %eax
	movl	%eax, 8(%esp)
	leal	_ZN4_STLL8_IosInitE@GOTOFF(%ebx), %eax
	movl	%eax, 4(%esp)
	movl	_ZN4_STL8ios_base4InitD1Ev@GOT(%ebx), %eax
	movl	%eax, (%esp)
	call	__cxa_atexit@PLT
.L70:
	.loc 1 195 0
	leal	20(%esp), %esp
	popl	%ebx
	.cfi_restore 3
	popl	%ebp
	.cfi_restore 5
	.cfi_def_cfa 4, 4
	ret
	.cfi_endproc
.LFE3282:
	.size	_Z41__static_initialization_and_destruction_0ii, .-_Z41__static_initialization_and_destruction_0ii
	.type	_GLOBAL__sub_I_MazeGenerator.cpp, @function
_GLOBAL__sub_I_MazeGenerator.cpp:
.LFB3283:
	.loc 1 195 0
	.cfi_startproc
	pushl	%ebp
	.cfi_def_cfa_offset 8
	.cfi_offset 5, -8
	movl	%esp, %ebp
	.cfi_def_cfa_register 5
	leal	-24(%esp), %esp
	.loc 1 195 0
	movl	$65535, 4(%esp)
	movl	$1, (%esp)
	call	_Z41__static_initialization_and_destruction_0ii
	leave
	.cfi_restore 5
	.cfi_def_cfa 4, 4
	ret
	.cfi_endproc
.LFE3283:
	.size	_GLOBAL__sub_I_MazeGenerator.cpp, .-_GLOBAL__sub_I_MazeGenerator.cpp
	.section	.init_array,"aw"
	.align 4
	.long	_GLOBAL__sub_I_MazeGenerator.cpp
	.section	.rodata
	.align 4
.LC0:
	.long	-1082130432
	.align 4
.LC1:
	.long	0
	.align 4
.LC5:
	.long	1120403456
	.align 4
.LC6:
	.long	-1073741824
	.align 8
.LC7:
	.long	1374389535
	.long	1075388088
	.align 4
.LC8:
	.long	1142751232
	.align 4
.LC10:
	.long	1092616192
	.align 4
.LC11:
	.long	1112014848
	.align 4
.LC12:
	.long	1084227584
	.align 4
.LC13:
	.long	1065353216
	.align 8
.LC14:
	.long	-1717986918
	.long	1069128089
	.align 8
.LC15:
	.long	-858993459
	.long	1072483532
	.align 8
.LC18:
	.long	858993459
	.long	1070805811
	.align 8
.LC19:
	.long	0
	.long	1079574528
	.align 4
.LC21:
	.long	1142756451
	.section	.text.__x86.get_pc_thunk.bx,"axG",@progbits,__x86.get_pc_thunk.bx,comdat
	.globl	__x86.get_pc_thunk.bx
	.hidden	__x86.get_pc_thunk.bx
	.type	__x86.get_pc_thunk.bx, @function
__x86.get_pc_thunk.bx:
.LFB3284:
	.cfi_startproc
	nop
	nop
	nop
	nop
	nop
	nop
	nop
	nop
	movl	(%esp), %ebx
	ret
	.cfi_endproc
.LFE3284:
	.text
.Letext0:
	.file 3 "/Applications/Marmalade.app/Contents/s3e/h/s3eTypes.h"
	.file 4 "/Applications/Marmalade.app/Contents/s3e/h/std/stddef.h"
	.file 5 "/Applications/Marmalade.app/Contents/s3e/h/std/stdarg.h"
	.file 6 "/Applications/Marmalade.app/Contents/s3e/h/std/stdio.h"
	.file 7 "/Applications/Marmalade.app/Contents/s3e/h/std/stdlib.h"
	.file 8 "/Applications/Marmalade.app/Contents/s3e/h/std/c++/typeinfo.h"
	.file 9 "/Applications/Marmalade.app/Contents/s3e/h/std/c++/exception"
	.file 10 "/Applications/Marmalade.app/Contents/s3e/h/std/c++/typeinfo"
	.file 11 "/Applications/Marmalade.app/Contents/s3e/h/std/c++/cstddef"
	.file 12 "/Applications/Marmalade.app/Contents/s3e/h/std/c++/using/cstring"
	.file 13 "/Applications/Marmalade.app/Contents/s3e/h/std/c++/cstdlib"
	.file 14 "/Applications/Marmalade.app/Contents/s3e/h/std/c++/cstdio"
	.file 15 "/Applications/Marmalade.app/Contents/s3e/h/std/c++/cwchar"
	.file 16 "/Applications/Marmalade.app/Contents/s3e/h/std/c++/stdexcept"
	.file 17 "/Applications/Marmalade.app/Contents/s3e/h/std/c++/stl/_ios_base.h"
	.file 18 "/Applications/Marmalade.app/Contents/s3e/h/std/c++/stl/_num_put.c"
	.file 19 "/Applications/Marmalade.app/Contents/s3e/h/std/c++/stl/_num_get.c"
	.file 20 "/Applications/Marmalade.app/Contents/s3e/h/std/c++/stl/_config.h"
	.file 21 "/Applications/Marmalade.app/Contents/s3e/h/s3eFile.h"
	.file 22 "/Applications/Marmalade.app/Contents/modules/iwutil/h/IwSerialise.h"
	.file 23 "/Applications/Marmalade.app/Contents/modules/iwgeom/h/IwGeomCore.h"
	.file 24 "/Applications/Marmalade.app/Contents/modules/iwgx/h/IwColour.h"
	.file 25 "/Applications/Marmalade.app/Contents/modules/iwutil/h/IwString.h"
	.file 26 "/Applications/Marmalade.app/Contents/modules/iwutil/h/IwAllocator.h"
	.file 27 "/Applications/Marmalade.app/Contents/modules/iwutil/h/IwManaged.h"
	.file 28 "/Applications/Marmalade.app/Contents/modules/iwutil/h/IwArray.h"
	.file 29 "/Applications/Marmalade.app/Contents/modules/iwutil/h/IwManagedList.h"
	.file 30 "/Applications/Marmalade.app/Contents/s3e/h/s3eDebug.h"
	.file 31 "/Applications/Marmalade.app/Contents/modules/iwutil/h/IwEvent.h"
	.file 32 "/Applications/Marmalade.app/Contents/modules/iwresmanager/h/IwResGroup.h"
	.file 33 "/Applications/Marmalade.app/Contents/modules/iwresmanager/h/IwResManagerClass.h"
	.file 34 "/Applications/Marmalade.app/Contents/modules/iwgx/h/IwGxTypes.h"
	.file 35 "/Applications/Marmalade.app/Contents/s3e/h/std/string.h"
	.file 36 "/Applications/Marmalade.app/Contents/s3e/h/std/time.h"
	.file 37 "/Applications/Marmalade.app/Contents/s3e/h/ext/../std/wchar.h"
	.file 38 "/Applications/Marmalade.app/Contents/modules/iw2dscenegraphcore/h/Iw2DSceneGraphCore.h"
	.file 39 "/Applications/Marmalade.app/Contents/modules/iw2dscenegraph/h/Iw2DSceneGraph.h"
	.file 40 "/Applications/Marmalade.app/Contents/modules/iwgeom/h/IwGeomSqrt.h"
	.file 41 "/Applications/Marmalade.app/Contents/modules/iwutil/h/IwMenu.h"
	.file 42 "/Applications/Marmalade.app/Contents/modules/iwutil/h/IwTextParserITX.h"
	.file 43 "/Users/xiaolilillytang/Desktop/AmazingMaze/MazeGenerator.h"
	.file 44 "<built-in>"
	.file 45 "/Applications/Marmalade.app/Contents/s3e/h/std/c++/stl/_stdio_file.h"
	.file 46 "/Applications/Marmalade.app/Contents/modules/iwutil/h/IwTypes.h"
	.section	.note.GNU-stack,"",@progbits
